(dp0
S'Razor'
p1
(lp2
F19.0
aF1.8
aF22.0
aF2.0
aF21.0
aF2.3
aF23.0
aF25.0
aF295.0
aF2.08
asS'Legion_Commander'
p3
(lp4
F20.0
aF2.2
aF18.0
aF1.7
aF26.0
aF2.6
aF35.0
aF39.0
aF320.0
aF2.52
asS'Ogre_Magi'
p5
(lp6
F17.0
aF2.4
aF14.0
aF1.55
aF23.0
aF3.2
aF41.0
aF47.0
aF295.0
aF7.96
asS'Wraith_King'
p7
(lp8
F18.0
aF1.6
aF18.0
aF1.7
aF22.0
aF2.9
aF39.0
aF41.0
aF300.0
aF2.52
asS'Juggernaut'
p9
(lp10
F14.0
aF1.4
aF26.0
aF2.4
aF20.0
aF1.9
aF24.0
aF28.0
aF305.0
aF3.64
asS'Ursa'
p11
(lp12
F16.0
aF1.5
aF18.0
aF2.1
aF23.0
aF2.7
aF27.0
aF31.0
aF310.0
aF5.52
asS'Ancient_Apparition'
p13
(lp14
F25.0
aF2.6
aF20.0
aF2.2
aF18.0
aF1.4
aF19.0
aF29.0
aF295.0
aF1.8
asS'Bane'
p15
(lp16
F22.0
aF2.1
aF22.0
aF2.1
aF22.0
aF2.1
aF33.0
aF39.0
aF315.0
aF4.08
asS'Pugna'
p17
(lp18
F26.0
aF4.0
aF16.0
aF1.0
aF17.0
aF1.2
aF19.0
aF27.0
aF330.0
aF1.24
asS'Tinker'
p19
(lp20
F27.0
aF2.2
aF13.0
aF1.2
aF17.0
aF2.0
aF22.0
aF28.0
aF305.0
aF3.82
asS'Terrorblade'
p21
(lp22
F19.0
aF1.75
aF22.0
aF3.2
aF15.0
aF1.4
aF26.0
aF32.0
aF315.0
aF7.08
asS'Omniknight'
p23
(lp24
F17.0
aF1.8
aF15.0
aF1.75
aF20.0
aF2.65
aF31.0
aF41.0
aF305.0
aF5.1
asS'Undying'
p25
(lp26
F27.0
aF2.5
aF10.0
aF0.8
aF22.0
aF2.1
aF35.0
aF43.0
aF310.0
aF3.4
asS'Elder_Titan'
p27
(lp28
F23.0
aF1.6
aF14.0
aF1.5
aF24.0
aF2.3
aF23.0
aF33.0
aF315.0
aF2.96
asS'Death_Prophet'
p29
(lp30
F20.0
aF3.0
aF14.0
aF1.4
aF19.0
aF1.9
aF24.0
aF36.0
aF280.0
aF2.96
asS'Abaddon'
p31
(lp32
F21.0
aF2.0
aF17.0
aF1.5
aF23.0
aF2.7
aF32.0
aF42.0
aF310.0
aF1.38
asS'Dark_Seer'
p33
(lp34
F27.0
aF2.7
aF12.0
aF1.2
aF22.0
aF2.3
aF31.0
aF37.0
aF300.0
aF6.68
asS'Mirana'
p35
(lp36
F17.0
aF1.65
aF20.0
aF3.3
aF17.0
aF1.85
aF18.0
aF29.0
aF300.0
aF1.8
asS'Natures_Prophet'
p37
(lp38
F21.0
aF2.9
aF18.0
aF1.9
aF19.0
aF1.8
aF24.0
aF38.0
aF295.0
aF3.52
asS'Bristleback'
p39
(lp40
F14.0
aF2.8
aF17.0
aF1.8
aF22.0
aF2.2
aF26.0
aF36.0
aF290.0
aF3.38
asS'Sand_King'
p41
(lp42
F16.0
aF1.8
aF19.0
aF2.1
aF18.0
aF2.6
aF25.0
aF41.0
aF300.0
aF2.66
asS'Troll_Warlord'
p43
(lp44
F13.0
aF1.0
aF21.0
aF2.75
aF17.0
aF2.2
aF17.0
aF35.0
aF300.0
aF1.94
asS'Slardar'
p45
(lp46
F15.0
aF1.5
aF17.0
aF2.4
aF21.0
aF2.8
aF30.0
aF38.0
aF300.0
aF5.38
asS'Anti-Mage'
p47
(lp48
F15.0
aF1.8
aF22.0
aF2.8
aF22.0
aF1.2
aF27.0
aF31.0
aF315.0
aF2.08
asS'Necrophos'
p49
(lp50
F22.0
aF2.5
aF15.0
aF1.7
aF16.0
aF2.0
aF22.0
aF26.0
aF290.0
aF2.1
asS'Storm_Spirit'
p51
(lp52
F23.0
aF2.6
aF22.0
aF1.8
aF19.0
aF1.5
aF22.0
aF32.0
aF285.0
aF5.08
asS'Medusa'
p53
(lp54
F19.0
aF1.85
aF20.0
aF2.5
aF14.0
aF1.65
aF24.0
aF30.0
aF290.0
aF1.8
asS'Ember_Spirit'
p55
(lp56
F20.0
aF1.8
aF22.0
aF1.8
aF19.0
aF2.0
aF30.0
aF34.0
aF310.0
aF1.08
asS'Queen_of_Pain'
p57
(lp58
F24.0
aF2.5
aF18.0
aF2.0
aF16.0
aF1.7
aF25.0
aF33.0
aF295.0
aF1.52
asS'Enchantress'
p59
(lp60
F16.0
aF2.8
aF19.0
aF1.8
aF16.0
aF1.0
aF31.0
aF41.0
aF335.0
aF0.66
asS'Tiny'
p61
(lp62
F17.0
aF1.6
aF9.0
aF0.9
aF26.0
aF3.0
aF37.0
aF43.0
aF285.0
aF0.26
asS'Riki'
p63
(lp64
F14.0
aF1.3
aF34.0
aF2.9
aF17.0
aF2.0
aF4.0
aF8.0
aF290.0
aF5.76
asS'Invoker'
p65
(lp66
F22.0
aF4.0
aF20.0
aF1.9
aF19.0
aF1.7
aF13.0
aF19.0
aF280.0
aF1.8
asS'Earth_Spirit'
p67
(lp68
F18.0
aF2.4
aF17.0
aF1.5
aF21.0
aF2.9
aF25.0
aF35.0
aF305.0
aF3.38
asS'Sniper'
p69
(lp70
F15.0
aF2.6
aF21.0
aF2.5
aF16.0
aF1.7
aF15.0
aF21.0
aF290.0
aF1.94
asS'Witch_Doctor'
p71
(lp72
F24.0
aF2.9
aF13.0
aF1.4
aF16.0
aF1.8
aF27.0
aF37.0
aF305.0
aF0.82
asS'Leshrac'
p73
(lp74
F26.0
aF3.0
aF23.0
aF1.7
aF16.0
aF1.5
aF15.0
aF19.0
aF320.0
aF3.22
asS'Zeus'
p75
(lp76
F20.0
aF2.7
aF11.0
aF1.2
aF19.0
aF2.3
aF21.0
aF29.0
aF295.0
aF1.54
asS'Silencer'
p77
(lp78
F27.0
aF2.5
aF16.0
aF3.0
aF17.0
aF2.2
aF16.0
aF30.0
aF295.0
aF1.24
asS'Broodmother'
p79
(lp80
F18.0
aF2.0
aF18.0
aF2.2
aF17.0
aF2.5
aF26.0
aF32.0
aF295.0
aF2.52
asS'Enigma'
p81
(lp82
F20.0
aF3.4
aF14.0
aF1.0
aF17.0
aF2.1
aF22.0
aF28.0
aF300.0
aF3.96
asS'Doom'
p83
(lp84
F13.0
aF2.1
aF11.0
aF0.9
aF26.0
aF3.2
aF27.0
aF43.0
aF290.0
aF0.54
asS'Lina'
p85
(lp86
F27.0
aF3.2
aF16.0
aF1.5
aF18.0
aF1.5
aF13.0
aF31.0
aF295.0
aF1.24
asS'Spirit_Breaker'
p87
(lp88
F14.0
aF1.8
aF17.0
aF1.7
aF29.0
aF2.4
aF31.0
aF41.0
aF290.0
aF5.38
asS'Alchemist'
p89
(lp90
F25.0
aF1.8
aF11.0
aF1.2
aF25.0
aF1.8
aF24.0
aF33.0
aF295.0
aF1.54
asS'Batrider'
p91
(lp92
F24.0
aF2.5
aF15.0
aF1.5
aF23.0
aF2.4
aF14.0
aF18.0
aF290.0
aF2.1
asS'Brewmaster'
p93
(lp94
F14.0
aF1.25
aF22.0
aF1.95
aF23.0
aF2.9
aF29.0
aF36.0
aF300.0
aF2.08
asS'Dragon_Knight'
p95
(lp96
F15.0
aF1.7
aF19.0
aF2.2
aF19.0
aF2.8
aF27.0
aF33.0
aF290.0
aF3.66
asS'Crystal_Maiden'
p97
(lp98
F16.0
aF2.9
aF16.0
aF1.6
aF16.0
aF1.7
aF19.0
aF25.0
aF280.0
aF1.24
asS'Drow_Ranger'
p99
(lp100
F15.0
aF1.4
aF26.0
aF1.9
aF17.0
aF1.9
aF18.0
aF29.0
aF300.0
aF0.64
asS'Techies'
p101
(lp102
F22.0
aF2.9
aF14.0
aF1.3
aF17.0
aF2.0
aF7.0
aF9.0
aF270.0
aF6.96
asS'Shadow_Demon'
p103
(lp104
F23.0
aF2.7
aF18.0
aF2.2
aF17.0
aF1.9
aF27.0
aF31.0
aF295.0
aF2.52
asS'Lifestealer'
p105
(lp106
F15.0
aF1.75
aF18.0
aF1.9
aF25.0
aF2.4
aF32.0
aF42.0
aF315.0
aF1.52
asS'Gyrocopter'
p107
(lp108
F19.0
aF2.1
aF24.0
aF2.8
aF18.0
aF1.8
aF17.0
aF27.0
aF315.0
aF4.36
asS'Venomancer'
p109
(lp110
F15.0
aF1.75
aF22.0
aF2.6
aF18.0
aF1.85
aF19.0
aF21.0
aF285.0
aF3.08
asS'Naga_Siren'
p111
(lp112
F18.0
aF1.95
aF21.0
aF2.75
aF21.0
aF2.3
aF23.0
aF25.0
aF320.0
aF5.94
asS'Treant_Protector'
p113
(lp114
F17.0
aF1.8
aF15.0
aF2.0
aF25.0
aF3.3
aF56.0
aF64.0
aF300.0
aF1.1
asS'Morphling'
p115
(lp116
F17.0
aF1.5
aF24.0
aF3.4
aF19.0
aF2.0
aF13.0
aF22.0
aF285.0
aF1.36
asS'Lion'
p117
(lp118
F22.0
aF3.0
aF15.0
aF1.5
aF16.0
aF1.7
aF27.0
aF33.0
aF290.0
aF1.1
asS'Phantom_Lancer'
p119
(lp120
F21.0
aF2.0
aF29.0
aF2.6
aF21.0
aF1.7
aF22.0
aF44.0
aF290.0
aF4.06
asS'Dazzle'
p121
(lp122
F27.0
aF3.4
aF21.0
aF1.7
aF16.0
aF1.85
aF14.0
aF32.0
aF305.0
aF1.94
asS'Magnus'
p123
(lp124
F19.0
aF1.65
aF15.0
aF2.5
aF21.0
aF2.75
aF28.0
aF40.0
aF315.0
aF4.1
asS'Axe'
p125
(lp126
F18.0
aF1.6
aF20.0
aF2.2
aF25.0
aF2.5
aF24.0
aF28.0
aF290.0
aF1.8
asS'Lone_Druid'
p127
(lp128
F13.0
aF1.4
aF24.0
aF2.7
aF17.0
aF2.1
aF22.0
aF26.0
aF325.0
aF3.36
asS'Pudge'
p129
(lp130
F14.0
aF1.5
aF14.0
aF1.5
aF25.0
aF3.2
aF27.0
aF33.0
aF285.0
aF0.96
asS'Centaur_Warrunner'
p131
(lp132
F15.0
aF1.6
aF15.0
aF2.0
aF23.0
aF3.8
aF32.0
aF34.0
aF300.0
aF3.1
asS'Warlock'
p133
(lp134
F24.0
aF2.7
aF10.0
aF1.0
aF18.0
aF2.5
aF22.0
aF32.0
aF295.0
aF2.4
asS'Skywrath_Mage'
p135
(lp136
F27.0
aF3.6
aF13.0
aF0.8
aF19.0
aF1.5
aF12.0
aF22.0
aF325.0
aF-0.18
asS'Sven'
p137
(lp138
F16.0
aF1.3
aF21.0
aF2.0
aF23.0
aF2.7
aF37.0
aF39.0
aF295.0
aF4.94
asS'Huskar'
p139
(lp140
F18.0
aF1.5
aF15.0
aF1.4
aF21.0
aF2.4
aF21.0
aF30.0
aF300.0
aF1.1
asS'Shadow_Shaman'
p141
(lp142
F21.0
aF3.0
aF16.0
aF1.6
aF21.0
aF1.8
aF26.0
aF33.0
aF285.0
aF1.24
asS'Outworld_Devourer'
p143
(lp144
F26.0
aF3.3
aF24.0
aF2.0
aF19.0
aF2.3
aF20.0
aF35.0
aF315.0
aF5.36
asS'Clinkz'
p145
(lp146
F16.0
aF1.55
aF22.0
aF3.0
aF15.0
aF1.6
aF15.0
aF21.0
aF300.0
aF2.08
asS'Keeper_of_the_Light'
p147
(lp148
F22.0
aF2.8
aF15.0
aF1.6
aF14.0
aF1.8
aF18.0
aF32.0
aF315.0
aF1.1
asS'Chaos_Knight'
p149
(lp150
F16.0
aF1.2
aF14.0
aF2.1
aF20.0
aF2.9
aF29.0
aF59.0
aF325.0
aF3.96
asS'Clockwerk'
p151
(lp152
F17.0
aF1.3
aF13.0
aF2.3
aF24.0
aF2.7
aF31.0
aF33.0
aF315.0
aF1.82
asS'Night_Stalker'
p153
(lp154
F16.0
aF1.6
aF18.0
aF2.25
aF23.0
aF2.8
aF38.0
aF42.0
aF295.0
aF5.52
asS'Oracle'
p155
(lp156
F23.0
aF2.9
aF15.0
aF1.7
aF18.0
aF1.9
aF22.0
aF28.0
aF305.0
aF2.1
asS'Phantom_Assassin'
p157
(lp158
F13.0
aF1.0
aF23.0
aF3.15
aF20.0
aF1.85
aF23.0
aF25.0
aF310.0
aF4.22
asS'Earthshaker'
p159
(lp160
F16.0
aF1.8
aF12.0
aF1.4
aF22.0
aF2.9
aF24.0
aF34.0
aF310.0
aF2.68
asS'Puck'
p161
(lp162
F25.0
aF2.4
aF22.0
aF1.7
aF15.0
aF1.7
aF22.0
aF33.0
aF295.0
aF2.08
asS'Luna'
p163
(lp164
F16.0
aF1.85
aF18.0
aF2.8
aF15.0
aF2.2
aF26.0
aF32.0
aF330.0
aF3.52
asS'Faceless_Void'
p165
(lp166
F15.0
aF1.5
aF23.0
aF2.65
aF23.0
aF1.6
aF37.0
aF43.0
aF300.0
aF4.22
asS'Shadow_Fiend'
p167
(lp168
F18.0
aF2.0
aF20.0
aF2.9
aF15.0
aF2.0
aF15.0
aF21.0
aF305.0
aF1.8
asS'Disruptor'
p169
(lp170
F22.0
aF2.5
aF15.0
aF1.4
aF19.0
aF1.9
aF27.0
aF31.0
aF300.0
aF1.1
asS'Timbersaw'
p171
(lp172
F21.0
aF2.4
aF16.0
aF1.3
aF22.0
aF2.1
aF26.0
aF30.0
aF290.0
aF0.24
asS'Vengeful_Spirit'
p173
(lp174
F15.0
aF1.75
aF27.0
aF3.3
aF18.0
aF2.6
aF12.0
aF26.0
aF300.0
aF3.78
asS'Templar_Assassin'
p175
(lp176
F20.0
aF2.0
aF23.0
aF2.7
aF18.0
aF2.1
aF30.0
aF36.0
aF305.0
aF4.22
asS'Winter_Wyvern'
p177
(lp178
F25.0
aF3.1
aF16.0
aF1.9
aF24.0
aF2.1
aF13.0
aF20.0
aF285.0
aF1.24
asS'Viper'
p179
(lp180
F15.0
aF1.8
aF21.0
aF2.9
aF20.0
aF1.9
aF23.0
aF25.0
aF285.0
aF1.94
asS'Tusk'
p181
(lp182
F18.0
aF1.7
aF23.0
aF2.1
aF23.0
aF2.3
aF27.0
aF31.0
aF305.0
aF3.22
asS'Lycan'
p183
(lp184
F17.0
aF1.55
aF16.0
aF1.9
aF22.0
aF3.0
aF36.0
aF41.0
aF305.0
aF3.24
asS'Phoenix'
p185
(lp186
F18.0
aF1.8
aF12.0
aF1.3
aF17.0
aF2.9
aF26.0
aF36.0
aF285.0
aF-0.32
asS'Beastmaster'
p187
(lp188
F16.0
aF1.9
aF18.0
aF1.6
aF23.0
aF2.2
aF41.0
aF45.0
aF310.0
aF4.52
asS'Bloodseeker'
p189
(lp190
F18.0
aF1.7
aF24.0
aF3.0
aF23.0
aF2.0
aF29.0
aF35.0
aF290.0
aF3.36
asS'Jakiro'
p191
(lp192
F28.0
aF2.8
aF10.0
aF1.2
aF25.0
aF2.3
aF18.0
aF26.0
aF290.0
aF2.4
asS'Windranger'
p193
(lp194
F22.0
aF2.6
aF17.0
aF1.4
aF15.0
aF2.5
aF22.0
aF34.0
aF295.0
aF1.38
asS'Meepo'
p195
(lp196
F20.0
aF1.6
aF23.0
aF1.9
aF23.0
aF1.6
aF16.0
aF22.0
aF315.0
aF4.22
asS'Nyx_Assassin'
p197
(lp198
F18.0
aF2.1
aF19.0
aF2.2
aF18.0
aF2.0
aF30.0
aF34.0
aF300.0
aF3.66
asS'Spectre'
p199
(lp200
F16.0
aF1.9
aF23.0
aF2.2
aF19.0
aF2.0
aF23.0
aF27.0
aF290.0
aF3.22
asS'Kunkka'
p201
(lp202
F18.0
aF1.5
aF14.0
aF1.3
aF24.0
aF3.0
aF26.0
aF36.0
aF300.0
aF1.96
asS'Slark'
p203
(lp204
F16.0
aF1.9
aF21.0
aF1.5
aF21.0
aF1.8
aF33.0
aF41.0
aF305.0
aF1.94
asS'Weaver'
p205
(lp206
F15.0
aF1.8
aF14.0
aF2.5
aF15.0
aF1.5
aF36.0
aF46.0
aF290.0
aF0.96
asS'Bounty_Hunter'
p207
(lp208
F19.0
aF2.0
aF21.0
aF3.0
aF17.0
aF1.8
aF24.0
aF38.0
aF315.0
aF5.94
asS'Lich'
p209
(lp210
F18.0
aF3.25
aF15.0
aF2.0
aF18.0
aF1.55
aF24.0
aF33.0
aF315.0
aF1.1
asS'Visage'
p211
(lp212
F24.0
aF2.5
aF11.0
aF1.3
aF22.0
aF2.4
aF24.0
aF34.0
aF285.0
aF-0.46
asS'Tidehunter'
p213
(lp214
F16.0
aF1.7
aF15.0
aF1.5
aF22.0
aF3.0
aF25.0
aF31.0
aF305.0
aF3.1
asS'Io'
p215
(lp216
F23.0
aF1.7
aF14.0
aF1.6
aF17.0
aF1.9
aF26.0
aF35.0
aF295.0
aF-0.04
asS'Chen'
p217
(lp218
F21.0
aF2.8
aF15.0
aF2.1
aF20.0
aF1.5
aF22.0
aF32.0
aF300.0
aF1.1
asS'Rubick'
p219
(lp220
F27.0
aF2.4
aF14.0
aF1.6
aF19.0
aF1.5
aF17.0
aF27.0
aF290.0
aF0.96
as.