(lp0
S's4_Queen of Pain'
p1
aS'Akke_Dazzle'
p2
aS'Loda_Spectre'
p3
aS'Mynuts_Night Stalker'
p4
aS'AdmiralBulldog_Natures Prophet'
p5
aS's4_Queen of Pain'
p6
aS'Akke_Undying'
p7
aS'Loda_Clinkz'
p8
aS'Mynuts_Lina'
p9
aS'AdmiralBulldog_Broodmother'
p10
aS's4_Queen of Pain'
p11
aS'Akke_Witch Doctor'
p12
aS'Loda_Alchemist'
p13
aS'Mynuts_Ogre Magi'
p14
aS'AdmiralBulldog_Beastmaster'
p15
aS's4_Batrider'
p16
aS'Akke_Undying'
p17
aS'Loda_Juggernaut'
p18
aS'Mynuts_Disruptor'
p19
aS'AdmiralBulldog_Natures Prophet'
p20
aS's4_Windranger'
p21
aS'Akke_Bane'
p22
aS'Loda_Tiny'
p23
aS'AdmiralBulldog_Nyx Assassin'
p24
aS'Mynuts_Io'
p25
aS's4_Queen of Pain'
p26
aS'Akke_Dazzle'
p27
aS'Loda_Gyrocopter'
p28
aS'Mynuts_Slardar'
p29
aS'AdmiralBulldog_Broodmother'
p30
aS's4_Windranger'
p31
aS'Akke_Bane'
p32
aS'Loda_Slardar'
p33
aS'Mynuts_Tusk'
p34
aS'AdmiralBulldog_Doom'
p35
aS's4_Brewmaster'
p36
aS'Akke_Undying'
p37
aS'Loda_Razor'
p38
aS'Mynuts_Queen of Pain'
p39
aS'AdmiralBulldog_Doom'
p40
aS's4_Gyrocopter'
p41
aS'Akke_Lich'
p42
aS'Loda_Tiny'
p43
aS'Mynuts_Disruptor'
p44
aS'AdmiralBulldog_Night Stalker'
p45
aS's4_Windranger'
p46
aS'Akke_Dazzle'
p47
aS'Loda_Gyrocopter'
p48
aS'AdmiralBulldog_Dark Seer'
p49
aS'Mynuts_Tusk'
p50
aS'ppd_Winter Wyvern'
p51
aS'Sumail_Ember Spirit'
p52
aS'Universe_Tidehunter'
p53
aS'Fear_Undying'
p54
aS'Arteezy_Shadow Fiend'
p55
aS'ppd_Winter Wyvern'
p56
aS'Sumail_Timbersaw'
p57
aS'Universe_Slardar'
p58
aS'Fear_Bane'
p59
aS'Arteezy_Alchemist'
p60
aS'ppd_Winter Wyvern'
p61
aS'Sumail_Templar Assassin'
p62
aS'Universe_Dark Seer'
p63
aS'Fear_Undying'
p64
aS'Arteezy_Gyrocopter'
p65
aS'ppd_Bane'
p66
aS'Sumail_Timbersaw'
p67
aS'Universe_Tusk'
p68
aS'Fear_Undying'
p69
aS'Arteezy_Tiny'
p70
aS'ppd_Dazzle'
p71
aS'Sumail_Lina'
p72
aS'Universe_Nyx Assassin'
p73
aS'Fear_Bane'
p74
aS'Arteezy_Sven'
p75
aS'ppd_Ancient Apparition'
p76
aS'Sumail_Queen of Pain'
p77
aS'Universe_Beastmaster'
p78
aS'Fear_Bane'
p79
aS'Arteezy_Anti Mage'
p80
aS'ppd_Winter Wyvern'
p81
aS'Sumail_Timbersaw'
p82
aS'Universe_Doom'
p83
aS'Fear_Bane'
p84
aS'Arteezy_Tiny'
p85
aS'ppd_Vengeful Spirit'
p86
aS'Sumail_Doom'
p87
aS'Universe_Clockwerk'
p88
aS'Fear_Night Stalker'
p89
aS'Arteezy_Shadow Fiend'
p90
aS'ppd_Winter Wyvern'
p91
aS'Sumail_Storm Spirit'
p92
aS'Universe_Beastmaster'
p93
aS'Fear_Bane'
p94
aS'Arteezy_Juggernaut'
p95
aS'ppd_Winter Wyvern'
p96
aS'Sumail_Doom'
p97
aS'Universe_Tusk'
p98
aS'Fear_Lich'
p99
aS'Arteezy_Templar Assassin'
p100
aS'Simbaaa_Dazzle'
p101
aS'Cr1t_Bane'
p102
aS'Miracle 2_Anti Mage'
p103
aS'MoonMeander_Slardar'
p104
aS'N0tail_Viper'
p105
aS'Simbaaa_Undying'
p106
aS'Cr1t_Io'
p107
aS'Miracle 2_Alchemist'
p108
aS'MoonMeander_Earthshaker'
p109
aS'N0tail_Tiny'
p110
aS'Simbaaa_Dazzle'
p111
aS'Cr1t_Bane'
p112
aS'Miracle 2_Ember Spirit'
p113
aS'MoonMeander_Slardar'
p114
aS'N0tail_Meepo'
p115
aS'Simbaaa_Undying'
p116
aS'Cr1t_Io'
p117
aS'Miracle 2_Alchemist'
p118
aS'MoonMeander_Earthshaker'
p119
aS'N0tail_Tiny'
p120
aS'Simbaaa_Undying'
p121
aS'Cr1t_Winter Wyvern'
p122
aS'Miracle 2_Viper'
p123
aS'MoonMeander_Dark Seer'
p124
aS'N0tail_Phantom Lancer'
p125
aS'Simbaaa_Winter Wyvern'
p126
aS'Cr1t_Tusk'
p127
aS'Miracle 2_Razor'
p128
aS'MoonMeander_Earthshaker'
p129
aS'N0tail_Gyrocopter'
p130
aS'Simbaaa_Undying'
p131
aS'Cr1t_Tusk'
p132
aS'Miracle 2_Alchemist'
p133
aS'MoonMeander_Earthshaker'
p134
aS'N0tail_Gyrocopter'
p135
aS'Simbaaa_Dazzle'
p136
aS'Cr1t_Winter Wyvern'
p137
aS'Miracle 2_Invoker'
p138
aS'MoonMeander_Tusk'
p139
aS'N0tail_Phantom Lancer'
p140
aS'Simbaaa_Dazzle'
p141
aS'Cr1t_Winter Wyvern'
p142
aS'Miracle 2_Alchemist'
p143
aS'MoonMeander_Clockwerk'
p144
aS'N0tail_Gyrocopter'
p145
aS'Simbaaa_Lich'
p146
aS'Cr1t_Rubick'
p147
aS'Miracle 2_Shadow Fiend'
p148
aS'MoonMeander_Doom'
p149
aS'N0tail_Brewmaster'
p150
aS'Puppey_Disruptor'
p151
aS'MiSeRY_Doom'
p152
aS'Eternal Envy_Anti Mage'
p153
aS'w33_Windranger'
p154
aS'PieLieDie_Bounty Hunter'
p155
aS'Puppey_Dazzle'
p156
aS'MiSeRY_Slardar'
p157
aS'Eternal Envy_Anti Mage'
p158
aS'w33_Tiny'
p159
aS'PieLieDie_Bounty Hunter'
p160
aS'Puppey_Dazzle'
p161
aS'MiSeRY_Nyx Assassin'
p162
aS'Eternal Envy_Wraith King'
p163
aS'w33_Shadow Fiend'
p164
aS'PieLieDie_Bane'
p165
aS'Puppey_Dazzle'
p166
aS'MiSeRY_Magnus'
p167
aS'Eternal Envy_Anti Mage'
p168
aS'w33_Windranger'
p169
aS'PieLieDie_Tusk'
p170
aS'Puppey_Ancient Apparition'
p171
aS'MiSeRY_Slardar'
p172
aS'Eternal Envy_Ember Spirit'
p173
aS'w33_Windranger'
p174
aS'PieLieDie_Witch Doctor'
p175
aS'Puppey_Chen'
p176
aS'MiSeRY_Slardar'
p177
aS'Eternal Envy_Doom'
p178
aS'w33_Queen of Pain'
p179
aS'PieLieDie_Shadow Shaman'
p180
aS'Puppey_Beastmaster'
p181
aS'MiSeRY_Magnus'
p182
aS'Eternal Envy_Ember Spirit'
p183
aS'w33_Windranger'
p184
aS'PieLieDie_Bane'
p185
aS'Puppey_Dazzle'
p186
aS'MiSeRY_Tidehunter'
p187
aS'Eternal Envy_Queen of Pain'
p188
aS'w33_Shadow Fiend'
p189
aS'PieLieDie_Night Stalker'
p190
aS'Puppey_Dazzle'
p191
aS'MiSeRY_Doom'
p192
aS'Eternal Envy_Huskar'
p193
aS'w33_Meepo'
p194
aS'PieLieDie_Tiny'
p195
aS'Puppey_Shadow Shaman'
p196
aS'MiSeRY_Doom'
p197
aS'Eternal Envy_Ember Spirit'
p198
aS'w33_Invoker'
p199
aS'PieLieDie_Bounty Hunter'
p200
a.