(lp0
VNME ToySoldier
p1
aVNtz Leopard
p2
aVCORE PRIDE
p3
aVAdrian Ma
p4
aVC10 Meteos
p5
aVJayJ
p6
aVFrostalicious
p7
aVLMQ Adrian
p8
aVwindking666
p9
aVLoveLin
p10
aVAn Nuo l
p11
aVBoy vs Girl
p12
aVKitzuo
p13
aVSwagwarrior405
p14
aVLiquid zig
p15
aVAceirl
p16
aVLOD
p17
aVBillysBoss
p18
aVLiquid fabbbyyy
p19
aVMr Gimix
p20
aVSuper Metroid
p21
aVHotGuy6Pack
p22
aVsuryD
p23
aVLiquid Matt
p24
aVImaqtpie
p25
aVBambie
p26
aVRiesig
p27
aVSSBM Hax
p28
aVS Diana 2
p29
aVValkrin
p30
aVunravelcrow
p31
aVSilas Kroeger
p32
aVchelly2
p33
aVhie
p34
aVLeBron 23
p35
aVGG Oddie
p36
aVShiphtur
p37
aVMeNoHaxor
p38
aVPretty Raheem
p39
aVContractz
p40
aVGodPiglet
p41
aVHarkua Matata
p42
aVNoobkiller291
p43
aVInsanityXXX
p44
aVLiquid FeniX
p45
aVTurtle the Cat
p46
aVP0Z
p47
aVl am Bjerg
p48
aVTR Linsanity
p49
aVAnarii
p50
aVFIaresz
p51
aVDir Yuny
p52
aVmoonway
p53
aVZary
p54
aVStixxay
p55
aVMegaZero
p56
aVnaidaaka
p57
aVgoldenglue3
p58
aVAblazeolive
p59
aVCdrikaProvencher
p60
aVGate
p61
aVC9 Meteos
p62
aVLiquid Pain
p63
aVShadowFiendv
p64
aVdavidroo
p65
aVmid Vox
p66
aVKazahana
p67
aVC9 Sneaky
p68
aVhi im gosu
p69
aVr1FF rAFF
p70
aVHide on bench
p71
aVThe Winter
p72
aVArcsecond
p73
aVLiquid Smoothie
p74
aVFluffyBigKoala
p75
aVAriana Lovato
p76
aVApoIIo Price
p77
aVJimmy Talon
p78
aVRF Legendary
p79
aVDiamond 1 Khazix
p80
aVAE Strider
p81
aVBiofrost 
p82
aVCLG Bunso
p83
aVC9 LOD
p84
aVSanshou
p85
aVLourlo
p86
aVwo shi sha bi
p87
aVTBD TheReborn
p88
aVz1g
p89
aVTlP Gate
p90
aVLMQ Tc Mor
p91
aVwxmx
p92
aV2ya
p93
aVCLG Lourlo
p94
aVMirajane Strauss
p95
aVTM8
p96
aVDyrus
p97
aVK The Lost King
p98
aVImagine baby
p99
aVs Allorim
p100
aVTheeBrandini
p101
aVtop planer
p102
aVImagine Moon
p103
aVYami
p104
aVRikara
p105
aVHuhi
p106
aVZ Y Xydra
p107
aV5tunt
p108
aVFeel The Love
p109
aVzetsuen
p110
aVgoldenglue
p111
aVJynthe
p112
aVhi its viper
p113
aVWaker
p114
aViqb
p115
aVlron Pyrite
p116
aVxPecake
p117
aVRO0Kie
p118
aVApoIlo Price
p119
aVi KeNNy u
p120
aVIm Papa Chau
p121
aVChapanya
p122
aVI Love A Kitten
p123
aVLiquid Inori
p124
aVVSG VeryBitter
p125
aVwindking6
p126
aVQuantum Fizzics
p127
aVRevenge
p128
aVwindking66
p129
aVCosmic Death
p130
aVPobelter
p131
aVLOD2
p132
aVAlito
p133
aVTransIogic
p134
aVSickoscott
p135
aVRed Eye Akame
p136
aVPants are Dragon
p137
aVCris
p138
aVOne Called Saint
p139
aVGillette
p140
aVSKT Frost
p141
aVNintendudeX
p142
aVBobjenkins
p143
aVUGANDAN ROYALTY
p144
aVBlem
p145
aVDardoch
p146
aVwas hellkey
p147
aVIlIIIIIIlllllllI
p148
aVHeeeeeeeeeeeeeee
p149
aVTiP Adrian
p150
aVShort Dog
p151
aVduo to homecomin
p152
aVzero and ten
p153
aVAnnie Bot
p154
aVSpectrum
p155
aVitstimmy
p156
aViMysterious
p157
aVVF4IZNUIM0
p158
aVRicky Tang
p159
aVKEITHMKBRIEF
p160
aVVolt
p161
aVBilly Yu
p162
aVJapcho
p163
aVIcarrynp
p164
aVLiquid Piglet
p165
aVC9 Bunny FuFuu
p166
aVNoahMost
p167
aVKOTHMCBROFF
p168
aV1onz
p169
aVIndivisible
p170
aVUrii
p171
aVNDP Event
p172
aVPoppers OP
p173
aVda notorious 769
p174
aVaksn1per
p175
aVFox Dog
p176
aVilevakaM
p177
aVS0lipsism
p178
aVC9 Hard
p179
aVVSG ggoma
p180
aVchaubb
p181
aVAbou222
p182
aVChorong
p183
aVLiquid Youngbin
p184
aVBeautiful Korean
p185
aVC9 SoIo
p186
aVXpecial
p187
aVLiquid Painless
p188
aVMinishcap1
p189
aVThresh Pony
p190
aVOG Backpack
p191
aVim crying qq
p192
aVKurttttttttttttt
p193
aVCanIgetRank1xD
p194
aVlmpactful
p195
aVHakuho
p196
aVWolfelol
p197
aVfeed l0rd
p198
aVKunbee
p199
aVjungle is succes
p200
a.