(dp0
I1
(i__main__
Champion
p1
(dp2
S'stats'
p3
(dp4
Varmorperlevel
p5
F4.0
sVattackdamage
p6
F50.41
sVmpperlevel
p7
F50.0
sVattackspeedoffset
p8
F0.08
sVmp
p9
F334.0
sVarmor
p10
F19.22
sVhp
p11
F511.68
sVhpregenperlevel
p12
F0.55
sVattackspeedperlevel
p13
F1.36
sVattackrange
p14
F575.0
sVmovespeed
p15
F335.0
sVattackdamageperlevel
p16
F2.625
sVmpregenperlevel
p17
F0.8
sVcritperlevel
p18
F0.0
sVspellblockperlevel
p19
F0.0
sVcrit
p20
F0.0
sVmpregen
p21
F6.0
sVspellblock
p22
F30.0
sVhpregen
p23
F5.42
sVhpperlevel
p24
F76.0
ssS'data'
p25
(dp26
Vstats
p27
g4
sVname
p28
VAnnie
p29
sVtitle
p30
Vthe Dark Child
p31
sVtags
p32
(lp33
VMage
p34
asVkey
p35
VAnnie
p36
sVid
p37
I1
ssS'name'
p38
S'Annie'
p39
sS'tags'
p40
g33
sbsI2
(i__main__
Champion
p41
(dp42
g3
(dp43
Varmorperlevel
p44
F3.0
sVattackdamage
p45
F59.98
sVmpperlevel
p46
F42.0
sVattackspeedoffset
p47
F-0.1
sVmp
p48
F315.6
sVarmor
p49
F26.04
sVhp
p50
F597.24
sVhpregenperlevel
p51
F0.9
sVattackspeedperlevel
p52
F2.7
sVattackrange
p53
F125.0
sVmovespeed
p54
F350.0
sVattackdamageperlevel
p55
F3.5
sVmpregenperlevel
p56
F0.575
sVcritperlevel
p57
F0.0
sVspellblockperlevel
p58
F1.25
sVcrit
p59
F0.0
sVmpregen
p60
F7.465
sVspellblock
p61
F32.1
sVhpregen
p62
F8.51
sVhpperlevel
p63
F93.0
ssg25
(dp64
Vstats
p65
g43
sVname
p66
VOlaf
p67
sVtitle
p68
Vthe Berserker
p69
sVtags
p70
(lp71
VFighter
p72
aVTank
p73
asVkey
p74
VOlaf
p75
sVid
p76
I2
ssg38
S'Olaf'
p77
sg40
g71
sbsI3
(i__main__
Champion
p78
(dp79
g3
(dp80
Varmorperlevel
p81
F3.5
sVattackdamage
p82
F61.97
sVmpperlevel
p83
F47.0
sVattackspeedoffset
p84
F-0.02
sVmp
p85
F369.0
sVarmor
p86
F26.88
sVhp
p87
F577.8
sVhpregenperlevel
p88
F0.75
sVattackspeedperlevel
p89
F1.2
sVattackrange
p90
F125.0
sVmovespeed
p91
F335.0
sVattackdamageperlevel
p92
F3.375
sVmpregenperlevel
p93
F0.8
sVcritperlevel
p94
F0.0
sVspellblockperlevel
p95
F1.25
sVcrit
p96
F0.0
sVmpregen
p97
F6.0
sVspellblock
p98
F32.1
sVhpregen
p99
F8.71
sVhpperlevel
p100
F85.0
ssg25
(dp101
Vstats
p102
g80
sVname
p103
VGalio
p104
sVtitle
p105
Vthe Sentinel's Sorrow
p106
sVtags
p107
(lp108
VTank
p109
aVMage
p110
asVkey
p111
VGalio
p112
sVid
p113
I3
ssg38
S'Galio'
p114
sg40
g108
sbsI4
(i__main__
Champion
p115
(dp116
g3
(dp117
Varmorperlevel
p118
F3.15
sVattackdamage
p119
F49.954
sVmpperlevel
p120
F38.0
sVattackspeedoffset
p121
F-0.04
sVmp
p122
F265.84
sVarmor
p123
F20.542
sVhp
p124
F521.76
sVhpregenperlevel
p125
F0.6
sVattackspeedperlevel
p126
F3.22
sVattackrange
p127
F525.0
sVmovespeed
p128
F330.0
sVattackdamageperlevel
p129
F3.3
sVmpregenperlevel
p130
F0.8
sVcritperlevel
p131
F0.0
sVspellblockperlevel
p132
F0.0
sVcrit
p133
F0.0
sVmpregen
p134
F6.0
sVspellblock
p135
F30.0
sVhpregen
p136
F5.505
sVhpperlevel
p137
F82.0
ssg25
(dp138
Vstats
p139
g117
sVname
p140
VTwisted Fate
p141
sVtitle
p142
Vthe Card Master
p143
sVtags
p144
(lp145
VMage
p146
asVkey
p147
VTwistedFate
p148
sVid
p149
I4
ssg38
S'Twisted Fate'
p150
sg40
g145
sbsI5
(i__main__
Champion
p151
(dp152
g3
(dp153
Varmorperlevel
p154
F3.5
sVattackdamage
p155
F57.544
sVmpperlevel
p156
F35.0
sVattackspeedoffset
p157
F-0.07
sVmp
p158
F273.8
sVarmor
p159
F25.88
sVhp
p160
F591.16
sVhpregenperlevel
p161
F0.7
sVattackspeedperlevel
p162
F2.6
sVattackrange
p163
F175.0
sVmovespeed
p164
F345.0
sVattackdamageperlevel
p165
F3.3
sVmpregenperlevel
p166
F0.45
sVcritperlevel
p167
F0.0
sVspellblockperlevel
p168
F1.25
sVcrit
p169
F0.0
sVmpregen
p170
F7.255
sVspellblock
p171
F32.1
sVhpregen
p172
F8.175
sVhpperlevel
p173
F87.0
ssg25
(dp174
Vstats
p175
g153
sVname
p176
VXin Zhao
p177
sVtitle
p178
Vthe Seneschal of Demacia
p179
sVtags
p180
(lp181
VFighter
p182
aVAssassin
p183
asVkey
p184
VXinZhao
p185
sVid
p186
I5
ssg38
S'Xin Zhao'
p187
sg40
g181
sbsI6
(i__main__
Champion
p188
(dp189
g3
(dp190
Varmorperlevel
p191
F3.3
sVattackdamage
p192
F52.048
sVmpperlevel
p193
F55.0
sVattackspeedoffset
p194
F-0.03
sVmp
p195
F312.4
sVarmor
p196
F24.544
sVhp
p197
F586.52
sVhpregenperlevel
p198
F0.6
sVattackspeedperlevel
p199
F2.9
sVattackrange
p200
F425.0
sVmovespeed
p201
F335.0
sVattackdamageperlevel
p202
F3.6
sVmpregenperlevel
p203
F0.65
sVcritperlevel
p204
F0.0
sVspellblockperlevel
p205
F0.0
sVcrit
p206
F0.0
sVmpregen
p207
F8.59
sVspellblock
p208
F30.0
sVhpregen
p209
F6.505
sVhpperlevel
p210
F89.0
ssg25
(dp211
Vstats
p212
g190
sVname
p213
VUrgot
p214
sVtitle
p215
Vthe Headsman's Pride
p216
sVtags
p217
(lp218
VMarksman
p219
aVFighter
p220
asVkey
p221
VUrgot
p222
sVid
p223
I6
ssg38
S'Urgot'
p224
sg40
g218
sbsI7
(i__main__
Champion
p225
(dp226
g3
(dp227
Varmorperlevel
p228
F3.5
sVattackdamage
p229
F54.88
sVmpperlevel
p230
F50.0
sVattackspeedoffset
p231
F0.0
sVmp
p232
F334.0
sVarmor
p233
F21.88
sVhp
p234
F516.0
sVhpregenperlevel
p235
F0.55
sVattackspeedperlevel
p236
F1.4
sVattackrange
p237
F525.0
sVmovespeed
p238
F335.0
sVattackdamageperlevel
p239
F3.5
sVmpregenperlevel
p240
F0.8
sVcritperlevel
p241
F0.0
sVspellblockperlevel
p242
F0.0
sVcrit
p243
F0.0
sVmpregen
p244
F6.0
sVspellblock
p245
F30.0
sVhpregen
p246
F7.42
sVhpperlevel
p247
F75.0
ssg25
(dp248
Vstats
p249
g227
sVname
p250
VLeBlanc
p251
sVtitle
p252
Vthe Deceiver
p253
sVtags
p254
(lp255
VAssassin
p256
aVMage
p257
asVkey
p258
VLeblanc
p259
sVid
p260
I7
ssg38
S'LeBlanc'
p261
sg40
g255
sbsI8
(i__main__
Champion
p262
(dp263
g3
(dp264
Varmorperlevel
p265
F3.5
sVattackdamage
p266
F48.04
sVmpperlevel
p267
F0.0
sVattackspeedoffset
p268
F-0.05
sVmp
p269
F0.0
sVarmor
p270
F21.88
sVhp
p271
F542.8
sVhpregenperlevel
p272
F0.6
sVattackspeedperlevel
p273
F2.0
sVattackrange
p274
F450.0
sVmovespeed
p275
F335.0
sVattackdamageperlevel
p276
F3.0
sVmpregenperlevel
p277
F0.0
sVcritperlevel
p278
F0.0
sVspellblockperlevel
p279
F0.0
sVcrit
p280
F0.0
sVmpregen
p281
F0.0
sVspellblock
p282
F30.0
sVhpregen
p283
F7.005
sVhpperlevel
p284
F85.0
ssg25
(dp285
Vstats
p286
g264
sVname
p287
VVladimir
p288
sVtitle
p289
Vthe Crimson Reaper
p290
sVtags
p291
(lp292
VMage
p293
aVTank
p294
asVkey
p295
VVladimir
p296
sVid
p297
I8
ssg38
S'Vladimir'
p298
sg40
g292
sbsI9
(i__main__
Champion
p299
(dp300
g3
(dp301
Varmorperlevel
p302
F3.5
sVattackdamage
p303
F48.36
sVmpperlevel
p304
F56.0
sVattackspeedoffset
p305
F0.0
sVmp
p306
F400.12
sVarmor
p307
F20.88
sVhp
p308
F524.4
sVhpregenperlevel
p309
F0.6
sVattackspeedperlevel
p310
F2.11
sVattackrange
p311
F480.0
sVmovespeed
p312
F335.0
sVattackdamageperlevel
p313
F2.625
sVmpregenperlevel
p314
F0.8
sVcritperlevel
p315
F0.0
sVspellblockperlevel
p316
F0.0
sVcrit
p317
F0.0
sVmpregen
p318
F6.0
sVspellblock
p319
F30.0
sVhpregen
p320
F5.605
sVhpperlevel
p321
F80.0
ssg25
(dp322
Vstats
p323
g301
sVname
p324
VFiddlesticks
p325
sVtitle
p326
Vthe Harbinger of Doom
p327
sVtags
p328
(lp329
VMage
p330
aVSupport
p331
asVkey
p332
VFiddleSticks
p333
sVid
p334
I9
ssg38
S'Fiddlesticks'
p335
sg40
g329
sbsI10
(i__main__
Champion
p336
(dp337
g3
(dp338
Varmorperlevel
p339
F3.5
sVattackdamage
p340
F51.0
sVmpperlevel
p341
F40.0
sVattackspeedoffset
p342
F-0.02
sVmp
p343
F322.2
sVarmor
p344
F26.88
sVhp
p345
F574.24
sVhpregenperlevel
p346
F0.75
sVattackspeedperlevel
p347
F2.2
sVattackrange
p348
F125.0
sVmovespeed
p349
F335.0
sVattackdamageperlevel
p350
F2.8
sVmpregenperlevel
p351
F0.8
sVcritperlevel
p352
F0.0
sVspellblockperlevel
p353
F0.0
sVcrit
p354
F0.0
sVmpregen
p355
F6.0
sVspellblock
p356
F30.0
sVhpregen
p357
F8.26
sVhpperlevel
p358
F93.0
ssg25
(dp359
Vstats
p360
g338
sVname
p361
VKayle
p362
sVtitle
p363
VThe Judicator
p364
sVtags
p365
(lp366
VFighter
p367
aVSupport
p368
asVkey
p369
VKayle
p370
sVid
p371
I10
ssg38
S'Kayle'
p372
sg40
g366
sbsI11
(i__main__
Champion
p373
(dp374
g3
(dp375
Varmorperlevel
p376
F3.0
sVattackdamage
p377
F60.04
sVmpperlevel
p378
F42.0
sVattackspeedoffset
p379
F-0.08
sVmp
p380
F250.56
sVarmor
p381
F24.04
sVhp
p382
F598.56
sVhpregenperlevel
p383
F0.65
sVattackspeedperlevel
p384
F2.0
sVattackrange
p385
F125.0
sVmovespeed
p386
F355.0
sVattackdamageperlevel
p387
F3.0
sVmpregenperlevel
p388
F0.45
sVcritperlevel
p389
F0.0
sVspellblockperlevel
p390
F1.25
sVcrit
p391
F0.0
sVmpregen
p392
F7.255
sVspellblock
p393
F32.1
sVhpregen
p394
F7.59
sVhpperlevel
p395
F92.0
ssg25
(dp396
Vstats
p397
g375
sVname
p398
VMaster Yi
p399
sVtitle
p400
Vthe Wuju Bladesman
p401
sVtags
p402
(lp403
VAssassin
p404
aVFighter
p405
asVkey
p406
VMasterYi
p407
sVid
p408
I11
ssg38
S'Master Yi'
p409
sg40
g403
sbsI12
(i__main__
Champion
p410
(dp411
g3
(dp412
Varmorperlevel
p413
F3.5
sVattackdamage
p414
F61.1116
sVmpperlevel
p415
F38.0
sVattackspeedoffset
p416
F0.0
sVmp
p417
F278.84
sVarmor
p418
F24.38
sVhp
p419
F613.36
sVhpregenperlevel
p420
F0.85
sVattackspeedperlevel
p421
F2.125
sVattackrange
p422
F125.0
sVmovespeed
p423
F330.0
sVattackdamageperlevel
p424
F3.62
sVmpregenperlevel
p425
F0.8
sVcritperlevel
p426
F0.0
sVspellblockperlevel
p427
F1.25
sVcrit
p428
F0.0
sVmpregen
p429
F8.5
sVspellblock
p430
F32.1
sVhpregen
p431
F8.675
sVhpperlevel
p432
F106.0
ssg25
(dp433
Vstats
p434
g412
sVname
p435
VAlistar
p436
sVtitle
p437
Vthe Minotaur
p438
sVtags
p439
(lp440
VTank
p441
aVSupport
p442
asVkey
p443
VAlistar
p444
sVid
p445
I12
ssg38
S'Alistar'
p446
sg40
g440
sbsI13
(i__main__
Champion
p447
(dp448
g3
(dp449
Varmorperlevel
p450
F3.0
sVattackdamage
p451
F55.04
sVmpperlevel
p452
F52.0
sVattackspeedoffset
p453
F0.0
sVmp
p454
F392.4
sVarmor
p455
F21.552
sVhp
p456
F558.48
sVhpregenperlevel
p457
F0.55
sVattackspeedperlevel
p458
F2.112
sVattackrange
p459
F550.0
sVmovespeed
p460
F340.0
sVattackdamageperlevel
p461
F3.0
sVmpregenperlevel
p462
F1.0
sVcritperlevel
p463
F0.0
sVspellblockperlevel
p464
F0.0
sVcrit
p465
F0.0
sVmpregen
p466
F5.0
sVspellblock
p467
F30.0
sVhpregen
p468
F5.27
sVhpperlevel
p469
F86.0
ssg25
(dp470
Vstats
p471
g449
sVname
p472
VRyze
p473
sVtitle
p474
Vthe Rogue Mage
p475
sVtags
p476
(lp477
VMage
p478
aVFighter
p479
asVkey
p480
VRyze
p481
sVid
p482
I13
ssg38
S'Ryze'
p483
sg40
g477
sbsI14
(i__main__
Champion
p484
(dp485
g3
(dp486
Varmorperlevel
p487
F3.0
sVattackdamage
p488
F59.72
sVmpperlevel
p489
F42.0
sVattackspeedoffset
p490
F-0.08
sVmp
p491
F325.6
sVarmor
p492
F23.04
sVhp
p493
F542.64
sVhpregenperlevel
p494
F0.8
sVattackspeedperlevel
p495
F1.3
sVattackrange
p496
F175.0
sVmovespeed
p497
F345.0
sVattackdamageperlevel
p498
F4.0
sVmpregenperlevel
p499
F0.6
sVcritperlevel
p500
F0.0
sVspellblockperlevel
p501
F1.25
sVcrit
p502
F0.0
sVmpregen
p503
F8.005
sVspellblock
p504
F32.1
sVhpregen
p505
F10.18
sVhpperlevel
p506
F73.0
ssg25
(dp507
Vstats
p508
g486
sVname
p509
VSion
p510
sVtitle
p511
VThe Undead Juggernaut
p512
sVtags
p513
(lp514
VTank
p515
aVFighter
p516
asVkey
p517
VSion
p518
sVid
p519
I14
ssg38
S'Sion'
p520
sg40
g514
sbsI15
(i__main__
Champion
p521
(dp522
g3
(dp523
Varmorperlevel
p524
F3.25
sVattackdamage
p525
F57.46
sVmpperlevel
p526
F50.0
sVattackspeedoffset
p527
F0.0
sVmp
p528
F284.0
sVarmor
p529
F22.21
sVhp
p530
F515.76
sVhpregenperlevel
p531
F0.55
sVattackspeedperlevel
p532
F1.6
sVattackrange
p533
F500.0
sVmovespeed
p534
F335.0
sVattackdamageperlevel
p535
F2.41
sVmpregenperlevel
p536
F0.9
sVcritperlevel
p537
F0.0
sVspellblockperlevel
p538
F0.0
sVcrit
p539
F0.0
sVmpregen
p540
F8.01
sVspellblock
p541
F30.0
sVhpregen
p542
F5.17
sVhpperlevel
p543
F82.0
ssg25
(dp544
Vstats
p545
g523
sVname
p546
VSivir
p547
sVtitle
p548
Vthe Battle Mistress
p549
sVtags
p550
(lp551
VMarksman
p552
asVkey
p553
VSivir
p554
sVid
p555
I15
ssg38
S'Sivir'
p556
sg40
g551
sbsI16
(i__main__
Champion
p557
(dp558
g3
(dp559
Varmorperlevel
p560
F3.8
sVattackdamage
p561
F50.04
sVmpperlevel
p562
F60.0
sVattackspeedoffset
p563
F0.0
sVmp
p564
F350.8
sVarmor
p565
F23.384
sVhp
p566
F529.04
sVhpregenperlevel
p567
F0.5
sVattackspeedperlevel
p568
F2.14
sVattackrange
p569
F550.0
sVmovespeed
p570
F325.0
sVattackdamageperlevel
p571
F3.0
sVmpregenperlevel
p572
F0.4
sVcritperlevel
p573
F0.0
sVspellblockperlevel
p574
F0.0
sVcrit
p575
F0.0
sVmpregen
p576
F11.5
sVspellblock
p577
F30.0
sVhpregen
p578
F2.5
sVhpperlevel
p579
F78.0
ssg25
(dp580
Vstats
p581
g559
sVname
p582
VSoraka
p583
sVtitle
p584
Vthe Starchild
p585
sVtags
p586
(lp587
VSupport
p588
aVMage
p589
asVkey
p590
VSoraka
p591
sVid
p592
I16
ssg38
S'Soraka'
p593
sg40
g587
sbsI17
(i__main__
Champion
p594
(dp595
g3
(dp596
Varmorperlevel
p597
F3.75
sVattackdamage
p598
F47.54
sVmpperlevel
p599
F40.0
sVattackspeedoffset
p600
F-0.0947
sVmp
p601
F267.2
sVarmor
p602
F24.3
sVhp
p603
F515.76
sVhpregenperlevel
p604
F0.65
sVattackspeedperlevel
p605
F3.38
sVattackrange
p606
F500.0
sVmovespeed
p607
F330.0
sVattackdamageperlevel
p608
F3.0
sVmpregenperlevel
p609
F0.45
sVcritperlevel
p610
F0.0
sVspellblockperlevel
p611
F0.0
sVcrit
p612
F0.0
sVmpregen
p613
F7.205
sVspellblock
p614
F30.0
sVhpregen
p615
F5.74
sVhpperlevel
p616
F82.0
ssg25
(dp617
Vstats
p618
g596
sVname
p619
VTeemo
p620
sVtitle
p621
Vthe Swift Scout
p622
sVtags
p623
(lp624
VMarksman
p625
aVAssassin
p626
asVkey
p627
VTeemo
p628
sVid
p629
I17
ssg38
S'Teemo'
p630
sg40
g624
sbsI18
(i__main__
Champion
p631
(dp632
g3
(dp633
Varmorperlevel
p634
F3.0
sVattackdamage
p635
F56.96
sVmpperlevel
p636
F32.0
sVattackspeedoffset
p637
F-0.04734
sVmp
p638
F246.76
sVarmor
p639
F22.0
sVhp
p640
F542.76
sVhpregenperlevel
p641
F0.65
sVattackspeedperlevel
p642
F1.5
sVattackrange
p643
F550.0
sVmovespeed
p644
F325.0
sVattackdamageperlevel
p645
F2.41
sVmpregenperlevel
p646
F0.45
sVcritperlevel
p647
F0.0
sVspellblockperlevel
p648
F0.0
sVcrit
p649
F0.0
sVmpregen
p650
F7.205
sVspellblock
p651
F30.0
sVhpregen
p652
F6.19
sVhpperlevel
p653
F82.0
ssg25
(dp654
Vstats
p655
g633
sVname
p656
VTristana
p657
sVtitle
p658
Vthe Yordle Gunner
p659
sVtags
p660
(lp661
VMarksman
p662
aVAssassin
p663
asVkey
p664
VTristana
p665
sVid
p666
I18
ssg38
S'Tristana'
p667
sg40
g661
sbsI19
(i__main__
Champion
p668
(dp669
g3
(dp670
Varmorperlevel
p671
F3.5
sVattackdamage
p672
F62.43
sVmpperlevel
p673
F30.0
sVattackspeedoffset
p674
F-0.08
sVmp
p675
F240.4
sVarmor
p676
F25.88
sVhp
p677
F592.64
sVhpregenperlevel
p678
F0.8
sVattackspeedperlevel
p679
F2.88
sVattackrange
p680
F125.0
sVmovespeed
p681
F345.0
sVattackdamageperlevel
p682
F3.375
sVmpregenperlevel
p683
F0.6
sVcritperlevel
p684
F0.0
sVspellblockperlevel
p685
F1.25
sVcrit
p686
F0.0
sVmpregen
p687
F8.105
sVspellblock
p688
F32.1
sVhpregen
p689
F8.39
sVhpperlevel
p690
F98.0
ssg25
(dp691
Vstats
p692
g670
sVname
p693
VWarwick
p694
sVtitle
p695
Vthe Blood Hunter
p696
sVtags
p697
(lp698
VFighter
p699
aVTank
p700
asVkey
p701
VWarwick
p702
sVid
p703
I19
ssg38
S'Warwick'
p704
sg40
g698
sbsI20
(i__main__
Champion
p705
(dp706
g3
(dp707
Varmorperlevel
p708
F3.5
sVattackdamage
p709
F56.856
sVmpperlevel
p710
F42.0
sVattackspeedoffset
p711
F0.0
sVmp
p712
F283.56
sVarmor
p713
F26.38
sVhp
p714
F598.28
sVhpregenperlevel
p715
F0.8
sVattackspeedperlevel
p716
F2.25
sVattackrange
p717
F125.0
sVmovespeed
p718
F350.0
sVattackdamageperlevel
p719
F3.45
sVmpregenperlevel
p720
F0.5
sVcritperlevel
p721
F0.0
sVspellblockperlevel
p722
F1.25
sVcrit
p723
F0.0
sVmpregen
p724
F7.44
sVspellblock
p725
F32.1
sVhpregen
p726
F8.39
sVhpperlevel
p727
F90.0
ssg25
(dp728
Vstats
p729
g707
sVname
p730
VNunu
p731
sVtitle
p732
Vthe Yeti Rider
p733
sVtags
p734
(lp735
VSupport
p736
aVFighter
p737
asVkey
p738
VNunu
p739
sVid
p740
I20
ssg38
S'Nunu'
p741
sg40
g735
sbsI21
(i__main__
Champion
p742
(dp743
g3
(dp744
Varmorperlevel
p745
F3.0
sVattackdamage
p746
F46.0
sVmpperlevel
p747
F35.0
sVattackspeedoffset
p748
F-0.04734
sVmp
p749
F325.84
sVarmor
p750
F24.04
sVhp
p751
F530.0
sVhpregenperlevel
p752
F0.65
sVattackspeedperlevel
p753
F3.0
sVattackrange
p754
F550.0
sVmovespeed
p755
F325.0
sVattackdamageperlevel
p756
F1.0
sVmpregenperlevel
p757
F0.65
sVcritperlevel
p758
F0.0
sVspellblockperlevel
p759
F0.0
sVcrit
p760
F0.0
sVmpregen
p761
F8.04
sVspellblock
p762
F30.0
sVhpregen
p763
F6.19
sVhpperlevel
p764
F85.0
ssg25
(dp765
Vstats
p766
g744
sVname
p767
VMiss Fortune
p768
sVtitle
p769
Vthe Bounty Hunter
p770
sVtags
p771
(lp772
VMarksman
p773
asVkey
p774
VMissFortune
p775
sVid
p776
I21
ssg38
S'Miss Fortune'
p777
sg40
g772
sbsI22
(i__main__
Champion
p778
(dp779
g3
(dp780
Varmorperlevel
p781
F3.4
sVattackdamage
p782
F56.508
sVmpperlevel
p783
F32.0
sVattackspeedoffset
p784
F-0.05
sVmp
p785
F280.0
sVarmor
p786
F21.212
sVhp
p787
F527.72
sVhpregenperlevel
p788
F0.55
sVattackspeedperlevel
p789
F3.33
sVattackrange
p790
F600.0
sVmovespeed
p791
F325.0
sVattackdamageperlevel
p792
F2.26
sVmpregenperlevel
p793
F0.4
sVcritperlevel
p794
F0.0
sVspellblockperlevel
p795
F0.0
sVcrit
p796
F0.0
sVmpregen
p797
F6.97
sVspellblock
p798
F30.0
sVhpregen
p799
F5.42
sVhpperlevel
p800
F79.0
ssg25
(dp801
Vstats
p802
g780
sVname
p803
VAshe
p804
sVtitle
p805
Vthe Frost Archer
p806
sVtags
p807
(lp808
VMarksman
p809
aVSupport
p810
asVkey
p811
VAshe
p812
sVid
p813
I22
ssg38
S'Ashe'
p814
sg40
g808
sbsI23
(i__main__
Champion
p815
(dp816
g3
(dp817
Varmorperlevel
p818
F3.1
sVattackdamage
p819
F61.376
sVmpperlevel
p820
F0.0
sVattackspeedoffset
p821
F-0.0672
sVmp
p822
F100.0
sVarmor
p823
F24.108
sVhp
p824
F625.64
sVhpregenperlevel
p825
F0.9
sVattackspeedperlevel
p826
F2.9
sVattackrange
p827
F125.0
sVmovespeed
p828
F345.0
sVattackdamageperlevel
p829
F3.2
sVmpregenperlevel
p830
F0.0
sVcritperlevel
p831
F0.0
sVspellblockperlevel
p832
F1.25
sVcrit
p833
F0.0
sVmpregen
p834
F0.0
sVspellblock
p835
F32.1
sVhpregen
p836
F8.51
sVhpperlevel
p837
F98.0
ssg25
(dp838
Vstats
p839
g817
sVname
p840
VTryndamere
p841
sVtitle
p842
Vthe Barbarian King
p843
sVtags
p844
(lp845
VFighter
p846
aVAssassin
p847
asVkey
p848
VTryndamere
p849
sVid
p850
I23
ssg38
S'Tryndamere'
p851
sg40
g845
sbsI24
(i__main__
Champion
p852
(dp853
g3
(dp854
Varmorperlevel
p855
F3.0
sVattackdamage
p856
F61.97
sVmpperlevel
p857
F32.0
sVattackspeedoffset
p858
F-0.02
sVmp
p859
F338.8
sVarmor
p860
F27.04
sVhp
p861
F592.8
sVhpregenperlevel
p862
F0.55
sVattackspeedperlevel
p863
F3.4
sVattackrange
p864
F125.0
sVmovespeed
p865
F350.0
sVattackdamageperlevel
p866
F3.375
sVmpregenperlevel
p867
F0.7
sVcritperlevel
p868
F0.0
sVspellblockperlevel
p869
F1.25
sVcrit
p870
F0.0
sVmpregen
p871
F7.575
sVspellblock
p872
F32.1
sVhpregen
p873
F8.37
sVhpperlevel
p874
F85.0
ssg25
(dp875
Vstats
p876
g854
sVname
p877
VJax
p878
sVtitle
p879
VGrandmaster at Arms
p880
sVtags
p881
(lp882
VFighter
p883
aVAssassin
p884
asVkey
p885
VJax
p886
sVid
p887
I24
ssg38
S'Jax'
p888
sg40
g882
sbsI25
(i__main__
Champion
p889
(dp890
g3
(dp891
Varmorperlevel
p892
F3.8
sVattackdamage
p893
F55.46
sVmpperlevel
p894
F60.0
sVattackspeedoffset
p895
F0.0
sVmp
p896
F340.8
sVarmor
p897
F25.384
sVhp
p898
F547.48
sVhpregenperlevel
p899
F0.6
sVattackspeedperlevel
p900
F1.53
sVattackrange
p901
F450.0
sVmovespeed
p902
F335.0
sVattackdamageperlevel
p903
F3.5
sVmpregenperlevel
p904
F0.8
sVcritperlevel
p905
F0.0
sVspellblockperlevel
p906
F0.0
sVcrit
p907
F0.0
sVmpregen
p908
F8.5
sVspellblock
p909
F30.0
sVhpregen
p910
F5.705
sVhpperlevel
p911
F86.0
ssg25
(dp912
Vstats
p913
g891
sVname
p914
VMorgana
p915
sVtitle
p916
VFallen Angel
p917
sVtags
p918
(lp919
VMage
p920
aVSupport
p921
asVkey
p922
VMorgana
p923
sVid
p924
I25
ssg38
S'Morgana'
p925
sg40
g919
sbsI26
(i__main__
Champion
p926
(dp927
g3
(dp928
Varmorperlevel
p929
F3.8
sVattackdamage
p930
F51.64
sVmpperlevel
p931
F60.0
sVattackspeedoffset
p932
F0.0
sVmp
p933
F360.8
sVarmor
p934
F19.134
sVhp
p935
F499.28
sVhpregenperlevel
p936
F0.5
sVattackspeedperlevel
p937
F2.13
sVattackrange
p938
F550.0
sVmovespeed
p939
F335.0
sVattackdamageperlevel
p940
F3.0
sVmpregenperlevel
p941
F0.8
sVcritperlevel
p942
F0.0
sVspellblockperlevel
p943
F0.0
sVcrit
p944
F0.0
sVmpregen
p945
F8.5
sVspellblock
p946
F30.0
sVhpregen
p947
F5.44
sVhpperlevel
p948
F77.0
ssg25
(dp949
Vstats
p950
g928
sVname
p951
VZilean
p952
sVtitle
p953
Vthe Chronokeeper
p954
sVtags
p955
(lp956
VSupport
p957
aVMage
p958
asVkey
p959
VZilean
p960
sVid
p961
I26
ssg38
S'Zilean'
p962
sg40
g956
sbsI27
(i__main__
Champion
p963
(dp964
g3
(dp965
Varmorperlevel
p966
F3.5
sVattackdamage
p967
F62.32
sVmpperlevel
p968
F45.0
sVattackspeedoffset
p969
F0.02
sVmp
p970
F290.6
sVarmor
p971
F27.88
sVhp
p972
F542.76
sVhpregenperlevel
p973
F0.55
sVattackspeedperlevel
p974
F1.81
sVattackrange
p975
F125.0
sVmovespeed
p976
F345.0
sVattackdamageperlevel
p977
F3.375
sVmpregenperlevel
p978
F0.55
sVcritperlevel
p979
F0.0
sVspellblockperlevel
p980
F1.25
sVcrit
p981
F0.0
sVmpregen
p982
F7.52
sVspellblock
p983
F32.1
sVhpregen
p984
F8.02
sVhpperlevel
p985
F82.0
ssg25
(dp986
Vstats
p987
g965
sVname
p988
VSinged
p989
sVtitle
p990
Vthe Mad Chemist
p991
sVtags
p992
(lp993
VTank
p994
aVFighter
p995
asVkey
p996
VSinged
p997
sVid
p998
I27
ssg38
S'Singed'
p999
sg40
g993
sbsI28
(i__main__
Champion
p1000
(dp1001
g3
(dp1002
Varmorperlevel
p1003
F3.8
sVattackdamage
p1004
F53.88
sVmpperlevel
p1005
F42.0
sVattackspeedoffset
p1006
F0.0
sVmp
p1007
F315.6
sVarmor
p1008
F26.5
sVhp
p1009
F531.2
sVhpregenperlevel
p1010
F0.55
sVattackspeedperlevel
p1011
F3.6
sVattackrange
p1012
F125.0
sVmovespeed
p1013
F340.0
sVattackdamageperlevel
p1014
F3.5
sVmpregenperlevel
p1015
F0.6
sVcritperlevel
p1016
F0.0
sVspellblockperlevel
p1017
F1.25
sVcrit
p1018
F0.0
sVmpregen
p1019
F8.105
sVspellblock
p1020
F32.1
sVhpregen
p1021
F9.82
sVhpperlevel
p1022
F90.0
ssg25
(dp1023
Vstats
p1024
g1002
sVname
p1025
VEvelynn
p1026
sVtitle
p1027
Vthe Widowmaker
p1028
sVtags
p1029
(lp1030
VAssassin
p1031
aVMage
p1032
asVkey
p1033
VEvelynn
p1034
sVid
p1035
I28
ssg38
S'Evelynn'
p1036
sg40
g1030
sbsI29
(i__main__
Champion
p1037
(dp1038
g3
(dp1039
Varmorperlevel
p1040
F3.0
sVattackdamage
p1041
F55.46
sVmpperlevel
p1042
F40.0
sVattackspeedoffset
p1043
F-0.08
sVmp
p1044
F287.2
sVarmor
p1045
F23.04
sVhp
p1046
F525.08
sVhpregenperlevel
p1047
F0.6
sVattackspeedperlevel
p1048
F3.38
sVattackrange
p1049
F550.0
sVmovespeed
p1050
F330.0
sVattackdamageperlevel
p1051
F2.41
sVmpregenperlevel
p1052
F0.45
sVcritperlevel
p1053
F0.0
sVspellblockperlevel
p1054
F0.0
sVcrit
p1055
F0.0
sVmpregen
p1056
F7.255
sVspellblock
p1057
F30.0
sVhpregen
p1058
F6.005
sVhpperlevel
p1059
F81.0
ssg25
(dp1060
Vstats
p1061
g1039
sVname
p1062
VTwitch
p1063
sVtitle
p1064
Vthe Plague Rat
p1065
sVtags
p1066
(lp1067
VMarksman
p1068
aVAssassin
p1069
asVkey
p1070
VTwitch
p1071
sVid
p1072
I29
ssg38
S'Twitch'
p1073
sg40
g1067
sbsI30
(i__main__
Champion
p1074
(dp1075
g3
(dp1076
Varmorperlevel
p1077
F3.5
sVattackdamage
p1078
F45.66
sVmpperlevel
p1079
F61.0
sVattackspeedoffset
p1080
F0.0
sVmp
p1081
F372.48
sVarmor
p1082
F20.88
sVhp
p1083
F516.0
sVhpregenperlevel
p1084
F0.55
sVattackspeedperlevel
p1085
F2.11
sVattackrange
p1086
F450.0
sVmovespeed
p1087
F335.0
sVattackdamageperlevel
p1088
F3.25
sVmpregenperlevel
p1089
F0.8
sVcritperlevel
p1090
F0.0
sVspellblockperlevel
p1091
F0.0
sVcrit
p1092
F0.0
sVmpregen
p1093
F6.0
sVspellblock
p1094
F30.0
sVhpregen
p1095
F6.42
sVhpperlevel
p1096
F75.0
ssg25
(dp1097
Vstats
p1098
g1076
sVname
p1099
VKarthus
p1100
sVtitle
p1101
Vthe Deathsinger
p1102
sVtags
p1103
(lp1104
VMage
p1105
asVkey
p1106
VKarthus
p1107
sVid
p1108
I30
ssg38
S'Karthus'
p1109
sg40
g1104
sbsI31
(i__main__
Champion
p1110
(dp1111
g3
(dp1112
Varmorperlevel
p1113
F3.5
sVattackdamage
p1114
F61.156
sVmpperlevel
p1115
F40.0
sVattackspeedoffset
p1116
F0.0
sVmp
p1117
F272.2
sVarmor
p1118
F28.88
sVhp
p1119
F574.4
sVhpregenperlevel
p1120
F0.85
sVattackspeedperlevel
p1121
F1.44
sVattackrange
p1122
F125.0
sVmovespeed
p1123
F345.0
sVattackdamageperlevel
p1124
F4.2
sVmpregenperlevel
p1125
F0.45
sVcritperlevel
p1126
F0.0
sVspellblockperlevel
p1127
F1.25
sVcrit
p1128
F0.0
sVmpregen
p1129
F7.205
sVspellblock
p1130
F32.1
sVhpregen
p1131
F8.925
sVhpperlevel
p1132
F80.0
ssg25
(dp1133
Vstats
p1134
g1112
sVname
p1135
VCho'Gath
p1136
sVtitle
p1137
Vthe Terror of the Void
p1138
sVtags
p1139
(lp1140
VTank
p1141
aVMage
p1142
asVkey
p1143
VChogath
p1144
sVid
p1145
I31
ssg38
S"Cho'Gath"
p1146
sg40
g1140
sbsI32
(i__main__
Champion
p1147
(dp1148
g3
(dp1149
Varmorperlevel
p1150
F3.8
sVattackdamage
p1151
F53.384
sVmpperlevel
p1152
F40.0
sVattackspeedoffset
p1153
F-0.02
sVmp
p1154
F287.2
sVarmor
p1155
F23.544
sVhp
p1156
F613.12
sVhpregenperlevel
p1157
F0.85
sVattackspeedperlevel
p1158
F2.18
sVattackrange
p1159
F125.0
sVmovespeed
p1160
F335.0
sVattackdamageperlevel
p1161
F3.8
sVmpregenperlevel
p1162
F0.525
sVcritperlevel
p1163
F0.0
sVspellblockperlevel
p1164
F1.25
sVcrit
p1165
F0.0
sVmpregen
p1166
F7.38
sVspellblock
p1167
F32.1
sVhpregen
p1168
F8.875
sVhpperlevel
p1169
F84.0
ssg25
(dp1170
Vstats
p1171
g1149
sVname
p1172
VAmumu
p1173
sVtitle
p1174
Vthe Sad Mummy
p1175
sVtags
p1176
(lp1177
VTank
p1178
aVMage
p1179
asVkey
p1180
VAmumu
p1181
sVid
p1182
I32
ssg38
S'Amumu'
p1183
sg40
g1177
sbsI33
(i__main__
Champion
p1184
(dp1185
g3
(dp1186
Varmorperlevel
p1187
F4.3
sVattackdamage
p1188
F55.88
sVmpperlevel
p1189
F33.0
sVattackspeedoffset
p1190
F0.0
sVmp
p1191
F310.44
sVarmor
p1192
F31.384
sVhp
p1193
F564.48
sVhpregenperlevel
p1194
F0.55
sVattackspeedperlevel
p1195
F2.215
sVattackrange
p1196
F125.0
sVmovespeed
p1197
F335.0
sVattackdamageperlevel
p1198
F3.5
sVmpregenperlevel
p1199
F0.5
sVcritperlevel
p1200
F0.0
sVspellblockperlevel
p1201
F1.25
sVcrit
p1202
F0.0
sVmpregen
p1203
F7.84
sVspellblock
p1204
F32.1
sVhpregen
p1205
F7.92
sVhpperlevel
p1206
F86.0
ssg25
(dp1207
Vstats
p1208
g1186
sVname
p1209
VRammus
p1210
sVtitle
p1211
Vthe Armordillo
p1212
sVtags
p1213
(lp1214
VTank
p1215
aVFighter
p1216
asVkey
p1217
VRammus
p1218
sVid
p1219
I33
ssg38
S'Rammus'
p1220
sg40
g1214
sbsI34
(i__main__
Champion
p1221
(dp1222
g3
(dp1223
Varmorperlevel
p1224
F4.0
sVattackdamage
p1225
F51.376
sVmpperlevel
p1226
F50.0
sVattackspeedoffset
p1227
F0.0
sVmp
p1228
F396.04
sVarmor
p1229
F21.22
sVhp
p1230
F467.6
sVhpregenperlevel
p1231
F0.55
sVattackspeedperlevel
p1232
F1.68
sVattackrange
p1233
F600.0
sVmovespeed
p1234
F325.0
sVattackdamageperlevel
p1235
F3.2
sVmpregenperlevel
p1236
F0.8
sVcritperlevel
p1237
F0.0
sVspellblockperlevel
p1238
F0.0
sVcrit
p1239
F0.0
sVmpregen
p1240
F6.0
sVspellblock
p1241
F30.0
sVhpregen
p1242
F5.57
sVhpperlevel
p1243
F70.0
ssg25
(dp1244
Vstats
p1245
g1223
sVname
p1246
VAnivia
p1247
sVtitle
p1248
Vthe Cryophoenix
p1249
sVtags
p1250
(lp1251
VMage
p1252
aVSupport
p1253
asVkey
p1254
VAnivia
p1255
sVid
p1256
I34
ssg38
S'Anivia'
p1257
sg40
g1251
sbsI35
(i__main__
Champion
p1258
(dp1259
g3
(dp1260
Varmorperlevel
p1261
F3.5
sVattackdamage
p1262
F57.58
sVmpperlevel
p1263
F40.0
sVattackspeedoffset
p1264
F-0.1
sVmp
p1265
F297.2
sVarmor
p1266
F24.88
sVhp
p1267
F582.12
sVhpregenperlevel
p1268
F0.55
sVattackspeedperlevel
p1269
F3.0
sVattackrange
p1270
F125.0
sVmovespeed
p1271
F350.0
sVattackdamageperlevel
p1272
F3.5
sVmpregenperlevel
p1273
F0.45
sVcritperlevel
p1274
F0.0
sVspellblockperlevel
p1275
F1.25
sVcrit
p1276
F0.0
sVmpregen
p1277
F7.155
sVspellblock
p1278
F32.1
sVhpregen
p1279
F8.37
sVhpperlevel
p1280
F84.0
ssg25
(dp1281
Vstats
p1282
g1260
sVname
p1283
VShaco
p1284
sVtitle
p1285
Vthe Demon Jester
p1286
sVtags
p1287
(lp1288
VAssassin
p1289
asVkey
p1290
VShaco
p1291
sVid
p1292
I35
ssg38
S'Shaco'
p1293
sg40
g1288
sbsI36
(i__main__
Champion
p1294
(dp1295
g3
(dp1296
Varmorperlevel
p1297
F3.5
sVattackdamage
p1298
F61.27
sVmpperlevel
p1299
F0.0
sVattackspeedoffset
p1300
F0.0
sVmp
p1301
F0.0
sVarmor
p1302
F26.88
sVhp
p1303
F582.52
sVhpregenperlevel
p1304
F0.75
sVattackspeedperlevel
p1305
F2.8
sVattackrange
p1306
F125.0
sVmovespeed
p1307
F345.0
sVattackdamageperlevel
p1308
F3.0
sVmpregenperlevel
p1309
F0.0
sVcritperlevel
p1310
F0.0
sVspellblockperlevel
p1311
F1.25
sVcrit
p1312
F0.0
sVmpregen
p1313
F0.0
sVspellblock
p1314
F32.1
sVhpregen
p1315
F7.76
sVhpperlevel
p1316
F89.0
ssg25
(dp1317
Vstats
p1318
g1296
sVname
p1319
VDr. Mundo
p1320
sVtitle
p1321
Vthe Madman of Zaun
p1322
sVtags
p1323
(lp1324
VFighter
p1325
aVTank
p1326
asVkey
p1327
VDrMundo
p1328
sVid
p1329
I36
ssg38
S'Dr. Mundo'
p1330
sg40
g1324
sbsI37
(i__main__
Champion
p1331
(dp1332
g3
(dp1333
Varmorperlevel
p1334
F3.3
sVattackdamage
p1335
F50.04
sVmpperlevel
p1336
F45.0
sVattackspeedoffset
p1337
F-0.03
sVmp
p1338
F340.6
sVarmor
p1339
F20.544
sVhp
p1340
F482.36
sVhpregenperlevel
p1341
F0.55
sVattackspeedperlevel
p1342
F2.3
sVattackrange
p1343
F550.0
sVmovespeed
p1344
F325.0
sVattackdamageperlevel
p1345
F3.0
sVmpregenperlevel
p1346
F0.4
sVcritperlevel
p1347
F0.0
sVspellblockperlevel
p1348
F0.0
sVcrit
p1349
F0.0
sVmpregen
p1350
F11.5
sVspellblock
p1351
F30.0
sVhpregen
p1352
F5.42
sVhpperlevel
p1353
F77.0
ssg25
(dp1354
Vstats
p1355
g1333
sVname
p1356
VSona
p1357
sVtitle
p1358
VMaven of the Strings
p1359
sVtags
p1360
(lp1361
VSupport
p1362
aVMage
p1363
asVkey
p1364
VSona
p1365
sVid
p1366
I37
ssg38
S'Sona'
p1367
sg40
g1361
sbsI38
(i__main__
Champion
p1368
(dp1369
g3
(dp1370
Varmorperlevel
p1371
F3.2
sVattackdamage
p1372
F58.852
sVmpperlevel
p1373
F67.0
sVattackspeedoffset
p1374
F-0.023
sVmp
p1375
F397.6
sVarmor
p1376
F23.376
sVhp
p1377
F564.04
sVhpregenperlevel
p1378
F0.5
sVattackspeedperlevel
p1379
F3.7
sVattackrange
p1380
F150.0
sVmovespeed
p1381
F340.0
sVattackdamageperlevel
p1382
F3.9
sVmpregenperlevel
p1383
F0.8
sVcritperlevel
p1384
F0.0
sVspellblockperlevel
p1385
F0.0
sVcrit
p1386
F0.0
sVmpregen
p1387
F6.0
sVspellblock
p1388
F30.0
sVhpregen
p1389
F7.79
sVhpperlevel
p1390
F78.0
ssg25
(dp1391
Vstats
p1392
g1370
sVname
p1393
VKassadin
p1394
sVtitle
p1395
Vthe Void Walker
p1396
sVtags
p1397
(lp1398
VAssassin
p1399
aVMage
p1400
asVkey
p1401
VKassadin
p1402
sVid
p1403
I38
ssg38
S'Kassadin'
p1404
sg40
g1398
sbsI39
(i__main__
Champion
p1405
(dp1406
g3
(dp1407
Varmorperlevel
p1408
F3.75
sVattackdamage
p1409
F61.544
sVmpperlevel
p1410
F32.0
sVattackspeedoffset
p1411
F-0.06
sVmp
p1412
F338.8
sVarmor
p1413
F25.3
sVhp
p1414
F607.2
sVhpregenperlevel
p1415
F0.65
sVattackspeedperlevel
p1416
F3.2
sVattackrange
p1417
F125.0
sVmovespeed
p1418
F345.0
sVattackdamageperlevel
p1419
F3.3
sVmpregenperlevel
p1420
F0.65
sVcritperlevel
p1421
F0.0
sVspellblockperlevel
p1422
F1.25
sVcrit
p1423
F0.0
sVmpregen
p1424
F8.09
sVspellblock
p1425
F32.1
sVhpregen
p1426
F8.59
sVhpperlevel
p1427
F90.0
ssg25
(dp1428
Vstats
p1429
g1407
sVname
p1430
VIrelia
p1431
sVtitle
p1432
Vthe Will of the Blades
p1433
sVtags
p1434
(lp1435
VFighter
p1436
aVAssassin
p1437
asVkey
p1438
VIrelia
p1439
sVid
p1440
I39
ssg38
S'Irelia'
p1441
sg40
g1435
sbsI40
(i__main__
Champion
p1442
(dp1443
g3
(dp1444
Varmorperlevel
p1445
F3.8
sVattackdamage
p1446
F51.956
sVmpperlevel
p1447
F64.0
sVattackspeedoffset
p1448
F0.0
sVmp
p1449
F409.52
sVarmor
p1450
F19.384
sVhp
p1451
F487.04
sVhpregenperlevel
p1452
F0.55
sVattackspeedperlevel
p1453
F2.61
sVattackrange
p1454
F475.0
sVmovespeed
p1455
F335.0
sVattackdamageperlevel
p1456
F2.95
sVmpregenperlevel
p1457
F0.4
sVcritperlevel
p1458
F0.0
sVspellblockperlevel
p1459
F0.0
sVcrit
p1460
F0.0
sVmpregen
p1461
F11.5
sVspellblock
p1462
F30.0
sVhpregen
p1463
F5.42
sVhpperlevel
p1464
F78.0
ssg25
(dp1465
Vstats
p1466
g1444
sVname
p1467
VJanna
p1468
sVtitle
p1469
Vthe Storm's Fury
p1470
sVtags
p1471
(lp1472
VSupport
p1473
aVMage
p1474
asVkey
p1475
VJanna
p1476
sVid
p1477
I40
ssg38
S'Janna'
p1478
sg40
g1472
sbsI41
(i__main__
Champion
p1479
(dp1480
g3
(dp1481
Varmorperlevel
p1482
F3.0
sVattackdamage
p1483
F56.0
sVmpperlevel
p1484
F40.0
sVattackspeedoffset
p1485
F0.0
sVmp
p1486
F282.0
sVarmor
p1487
F26.0
sVhp
p1488
F580.0
sVhpregenperlevel
p1489
F0.6
sVattackspeedperlevel
p1490
F3.2
sVattackrange
p1491
F125.0
sVmovespeed
p1492
F345.0
sVattackdamageperlevel
p1493
F3.0
sVmpregenperlevel
p1494
F0.7
sVcritperlevel
p1495
F0.0
sVspellblockperlevel
p1496
F1.25
sVcrit
p1497
F0.0
sVmpregen
p1498
F7.5
sVspellblock
p1499
F32.1
sVhpregen
p1500
F6.0
sVhpperlevel
p1501
F82.0
ssg25
(dp1502
Vstats
p1503
g1481
sVname
p1504
VGangplank
p1505
sVtitle
p1506
Vthe Saltwater Scourge
p1507
sVtags
p1508
(lp1509
VFighter
p1510
asVkey
p1511
VGangplank
p1512
sVid
p1513
I41
ssg38
S'Gangplank'
p1514
sg40
g1509
sbsI42
(i__main__
Champion
p1515
(dp1516
g3
(dp1517
Varmorperlevel
p1518
F3.5
sVattackdamage
p1519
F56.0
sVmpperlevel
p1520
F34.0
sVattackspeedoffset
p1521
F0.0
sVmp
p1522
F350.16
sVarmor
p1523
F23.38
sVhp
p1524
F512.76
sVhpregenperlevel
p1525
F0.55
sVattackspeedperlevel
p1526
F2.3
sVattackrange
p1527
F550.0
sVmovespeed
p1528
F325.0
sVattackdamageperlevel
p1529
F2.5
sVmpregenperlevel
p1530
F0.55
sVcritperlevel
p1531
F0.0
sVspellblockperlevel
p1532
F0.0
sVcrit
p1533
F0.0
sVmpregen
p1534
F7.42
sVspellblock
p1535
F30.0
sVhpregen
p1536
F5.42
sVhpperlevel
p1537
F82.0
ssg25
(dp1538
Vstats
p1539
g1517
sVname
p1540
VCorki
p1541
sVtitle
p1542
Vthe Daring Bombardier
p1543
sVtags
p1544
(lp1545
VMarksman
p1546
asVkey
p1547
VCorki
p1548
sVid
p1549
I42
ssg38
S'Corki'
p1550
sg40
g1545
sbsI43
(i__main__
Champion
p1551
(dp1552
g3
(dp1553
Varmorperlevel
p1554
F3.8
sVattackdamage
p1555
F53.544
sVmpperlevel
p1556
F50.0
sVattackspeedoffset
p1557
F0.0
sVmp
p1558
F374.0
sVarmor
p1559
F20.384
sVhp
p1560
F522.44
sVhpregenperlevel
p1561
F0.55
sVattackspeedperlevel
p1562
F2.3
sVattackrange
p1563
F525.0
sVmovespeed
p1564
F335.0
sVattackdamageperlevel
p1565
F3.3
sVmpregenperlevel
p1566
F0.8
sVcritperlevel
p1567
F0.0
sVspellblockperlevel
p1568
F0.0
sVcrit
p1569
F0.0
sVmpregen
p1570
F8.5
sVspellblock
p1571
F30.0
sVhpregen
p1572
F5.62
sVhpperlevel
p1573
F83.0
ssg25
(dp1574
Vstats
p1575
g1553
sVname
p1576
VKarma
p1577
sVtitle
p1578
Vthe Enlightened One
p1579
sVtags
p1580
(lp1581
VMage
p1582
aVSupport
p1583
asVkey
p1584
VKarma
p1585
sVid
p1586
I43
ssg38
S'Karma'
p1587
sg40
g1581
sbsI44
(i__main__
Champion
p1588
(dp1589
g3
(dp1590
Varmorperlevel
p1591
F3.7
sVattackdamage
p1592
F57.88
sVmpperlevel
p1593
F56.0
sVattackspeedoffset
p1594
F0.0
sVmp
p1595
F349.08
sVarmor
p1596
F25.876
sVhp
p1597
F619.2
sVhpregenperlevel
p1598
F0.5
sVattackspeedperlevel
p1599
F2.02
sVattackrange
p1600
F125.0
sVmovespeed
p1601
F340.0
sVattackdamageperlevel
p1602
F3.5
sVmpregenperlevel
p1603
F0.8
sVcritperlevel
p1604
F0.0
sVspellblockperlevel
p1605
F1.25
sVcrit
p1606
F0.0
sVmpregen
p1607
F8.5
sVspellblock
p1608
F32.1
sVhpregen
p1609
F7.94
sVhpperlevel
p1610
F90.0
ssg25
(dp1611
Vstats
p1612
g1590
sVname
p1613
VTaric
p1614
sVtitle
p1615
Vthe Gem Knight
p1616
sVtags
p1617
(lp1618
VSupport
p1619
aVFighter
p1620
asVkey
p1621
VTaric
p1622
sVid
p1623
I44
ssg38
S'Taric'
p1624
sg40
g1618
sbsI45
(i__main__
Champion
p1625
(dp1626
g3
(dp1627
Varmorperlevel
p1628
F3.75
sVattackdamage
p1629
F50.71
sVmpperlevel
p1630
F52.0
sVattackspeedoffset
p1631
F0.0
sVmp
p1632
F392.4
sVarmor
p1633
F22.55
sVhp
p1634
F492.76
sVhpregenperlevel
p1635
F0.55
sVattackspeedperlevel
p1636
F2.24
sVattackrange
p1637
F525.0
sVmovespeed
p1638
F340.0
sVattackdamageperlevel
p1639
F2.625
sVmpregenperlevel
p1640
F0.8
sVcritperlevel
p1641
F0.0
sVspellblockperlevel
p1642
F0.0
sVcrit
p1643
F0.0
sVmpregen
p1644
F6.0
sVspellblock
p1645
F30.0
sVhpregen
p1646
F5.42
sVhpperlevel
p1647
F82.0
ssg25
(dp1648
Vstats
p1649
g1627
sVname
p1650
VVeigar
p1651
sVtitle
p1652
Vthe Tiny Master of Evil
p1653
sVtags
p1654
(lp1655
VMage
p1656
asVkey
p1657
VVeigar
p1658
sVid
p1659
I45
ssg38
S'Veigar'
p1660
sg40
g1655
sbsI48
(i__main__
Champion
p1661
(dp1662
g3
(dp1663
Varmorperlevel
p1664
F2.7
sVattackdamage
p1665
F60.04
sVmpperlevel
p1666
F45.0
sVattackspeedoffset
p1667
F-0.0672
sVmp
p1668
F281.6
sVarmor
p1669
F27.536
sVhp
p1670
F616.28
sVhpregenperlevel
p1671
F0.85
sVattackspeedperlevel
p1672
F2.9
sVattackrange
p1673
F175.0
sVmovespeed
p1674
F350.0
sVattackdamageperlevel
p1675
F3.0
sVmpregenperlevel
p1676
F0.6
sVcritperlevel
p1677
F0.0
sVspellblockperlevel
p1678
F1.25
sVcrit
p1679
F0.0
sVmpregen
p1680
F7.505
sVspellblock
p1681
F32.1
sVhpregen
p1682
F9.425
sVhpperlevel
p1683
F96.0
ssg25
(dp1684
Vstats
p1685
g1663
sVname
p1686
VTrundle
p1687
sVtitle
p1688
Vthe Troll King
p1689
sVtags
p1690
(lp1691
VFighter
p1692
aVTank
p1693
asVkey
p1694
VTrundle
p1695
sVid
p1696
I48
ssg38
S'Trundle'
p1697
sg40
g1691
sbsI50
(i__main__
Champion
p1698
(dp1699
g3
(dp1700
Varmorperlevel
p1701
F4.0
sVattackdamage
p1702
F52.04
sVmpperlevel
p1703
F47.0
sVattackspeedoffset
p1704
F0.0
sVmp
p1705
F374.0
sVarmor
p1706
F22.72
sVhp
p1707
F516.04
sVhpregenperlevel
p1708
F0.65
sVattackspeedperlevel
p1709
F2.11
sVattackrange
p1710
F500.0
sVmovespeed
p1711
F335.0
sVattackdamageperlevel
p1712
F3.0
sVmpregenperlevel
p1713
F0.8
sVcritperlevel
p1714
F0.0
sVspellblockperlevel
p1715
F0.0
sVcrit
p1716
F0.0
sVmpregen
p1717
F6.0
sVspellblock
p1718
F30.0
sVhpregen
p1719
F7.84
sVhpperlevel
p1720
F78.0
ssg25
(dp1721
Vstats
p1722
g1700
sVname
p1723
VSwain
p1724
sVtitle
p1725
Vthe Master Tactician
p1726
sVtags
p1727
(lp1728
VMage
p1729
aVFighter
p1730
asVkey
p1731
VSwain
p1732
sVid
p1733
I50
ssg38
S'Swain'
p1734
sg40
g1728
sbsI51
(i__main__
Champion
p1735
(dp1736
g3
(dp1737
Varmorperlevel
p1738
F3.5
sVattackdamage
p1739
F53.66
sVmpperlevel
p1740
F35.0
sVattackspeedoffset
p1741
F0.1
sVmp
p1742
F313.8
sVarmor
p1743
F22.88
sVhp
p1744
F524.4
sVhpregenperlevel
p1745
F0.55
sVattackspeedperlevel
p1746
F4.0
sVattackrange
p1747
F650.0
sVmovespeed
p1748
F325.0
sVattackdamageperlevel
p1749
F2.18
sVmpregenperlevel
p1750
F0.55
sVcritperlevel
p1751
F0.0
sVspellblockperlevel
p1752
F0.0
sVcrit
p1753
F0.0
sVmpregen
p1754
F7.42
sVspellblock
p1755
F30.0
sVhpregen
p1756
F5.67
sVhpperlevel
p1757
F80.0
ssg25
(dp1758
Vstats
p1759
g1737
sVname
p1760
VCaitlyn
p1761
sVtitle
p1762
Vthe Sheriff of Piltover
p1763
sVtags
p1764
(lp1765
VMarksman
p1766
asVkey
p1767
VCaitlyn
p1768
sVid
p1769
I51
ssg38
S'Caitlyn'
p1770
sg40
g1765
sbsI53
(i__main__
Champion
p1771
(dp1772
g3
(dp1773
Varmorperlevel
p1774
F4.0
sVattackdamage
p1775
F61.54
sVmpperlevel
p1776
F40.0
sVattackspeedoffset
p1777
F0.0
sVmp
p1778
F267.2
sVarmor
p1779
F24.38
sVhp
p1780
F582.6
sVhpregenperlevel
p1781
F0.75
sVattackspeedperlevel
p1782
F1.13
sVattackrange
p1783
F125.0
sVmovespeed
p1784
F325.0
sVattackdamageperlevel
p1785
F3.5
sVmpregenperlevel
p1786
F0.8
sVcritperlevel
p1787
F0.0
sVspellblockperlevel
p1788
F1.25
sVcrit
p1789
F0.0
sVmpregen
p1790
F8.5
sVspellblock
p1791
F32.1
sVhpregen
p1792
F8.51
sVhpperlevel
p1793
F95.0
ssg25
(dp1794
Vstats
p1795
g1773
sVname
p1796
VBlitzcrank
p1797
sVtitle
p1798
Vthe Great Steam Golem
p1799
sVtags
p1800
(lp1801
VTank
p1802
aVFighter
p1803
asVkey
p1804
VBlitzcrank
p1805
sVid
p1806
I53
ssg38
S'Blitzcrank'
p1807
sg40
g1801
sbsI54
(i__main__
Champion
p1808
(dp1809
g3
(dp1810
Varmorperlevel
p1811
F3.75
sVattackdamage
p1812
F61.97
sVmpperlevel
p1813
F40.0
sVattackspeedoffset
p1814
F-0.02
sVmp
p1815
F282.2
sVarmor
p1816
F28.3
sVhp
p1817
F574.2
sVhpregenperlevel
p1818
F0.55
sVattackspeedperlevel
p1819
F3.4
sVattackrange
p1820
F125.0
sVmovespeed
p1821
F335.0
sVattackdamageperlevel
p1822
F3.375
sVmpregenperlevel
p1823
F0.55
sVcritperlevel
p1824
F0.0
sVspellblockperlevel
p1825
F1.25
sVcrit
p1826
F0.0
sVmpregen
p1827
F7.32
sVspellblock
p1828
F32.1
sVhpregen
p1829
F8.37
sVhpperlevel
p1830
F90.0
ssg25
(dp1831
Vstats
p1832
g1810
sVname
p1833
VMalphite
p1834
sVtitle
p1835
VShard of the Monolith
p1836
sVtags
p1837
(lp1838
VTank
p1839
aVFighter
p1840
asVkey
p1841
VMalphite
p1842
sVid
p1843
I54
ssg38
S'Malphite'
p1844
sg40
g1838
sbsI55
(i__main__
Champion
p1845
(dp1846
g3
(dp1847
Varmorperlevel
p1848
F3.5
sVattackdamage
p1849
F58.0
sVmpperlevel
p1850
F0.0
sVattackspeedoffset
p1851
F-0.05
sVmp
p1852
F0.0
sVarmor
p1853
F26.88
sVhp
p1854
F510.0
sVhpregenperlevel
p1855
F0.55
sVattackspeedperlevel
p1856
F2.74
sVattackrange
p1857
F125.0
sVmovespeed
p1858
F345.0
sVattackdamageperlevel
p1859
F3.2
sVmpregenperlevel
p1860
F0.0
sVcritperlevel
p1861
F0.0
sVspellblockperlevel
p1862
F1.25
sVcrit
p1863
F0.0
sVmpregen
p1864
F0.0
sVspellblock
p1865
F32.1
sVhpregen
p1866
F4.5
sVhpperlevel
p1867
F83.0
ssg25
(dp1868
Vstats
p1869
g1847
sVname
p1870
VKatarina
p1871
sVtitle
p1872
Vthe Sinister Blade
p1873
sVtags
p1874
(lp1875
VAssassin
p1876
aVMage
p1877
asVkey
p1878
VKatarina
p1879
sVid
p1880
I55
ssg38
S'Katarina'
p1881
sg40
g1875
sbsI56
(i__main__
Champion
p1882
(dp1883
g3
(dp1884
Varmorperlevel
p1885
F3.5
sVattackdamage
p1886
F59.208
sVmpperlevel
p1887
F35.0
sVattackspeedoffset
p1888
F-0.065
sVmp
p1889
F273.8
sVarmor
p1890
F26.88
sVhp
p1891
F582.8
sVhpregenperlevel
p1892
F0.75
sVattackspeedperlevel
p1893
F2.7
sVattackrange
p1894
F125.0
sVmovespeed
p1895
F345.0
sVattackdamageperlevel
p1896
F3.1
sVmpregenperlevel
p1897
F0.45
sVcritperlevel
p1898
F0.0
sVspellblockperlevel
p1899
F1.25
sVcrit
p1900
F0.0
sVmpregen
p1901
F6.755
sVspellblock
p1902
F32.1
sVhpregen
p1903
F8.26
sVhpperlevel
p1904
F85.0
ssg25
(dp1905
Vstats
p1906
g1884
sVname
p1907
VNocturne
p1908
sVtitle
p1909
Vthe Eternal Nightmare
p1910
sVtags
p1911
(lp1912
VAssassin
p1913
aVFighter
p1914
asVkey
p1915
VNocturne
p1916
sVid
p1917
I56
ssg38
S'Nocturne'
p1918
sg40
g1912
sbsI57
(i__main__
Champion
p1919
(dp1920
g3
(dp1921
Varmorperlevel
p1922
F4.0
sVattackdamage
p1923
F63.544
sVmpperlevel
p1924
F43.0
sVattackspeedoffset
p1925
F-0.1
sVmp
p1926
F377.28
sVarmor
p1927
F28.72
sVhp
p1928
F572.2
sVhpregenperlevel
p1929
F0.85
sVattackspeedperlevel
p1930
F2.125
sVattackrange
p1931
F125.0
sVmovespeed
p1932
F335.0
sVattackdamageperlevel
p1933
F3.3
sVmpregenperlevel
p1934
F0.45
sVcritperlevel
p1935
F0.0
sVspellblockperlevel
p1936
F0.0
sVcrit
p1937
F0.0
sVmpregen
p1938
F7.205
sVspellblock
p1939
F30.0
sVhpregen
p1940
F8.675
sVhpperlevel
p1941
F90.0
ssg25
(dp1942
Vstats
p1943
g1921
sVname
p1944
VMaokai
p1945
sVtitle
p1946
Vthe Twisted Treant
p1947
sVtags
p1948
(lp1949
VTank
p1950
aVMage
p1951
asVkey
p1952
VMaokai
p1953
sVid
p1954
I57
ssg38
S'Maokai'
p1955
sg40
g1949
sbsI58
(i__main__
Champion
p1956
(dp1957
g3
(dp1958
Varmorperlevel
p1959
F3.8
sVattackdamage
p1960
F58.328
sVmpperlevel
p1961
F0.0
sVattackspeedoffset
p1962
F-0.06
sVmp
p1963
F100.0
sVarmor
p1964
F25.584
sVhp
p1965
F572.16
sVhpregenperlevel
p1966
F0.75
sVattackspeedperlevel
p1967
F2.65
sVattackrange
p1968
F125.0
sVmovespeed
p1969
F345.0
sVattackdamageperlevel
p1970
F3.1
sVmpregenperlevel
p1971
F0.0
sVcritperlevel
p1972
F0.0
sVspellblockperlevel
p1973
F1.25
sVcrit
p1974
F0.0
sVmpregen
p1975
F0.0
sVspellblock
p1976
F32.1
sVhpregen
p1977
F7.96
sVhpperlevel
p1978
F87.0
ssg25
(dp1979
Vstats
p1980
g1958
sVname
p1981
VRenekton
p1982
sVtitle
p1983
Vthe Butcher of the Sands
p1984
sVtags
p1985
(lp1986
VFighter
p1987
aVTank
p1988
asVkey
p1989
VRenekton
p1990
sVid
p1991
I58
ssg38
S'Renekton'
p1992
sg40
g1986
sbsI59
(i__main__
Champion
p1993
(dp1994
g3
(dp1995
Varmorperlevel
p1996
F3.6
sVattackdamage
p1997
F55.712
sVmpperlevel
p1998
F40.0
sVattackspeedoffset
p1999
F-0.05
sVmp
p2000
F302.2
sVarmor
p2001
F29.0
sVhp
p2002
F571.2
sVhpregenperlevel
p2003
F0.7
sVattackspeedperlevel
p2004
F2.5
sVattackrange
p2005
F175.0
sVmovespeed
p2006
F340.0
sVattackdamageperlevel
p2007
F3.4
sVmpregenperlevel
p2008
F0.45
sVcritperlevel
p2009
F0.0
sVspellblockperlevel
p2010
F1.25
sVcrit
p2011
F0.0
sVmpregen
p2012
F6.755
sVspellblock
p2013
F32.1
sVhpregen
p2014
F8.175
sVhpperlevel
p2015
F90.0
ssg25
(dp2016
Vstats
p2017
g1995
sVname
p2018
VJarvan IV
p2019
sVtitle
p2020
Vthe Exemplar of Demacia
p2021
sVtags
p2022
(lp2023
VTank
p2024
aVFighter
p2025
asVkey
p2026
VJarvanIV
p2027
sVid
p2028
I59
ssg38
S'Jarvan IV'
p2029
sg40
g2023
sbsI60
(i__main__
Champion
p2030
(dp2031
g3
(dp2032
Varmorperlevel
p2033
F3.35
sVattackdamage
p2034
F50.54
sVmpperlevel
p2035
F50.0
sVattackspeedoffset
p2036
F0.0
sVmp
p2037
F324.0
sVarmor
p2038
F22.128
sVhp
p2039
F529.4
sVhpregenperlevel
p2040
F0.6
sVattackspeedperlevel
p2041
F1.75
sVattackrange
p2042
F550.0
sVmovespeed
p2043
F330.0
sVattackdamageperlevel
p2044
F3.0
sVmpregenperlevel
p2045
F0.8
sVcritperlevel
p2046
F0.0
sVspellblockperlevel
p2047
F0.0
sVcrit
p2048
F0.0
sVmpregen
p2049
F6.0
sVspellblock
p2050
F30.0
sVhpregen
p2051
F5.705
sVhpperlevel
p2052
F80.0
ssg25
(dp2053
Vstats
p2054
g2032
sVname
p2055
VElise
p2056
sVtitle
p2057
Vthe Spider Queen
p2058
sVtags
p2059
(lp2060
VMage
p2061
aVFighter
p2062
asVkey
p2063
VElise
p2064
sVid
p2065
I60
ssg38
S'Elise'
p2066
sg40
g2060
sbsI61
(i__main__
Champion
p2067
(dp2068
g3
(dp2069
Varmorperlevel
p2070
F3.0
sVattackdamage
p2071
F40.368
sVmpperlevel
p2072
F50.0
sVattackspeedoffset
p2073
F-0.05
sVmp
p2074
F334.0
sVarmor
p2075
F17.04
sVhp
p2076
F517.72
sVhpregenperlevel
p2077
F0.55
sVattackspeedperlevel
p2078
F3.5
sVattackrange
p2079
F525.0
sVmovespeed
p2080
F325.0
sVattackdamageperlevel
p2081
F2.6
sVmpregenperlevel
p2082
F0.8
sVcritperlevel
p2083
F0.0
sVspellblockperlevel
p2084
F0.0
sVcrit
p2085
F0.0
sVmpregen
p2086
F6.0
sVspellblock
p2087
F30.0
sVhpregen
p2088
F6.87
sVhpperlevel
p2089
F79.0
ssg25
(dp2090
Vstats
p2091
g2069
sVname
p2092
VOrianna
p2093
sVtitle
p2094
Vthe Lady of Clockwork
p2095
sVtags
p2096
(lp2097
VMage
p2098
aVSupport
p2099
asVkey
p2100
VOrianna
p2101
sVid
p2102
I61
ssg38
S'Orianna'
p2103
sg40
g2097
sbsI62
(i__main__
Champion
p2104
(dp2105
g3
(dp2106
Varmorperlevel
p2107
F3.5
sVattackdamage
p2108
F59.876
sVmpperlevel
p2109
F38.0
sVattackspeedoffset
p2110
F-0.05
sVmp
p2111
F265.84
sVarmor
p2112
F24.88
sVhp
p2113
F577.8
sVhpregenperlevel
p2114
F0.65
sVattackspeedperlevel
p2115
F3.0
sVattackrange
p2116
F175.0
sVmovespeed
p2117
F345.0
sVattackdamageperlevel
p2118
F3.2
sVmpregenperlevel
p2119
F0.65
sVcritperlevel
p2120
F0.0
sVspellblockperlevel
p2121
F1.25
sVcrit
p2122
F0.0
sVmpregen
p2123
F8.04
sVspellblock
p2124
F32.1
sVhpregen
p2125
F6.19
sVhpperlevel
p2126
F85.0
ssg25
(dp2127
Vstats
p2128
g2106
sVname
p2129
VWukong
p2130
sVtitle
p2131
Vthe Monkey King
p2132
sVtags
p2133
(lp2134
VFighter
p2135
aVTank
p2136
asVkey
p2137
VMonkeyKing
p2138
sVid
p2139
I62
ssg38
S'Wukong'
p2140
sg40
g2134
sbsI63
(i__main__
Champion
p2141
(dp2142
g3
(dp2143
Varmorperlevel
p2144
F3.5
sVattackdamage
p2145
F57.04
sVmpperlevel
p2146
F42.0
sVattackspeedoffset
p2147
F0.0
sVmp
p2148
F375.6
sVarmor
p2149
F21.88
sVhp
p2150
F507.68
sVhpregenperlevel
p2151
F0.55
sVattackspeedperlevel
p2152
F1.36
sVattackrange
p2153
F550.0
sVmovespeed
p2154
F340.0
sVattackdamageperlevel
p2155
F3.0
sVmpregenperlevel
p2156
F0.6
sVcritperlevel
p2157
F0.0
sVspellblockperlevel
p2158
F0.0
sVcrit
p2159
F0.0
sVmpregen
p2160
F8.005
sVspellblock
p2161
F30.0
sVhpregen
p2162
F5.42
sVhpperlevel
p2163
F76.0
ssg25
(dp2164
Vstats
p2165
g2143
sVname
p2166
VBrand
p2167
sVtitle
p2168
Vthe Burning Vengeance
p2169
sVtags
p2170
(lp2171
VMage
p2172
asVkey
p2173
VBrand
p2174
sVid
p2175
I63
ssg38
S'Brand'
p2176
sg40
g2171
sbsI64
(i__main__
Champion
p2177
(dp2178
g3
(dp2179
Varmorperlevel
p2180
F3.7
sVattackdamage
p2181
F61.176
sVmpperlevel
p2182
F0.0
sVattackspeedoffset
p2183
F-0.04
sVmp
p2184
F200.0
sVarmor
p2185
F24.216
sVhp
p2186
F570.8
sVhpregenperlevel
p2187
F0.7
sVattackspeedperlevel
p2188
F3.0
sVattackrange
p2189
F125.0
sVmovespeed
p2190
F350.0
sVattackdamageperlevel
p2191
F3.2
sVmpregenperlevel
p2192
F0.0
sVcritperlevel
p2193
F0.0
sVspellblockperlevel
p2194
F1.25
sVcrit
p2195
F0.0
sVmpregen
p2196
F50.0
sVspellblock
p2197
F32.1
sVhpregen
p2198
F7.425
sVhpperlevel
p2199
F85.0
ssg25
(dp2200
Vstats
p2201
g2179
sVname
p2202
VLee Sin
p2203
sVtitle
p2204
Vthe Blind Monk
p2205
sVtags
p2206
(lp2207
VFighter
p2208
aVAssassin
p2209
asVkey
p2210
VLeeSin
p2211
sVid
p2212
I64
ssg38
S'Lee Sin'
p2213
sg40
g2207
sbsI67
(i__main__
Champion
p2214
(dp2215
g3
(dp2216
Varmorperlevel
p2217
F3.4
sVattackdamage
p2218
F55.88
sVmpperlevel
p2219
F35.0
sVattackspeedoffset
p2220
F-0.05
sVmp
p2221
F231.8
sVarmor
p2222
F19.012
sVhp
p2223
F498.44
sVhpregenperlevel
p2224
F0.55
sVattackspeedperlevel
p2225
F4.0
sVattackrange
p2226
F550.0
sVmovespeed
p2227
F330.0
sVattackdamageperlevel
p2228
F1.66
sVmpregenperlevel
p2229
F0.4
sVcritperlevel
p2230
F0.0
sVspellblockperlevel
p2231
F0.0
sVcrit
p2232
F0.0
sVmpregen
p2233
F6.97
sVspellblock
p2234
F30.0
sVhpregen
p2235
F5.42
sVhpperlevel
p2236
F83.0
ssg25
(dp2237
Vstats
p2238
g2216
sVname
p2239
VVayne
p2240
sVtitle
p2241
Vthe Night Hunter
p2242
sVtags
p2243
(lp2244
VMarksman
p2245
aVAssassin
p2246
asVkey
p2247
VVayne
p2248
sVid
p2249
I67
ssg38
S'Vayne'
p2250
sg40
g2244
sbsI68
(i__main__
Champion
p2251
(dp2252
g3
(dp2253
Varmorperlevel
p2254
F3.5
sVattackdamage
p2255
F61.036
sVmpperlevel
p2256
F0.0
sVattackspeedoffset
p2257
F-0.03
sVmp
p2258
F100.0
sVarmor
p2259
F25.88
sVhp
p2260
F584.4
sVhpregenperlevel
p2261
F0.6
sVattackspeedperlevel
p2262
F1.85
sVattackrange
p2263
F125.0
sVmovespeed
p2264
F345.0
sVattackdamageperlevel
p2265
F3.2
sVmpregenperlevel
p2266
F0.0
sVcritperlevel
p2267
F0.0
sVspellblockperlevel
p2268
F1.25
sVcrit
p2269
F0.0
sVmpregen
p2270
F0.0
sVspellblock
p2271
F32.1
sVhpregen
p2272
F8.005
sVhpperlevel
p2273
F80.0
ssg25
(dp2274
Vstats
p2275
g2253
sVname
p2276
VRumble
p2277
sVtitle
p2278
Vthe Mechanized Menace
p2279
sVtags
p2280
(lp2281
VFighter
p2282
aVMage
p2283
asVkey
p2284
VRumble
p2285
sVid
p2286
I68
ssg38
S'Rumble'
p2287
sg40
g2281
sbsI69
(i__main__
Champion
p2288
(dp2289
g3
(dp2290
Varmorperlevel
p2291
F4.0
sVattackdamage
p2292
F52.376
sVmpperlevel
p2293
F60.0
sVattackspeedoffset
p2294
F-0.034
sVmp
p2295
F370.8
sVarmor
p2296
F22.22
sVhp
p2297
F506.0
sVhpregenperlevel
p2298
F0.5
sVattackspeedperlevel
p2299
F1.68
sVattackrange
p2300
F550.0
sVmovespeed
p2301
F335.0
sVattackdamageperlevel
p2302
F3.2
sVmpregenperlevel
p2303
F0.75
sVcritperlevel
p2304
F0.0
sVspellblockperlevel
p2305
F0.0
sVcrit
p2306
F0.0
sVmpregen
p2307
F8.36
sVspellblock
p2308
F30.0
sVhpregen
p2309
F5.69
sVhpperlevel
p2310
F75.0
ssg25
(dp2311
Vstats
p2312
g2290
sVname
p2313
VCassiopeia
p2314
sVtitle
p2315
Vthe Serpent's Embrace
p2316
sVtags
p2317
(lp2318
VMage
p2319
asVkey
p2320
VCassiopeia
p2321
sVid
p2322
I69
ssg38
S'Cassiopeia'
p2323
sg40
g2318
sbsI72
(i__main__
Champion
p2324
(dp2325
g3
(dp2326
Varmorperlevel
p2327
F3.8
sVattackdamage
p2328
F57.156
sVmpperlevel
p2329
F40.0
sVattackspeedoffset
p2330
F0.0
sVmp
p2331
F272.2
sVarmor
p2332
F29.384
sVhp
p2333
F601.28
sVhpregenperlevel
p2334
F0.85
sVattackspeedperlevel
p2335
F2.1
sVattackrange
p2336
F125.0
sVmovespeed
p2337
F335.0
sVattackdamageperlevel
p2338
F4.5
sVmpregenperlevel
p2339
F0.45
sVcritperlevel
p2340
F0.0
sVspellblockperlevel
p2341
F1.25
sVcrit
p2342
F0.0
sVmpregen
p2343
F7.205
sVspellblock
p2344
F32.1
sVhpregen
p2345
F8.925
sVhpperlevel
p2346
F90.0
ssg25
(dp2347
Vstats
p2348
g2326
sVname
p2349
VSkarner
p2350
sVtitle
p2351
Vthe Crystal Vanguard
p2352
sVtags
p2353
(lp2354
VFighter
p2355
aVTank
p2356
asVkey
p2357
VSkarner
p2358
sVid
p2359
I72
ssg38
S'Skarner'
p2360
sg40
g2354
sbsI74
(i__main__
Champion
p2361
(dp2362
g3
(dp2363
Varmorperlevel
p2364
F3.0
sVattackdamage
p2365
F55.536
sVmpperlevel
p2366
F40.0
sVattackspeedoffset
p2367
F0.0
sVmp
p2368
F307.2
sVarmor
p2369
F19.04
sVhp
p2370
F476.0
sVhpregenperlevel
p2371
F1.75
sVattackspeedperlevel
p2372
F1.36
sVattackrange
p2373
F550.0
sVmovespeed
p2374
F340.0
sVattackdamageperlevel
p2375
F2.7
sVmpregenperlevel
p2376
F0.8
sVcritperlevel
p2377
F0.0
sVspellblockperlevel
p2378
F0.0
sVcrit
p2379
F0.0
sVmpregen
p2380
F6.0
sVspellblock
p2381
F30.0
sVhpregen
p2382
F11.005
sVhpperlevel
p2383
F75.0
ssg25
(dp2384
Vstats
p2385
g2363
sVname
p2386
VHeimerdinger
p2387
sVtitle
p2388
Vthe Revered Inventor
p2389
sVtags
p2390
(lp2391
VMage
p2392
aVSupport
p2393
asVkey
p2394
VHeimerdinger
p2395
sVid
p2396
I74
ssg38
S'Heimerdinger'
p2397
sg40
g2391
sbsI75
(i__main__
Champion
p2398
(dp2399
g3
(dp2400
Varmorperlevel
p2401
F3.5
sVattackdamage
p2402
F59.18
sVmpperlevel
p2403
F42.0
sVattackspeedoffset
p2404
F-0.02
sVmp
p2405
F325.6
sVarmor
p2406
F24.88
sVhp
p2407
F561.2
sVhpregenperlevel
p2408
F0.9
sVattackspeedperlevel
p2409
F3.48
sVattackrange
p2410
F125.0
sVmovespeed
p2411
F350.0
sVattackdamageperlevel
p2412
F3.5
sVmpregenperlevel
p2413
F0.5
sVcritperlevel
p2414
F0.0
sVspellblockperlevel
p2415
F1.25
sVcrit
p2416
F0.0
sVmpregen
p2417
F7.44
sVspellblock
p2418
F32.1
sVhpregen
p2419
F9.01
sVhpperlevel
p2420
F90.0
ssg25
(dp2421
Vstats
p2422
g2400
sVname
p2423
VNasus
p2424
sVtitle
p2425
Vthe Curator of the Sands
p2426
sVtags
p2427
(lp2428
VFighter
p2429
aVTank
p2430
asVkey
p2431
VNasus
p2432
sVid
p2433
I75
ssg38
S'Nasus'
p2434
sg40
g2428
sbsI76
(i__main__
Champion
p2435
(dp2436
g3
(dp2437
Varmorperlevel
p2438
F3.5
sVattackdamage
p2439
F47.88
sVmpperlevel
p2440
F45.0
sVattackspeedoffset
p2441
F-0.02
sVmp
p2442
F295.6
sVarmor
p2443
F22.88
sVhp
p2444
F511.2
sVhpregenperlevel
p2445
F0.6
sVattackspeedperlevel
p2446
F3.22
sVattackrange
p2447
F525.0
sVmovespeed
p2448
F335.0
sVattackdamageperlevel
p2449
F3.5
sVmpregenperlevel
p2450
F0.8
sVcritperlevel
p2451
F0.0
sVspellblockperlevel
p2452
F0.0
sVcrit
p2453
F0.0
sVmpregen
p2454
F6.0
sVspellblock
p2455
F30.0
sVhpregen
p2456
F6.005
sVhpperlevel
p2457
F80.0
ssg25
(dp2458
Vstats
p2459
g2437
sVname
p2460
VNidalee
p2461
sVtitle
p2462
Vthe Bestial Huntress
p2463
sVtags
p2464
(lp2465
VAssassin
p2466
aVFighter
p2467
asVkey
p2468
VNidalee
p2469
sVid
p2470
I76
ssg38
S'Nidalee'
p2471
sg40
g2465
sbsI77
(i__main__
Champion
p2472
(dp2473
g3
(dp2474
Varmorperlevel
p2475
F4.0
sVattackdamage
p2476
F58.286
sVmpperlevel
p2477
F30.0
sVattackspeedoffset
p2478
F-0.05
sVmp
p2479
F270.4
sVarmor
p2480
F25.47
sVhp
p2481
F593.32
sVhpregenperlevel
p2482
F0.75
sVattackspeedperlevel
p2483
F2.67
sVattackrange
p2484
F125.0
sVmovespeed
p2485
F345.0
sVattackdamageperlevel
p2486
F3.2
sVmpregenperlevel
p2487
F0.45
sVcritperlevel
p2488
F0.0
sVspellblockperlevel
p2489
F1.25
sVcrit
p2490
F0.0
sVmpregen
p2491
F7.505
sVspellblock
p2492
F32.1
sVhpregen
p2493
F8.71
sVhpperlevel
p2494
F99.0
ssg25
(dp2495
Vstats
p2496
g2474
sVname
p2497
VUdyr
p2498
sVtitle
p2499
Vthe Spirit Walker
p2500
sVtags
p2501
(lp2502
VFighter
p2503
aVTank
p2504
asVkey
p2505
VUdyr
p2506
sVid
p2507
I77
ssg38
S'Udyr'
p2508
sg40
g2502
sbsI78
(i__main__
Champion
p2509
(dp2510
g3
(dp2511
Varmorperlevel
p2512
F4.0
sVattackdamage
p2513
F61.97
sVmpperlevel
p2514
F30.0
sVattackspeedoffset
p2515
F-0.02
sVmp
p2516
F235.4
sVarmor
p2517
F28.72
sVhp
p2518
F559.08
sVhpregenperlevel
p2519
F0.55
sVattackspeedperlevel
p2520
F3.35
sVattackrange
p2521
F125.0
sVmovespeed
p2522
F345.0
sVattackdamageperlevel
p2523
F3.375
sVmpregenperlevel
p2524
F0.45
sVcritperlevel
p2525
F0.0
sVspellblockperlevel
p2526
F0.0
sVcrit
p2527
F0.0
sVmpregen
p2528
F7.155
sVspellblock
p2529
F30.0
sVhpregen
p2530
F8.37
sVhpperlevel
p2531
F81.0
ssg25
(dp2532
Vstats
p2533
g2511
sVname
p2534
VPoppy
p2535
sVtitle
p2536
Vthe Iron Ambassador
p2537
sVtags
p2538
(lp2539
VFighter
p2540
aVAssassin
p2541
asVkey
p2542
VPoppy
p2543
sVid
p2544
I78
ssg38
S'Poppy'
p2545
sg40
g2539
sbsI79
(i__main__
Champion
p2546
(dp2547
g3
(dp2548
Varmorperlevel
p2549
F3.6
sVattackdamage
p2550
F61.38
sVmpperlevel
p2551
F47.0
sVattackspeedoffset
p2552
F-0.04
sVmp
p2553
F400.0
sVarmor
p2554
F26.048
sVhp
p2555
F583.52
sVhpregenperlevel
p2556
F0.5
sVattackspeedperlevel
p2557
F2.05
sVattackrange
p2558
F125.0
sVmovespeed
p2559
F330.0
sVattackdamageperlevel
p2560
F3.5
sVmpregenperlevel
p2561
F0.8
sVcritperlevel
p2562
F0.0
sVspellblockperlevel
p2563
F1.25
sVcrit
p2564
F0.0
sVmpregen
p2565
F6.0
sVspellblock
p2566
F32.1
sVhpregen
p2567
F5.5
sVhpperlevel
p2568
F89.0
ssg25
(dp2569
Vstats
p2570
g2548
sVname
p2571
VGragas
p2572
sVtitle
p2573
Vthe Rabble Rouser
p2574
sVtags
p2575
(lp2576
VFighter
p2577
aVMage
p2578
asVkey
p2579
VGragas
p2580
sVid
p2581
I79
ssg38
S'Gragas'
p2582
sg40
g2576
sbsI80
(i__main__
Champion
p2583
(dp2584
g3
(dp2585
Varmorperlevel
p2586
F3.9
sVattackdamage
p2587
F55.572
sVmpperlevel
p2588
F31.0
sVattackspeedoffset
p2589
F-0.03
sVmp
p2590
F317.12
sVarmor
p2591
F27.652
sVhp
p2592
F579.16
sVhpregenperlevel
p2593
F0.65
sVattackspeedperlevel
p2594
F2.95
sVattackrange
p2595
F150.0
sVmovespeed
p2596
F355.0
sVattackdamageperlevel
p2597
F2.9
sVmpregenperlevel
p2598
F0.45
sVcritperlevel
p2599
F0.0
sVspellblockperlevel
p2600
F1.25
sVcrit
p2601
F0.0
sVmpregen
p2602
F7.355
sVspellblock
p2603
F32.1
sVhpregen
p2604
F7.84
sVhpperlevel
p2605
F87.0
ssg25
(dp2606
Vstats
p2607
g2585
sVname
p2608
VPantheon
p2609
sVtitle
p2610
Vthe Artisan of War
p2611
sVtags
p2612
(lp2613
VFighter
p2614
aVAssassin
p2615
asVkey
p2616
VPantheon
p2617
sVid
p2618
I80
ssg38
S'Pantheon'
p2619
sg40
g2613
sbsI81
(i__main__
Champion
p2620
(dp2621
g3
(dp2622
Varmorperlevel
p2623
F3.5
sVattackdamage
p2624
F55.66
sVmpperlevel
p2625
F42.0
sVattackspeedoffset
p2626
F0.0
sVmp
p2627
F360.6
sVarmor
p2628
F21.88
sVhp
p2629
F484.4
sVhpregenperlevel
p2630
F0.55
sVattackspeedperlevel
p2631
F2.8
sVattackrange
p2632
F550.0
sVmovespeed
p2633
F325.0
sVattackdamageperlevel
p2634
F2.41
sVmpregenperlevel
p2635
F0.65
sVcritperlevel
p2636
F0.0
sVspellblockperlevel
p2637
F0.0
sVcrit
p2638
F0.0
sVmpregen
p2639
F8.09
sVspellblock
p2640
F30.0
sVhpregen
p2641
F6.42
sVhpperlevel
p2642
F80.0
ssg25
(dp2643
Vstats
p2644
g2622
sVname
p2645
VEzreal
p2646
sVtitle
p2647
Vthe Prodigal Explorer
p2648
sVtags
p2649
(lp2650
VMarksman
p2651
aVMage
p2652
asVkey
p2653
VEzreal
p2654
sVid
p2655
I81
ssg38
S'Ezreal'
p2656
sg40
g2650
sbsI82
(i__main__
Champion
p2657
(dp2658
g3
(dp2659
Varmorperlevel
p2660
F3.75
sVattackdamage
p2661
F61.0
sVmpperlevel
p2662
F0.0
sVattackspeedoffset
p2663
F0.04
sVmp
p2664
F0.0
sVarmor
p2665
F20.0
sVhp
p2666
F525.0
sVhpregenperlevel
p2667
F0.3
sVattackspeedperlevel
p2668
F2.2
sVattackrange
p2669
F175.0
sVmovespeed
p2670
F325.0
sVattackdamageperlevel
p2671
F5.0
sVmpregenperlevel
p2672
F0.0
sVcritperlevel
p2673
F0.0
sVspellblockperlevel
p2674
F1.25
sVcrit
p2675
F0.0
sVmpregen
p2676
F0.0
sVspellblock
p2677
F32.1
sVhpregen
p2678
F4.0
sVhpperlevel
p2679
F73.0
ssg25
(dp2680
Vstats
p2681
g2659
sVname
p2682
VMordekaiser
p2683
sVtitle
p2684
Vthe Iron Revenant
p2685
sVtags
p2686
(lp2687
VFighter
p2688
aVMage
p2689
asVkey
p2690
VMordekaiser
p2691
sVid
p2692
I82
ssg38
S'Mordekaiser'
p2693
sg40
g2687
sbsI83
(i__main__
Champion
p2694
(dp2695
g3
(dp2696
Varmorperlevel
p2697
F3.6
sVattackdamage
p2698
F57.58
sVmpperlevel
p2699
F35.0
sVattackspeedoffset
p2700
F0.0
sVmp
p2701
F293.8
sVarmor
p2702
F25.048
sVhp
p2703
F563.8
sVhpregenperlevel
p2704
F0.7
sVattackspeedperlevel
p2705
F3.0
sVattackrange
p2706
F125.0
sVmovespeed
p2707
F345.0
sVattackdamageperlevel
p2708
F3.5
sVmpregenperlevel
p2709
F0.45
sVcritperlevel
p2710
F0.0
sVspellblockperlevel
p2711
F1.25
sVcrit
p2712
F0.0
sVmpregen
p2713
F6.755
sVspellblock
p2714
F32.1
sVhpregen
p2715
F8.175
sVhpperlevel
p2716
F85.0
ssg25
(dp2717
Vstats
p2718
g2696
sVname
p2719
VYorick
p2720
sVtitle
p2721
Vthe Gravedigger
p2722
sVtags
p2723
(lp2724
VFighter
p2725
aVMage
p2726
asVkey
p2727
VYorick
p2728
sVid
p2729
I83
ssg38
S'Yorick'
p2730
sg40
g2724
sbsI84
(i__main__
Champion
p2731
(dp2732
g3
(dp2733
Varmorperlevel
p2734
F3.5
sVattackdamage
p2735
F58.376
sVmpperlevel
p2736
F0.0
sVattackspeedoffset
p2737
F-0.1
sVmp
p2738
F200.0
sVarmor
p2739
F26.38
sVhp
p2740
F587.8
sVhpregenperlevel
p2741
F0.65
sVattackspeedperlevel
p2742
F3.1
sVattackrange
p2743
F125.0
sVmovespeed
p2744
F350.0
sVattackdamageperlevel
p2745
F3.2
sVmpregenperlevel
p2746
F0.0
sVcritperlevel
p2747
F0.0
sVspellblockperlevel
p2748
F1.25
sVcrit
p2749
F0.0
sVmpregen
p2750
F50.0
sVspellblock
p2751
F32.1
sVhpregen
p2752
F8.34
sVhpperlevel
p2753
F85.0
ssg25
(dp2754
Vstats
p2755
g2733
sVname
p2756
VAkali
p2757
sVtitle
p2758
Vthe Fist of Shadow
p2759
sVtags
p2760
(lp2761
VAssassin
p2762
asVkey
p2763
VAkali
p2764
sVid
p2765
I84
ssg38
S'Akali'
p2766
sg40
g2761
sbsI85
(i__main__
Champion
p2767
(dp2768
g3
(dp2769
Varmorperlevel
p2770
F3.75
sVattackdamage
p2771
F50.544
sVmpperlevel
p2772
F0.0
sVattackspeedoffset
p2773
F-0.0947
sVmp
p2774
F200.0
sVarmor
p2775
F24.3
sVhp
p2776
F535.72
sVhpregenperlevel
p2777
F0.65
sVattackspeedperlevel
p2778
F3.4
sVattackrange
p2779
F550.0
sVmovespeed
p2780
F335.0
sVattackdamageperlevel
p2781
F3.3
sVmpregenperlevel
p2782
F0.0
sVcritperlevel
p2783
F0.0
sVspellblockperlevel
p2784
F0.0
sVcrit
p2785
F0.0
sVmpregen
p2786
F50.0
sVspellblock
p2787
F30.0
sVhpregen
p2788
F5.59
sVhpperlevel
p2789
F79.0
ssg25
(dp2790
Vstats
p2791
g2769
sVname
p2792
VKennen
p2793
sVtitle
p2794
Vthe Heart of the Tempest
p2795
sVtags
p2796
(lp2797
VMage
p2798
aVMarksman
p2799
asVkey
p2800
VKennen
p2801
sVid
p2802
I85
ssg38
S'Kennen'
p2803
sg40
g2797
sbsI86
(i__main__
Champion
p2804
(dp2805
g3
(dp2806
Varmorperlevel
p2807
F3.0
sVattackdamage
p2808
F57.88
sVmpperlevel
p2809
F0.0
sVattackspeedoffset
p2810
F0.0
sVmp
p2811
F0.0
sVarmor
p2812
F27.536
sVhp
p2813
F616.28
sVhpregenperlevel
p2814
F0.5
sVattackspeedperlevel
p2815
F2.9
sVattackrange
p2816
F175.0
sVmovespeed
p2817
F340.0
sVattackdamageperlevel
p2818
F4.5
sVmpregenperlevel
p2819
F0.0
sVcritperlevel
p2820
F0.0
sVspellblockperlevel
p2821
F1.25
sVcrit
p2822
F0.0
sVmpregen
p2823
F0.0
sVspellblock
p2824
F32.1
sVhpregen
p2825
F7.84
sVhpperlevel
p2826
F84.25
ssg25
(dp2827
Vstats
p2828
g2806
sVname
p2829
VGaren
p2830
sVtitle
p2831
VThe Might of Demacia
p2832
sVtags
p2833
(lp2834
VFighter
p2835
aVTank
p2836
asVkey
p2837
VGaren
p2838
sVid
p2839
I86
ssg38
S'Garen'
p2840
sg40
g2834
sbsI89
(i__main__
Champion
p2841
(dp2842
g3
(dp2843
Varmorperlevel
p2844
F3.6
sVattackdamage
p2845
F60.04
sVmpperlevel
p2846
F40.0
sVattackspeedoffset
p2847
F0.0
sVmp
p2848
F302.2
sVarmor
p2849
F27.208
sVhp
p2850
F576.16
sVhpregenperlevel
p2851
F0.85
sVattackspeedperlevel
p2852
F2.9
sVattackrange
p2853
F125.0
sVmovespeed
p2854
F335.0
sVattackdamageperlevel
p2855
F3.0
sVmpregenperlevel
p2856
F0.8
sVcritperlevel
p2857
F0.0
sVspellblockperlevel
p2858
F1.25
sVcrit
p2859
F0.0
sVmpregen
p2860
F6.0
sVspellblock
p2861
F32.1
sVhpregen
p2862
F8.425
sVhpperlevel
p2863
F87.0
ssg25
(dp2864
Vstats
p2865
g2843
sVname
p2866
VLeona
p2867
sVtitle
p2868
Vthe Radiant Dawn
p2869
sVtags
p2870
(lp2871
VTank
p2872
aVSupport
p2873
asVkey
p2874
VLeona
p2875
sVid
p2876
I89
ssg38
S'Leona'
p2877
sg40
g2871
sbsI90
(i__main__
Champion
p2878
(dp2879
g3
(dp2880
Varmorperlevel
p2881
F3.5
sVattackdamage
p2882
F54.7
sVmpperlevel
p2883
F45.0
sVattackspeedoffset
p2884
F0.0
sVmp
p2885
F325.6
sVarmor
p2886
F21.88
sVhp
p2887
F514.4
sVhpregenperlevel
p2888
F0.55
sVattackspeedperlevel
p2889
F1.36
sVattackrange
p2890
F550.0
sVmovespeed
p2891
F340.0
sVattackdamageperlevel
p2892
F3.0
sVmpregenperlevel
p2893
F0.8
sVcritperlevel
p2894
F0.0
sVspellblockperlevel
p2895
F0.0
sVcrit
p2896
F0.0
sVmpregen
p2897
F6.0
sVspellblock
p2898
F30.0
sVhpregen
p2899
F5.42
sVhpperlevel
p2900
F80.0
ssg25
(dp2901
Vstats
p2902
g2880
sVname
p2903
VMalzahar
p2904
sVtitle
p2905
Vthe Prophet of the Void
p2906
sVtags
p2907
(lp2908
VMage
p2909
aVAssassin
p2910
asVkey
p2911
VMalzahar
p2912
sVid
p2913
I90
ssg38
S'Malzahar'
p2914
sg40
g2908
sbsI91
(i__main__
Champion
p2915
(dp2916
g3
(dp2917
Varmorperlevel
p2918
F3.5
sVattackdamage
p2919
F55.208
sVmpperlevel
p2920
F37.0
sVattackspeedoffset
p2921
F-0.065
sVmp
p2922
F377.2
sVarmor
p2923
F26.88
sVhp
p2924
F582.8
sVhpregenperlevel
p2925
F0.75
sVattackspeedperlevel
p2926
F2.7
sVattackrange
p2927
F125.0
sVmovespeed
p2928
F350.0
sVattackdamageperlevel
p2929
F3.1
sVmpregenperlevel
p2930
F0.5
sVcritperlevel
p2931
F0.0
sVspellblockperlevel
p2932
F1.25
sVcrit
p2933
F0.0
sVmpregen
p2934
F7.59
sVspellblock
p2935
F32.1
sVhpregen
p2936
F8.51
sVhpperlevel
p2937
F85.0
ssg25
(dp2938
Vstats
p2939
g2917
sVname
p2940
VTalon
p2941
sVtitle
p2942
Vthe Blade's Shadow
p2943
sVtags
p2944
(lp2945
VAssassin
p2946
aVFighter
p2947
asVkey
p2948
VTalon
p2949
sVid
p2950
I91
ssg38
S'Talon'
p2951
sg40
g2945
sbsI92
(i__main__
Champion
p2952
(dp2953
g3
(dp2954
Varmorperlevel
p2955
F3.2
sVattackdamage
p2956
F56.04
sVmpperlevel
p2957
F0.0
sVattackspeedoffset
p2958
F0.0
sVmp
p2959
F0.0
sVarmor
p2960
F24.376
sVhp
p2961
F558.48
sVhpregenperlevel
p2962
F0.5
sVattackspeedperlevel
p2963
F3.5
sVattackrange
p2964
F125.0
sVmovespeed
p2965
F340.0
sVattackdamageperlevel
p2966
F3.0
sVmpregenperlevel
p2967
F0.0
sVcritperlevel
p2968
F0.0
sVspellblockperlevel
p2969
F1.25
sVcrit
p2970
F0.0
sVmpregen
p2971
F0.0
sVspellblock
p2972
F32.1
sVhpregen
p2973
F3.34
sVhpperlevel
p2974
F86.0
ssg25
(dp2975
Vstats
p2976
g2954
sVname
p2977
VRiven
p2978
sVtitle
p2979
Vthe Exile
p2980
sVtags
p2981
(lp2982
VFighter
p2983
aVAssassin
p2984
asVkey
p2985
VRiven
p2986
sVid
p2987
I92
ssg38
S'Riven'
p2988
sg40
g2982
sbsI96
(i__main__
Champion
p2989
(dp2990
g3
(dp2991
Varmorperlevel
p2992
F3.5
sVattackdamage
p2993
F57.46
sVmpperlevel
p2994
F40.0
sVattackspeedoffset
p2995
F-0.06
sVmp
p2996
F322.2
sVarmor
p2997
F19.88
sVhp
p2998
F517.76
sVhpregenperlevel
p2999
F0.55
sVattackspeedperlevel
p3000
F1.5
sVattackrange
p3001
F500.0
sVmovespeed
p3002
F325.0
sVattackdamageperlevel
p3003
F2.41
sVmpregenperlevel
p3004
F0.7
sVcritperlevel
p3005
F0.0
sVspellblockperlevel
p3006
F0.0
sVcrit
p3007
F0.0
sVmpregen
p3008
F8.675
sVspellblock
p3009
F30.0
sVhpregen
p3010
F5.92
sVhpperlevel
p3011
F82.0
ssg25
(dp3012
Vstats
p3013
g2991
sVname
p3014
VKog'Maw
p3015
sVtitle
p3016
Vthe Mouth of the Abyss
p3017
sVtags
p3018
(lp3019
VMarksman
p3020
aVMage
p3021
asVkey
p3022
VKogMaw
p3023
sVid
p3024
I96
ssg38
S"Kog'Maw"
p3025
sg40
g3019
sbsI98
(i__main__
Champion
p3026
(dp3027
g3
(dp3028
Varmorperlevel
p3029
F4.0
sVattackdamage
p3030
F60.17
sVmpperlevel
p3031
F0.0
sVattackspeedoffset
p3032
F-0.04
sVmp
p3033
F200.0
sVarmor
p3034
F25.72
sVhp
p3035
F570.8
sVhpregenperlevel
p3036
F0.55
sVattackspeedperlevel
p3037
F3.4
sVattackrange
p3038
F125.0
sVmovespeed
p3039
F335.0
sVattackdamageperlevel
p3040
F3.375
sVmpregenperlevel
p3041
F0.0
sVcritperlevel
p3042
F0.0
sVspellblockperlevel
p3043
F1.25
sVcrit
p3044
F0.0
sVmpregen
p3045
F50.0
sVspellblock
p3046
F32.1
sVhpregen
p3047
F8.37
sVhpperlevel
p3048
F85.0
ssg25
(dp3049
Vstats
p3050
g3028
sVname
p3051
VShen
p3052
sVtitle
p3053
VEye of Twilight
p3054
sVtags
p3055
(lp3056
VTank
p3057
aVFighter
p3058
asVkey
p3059
VShen
p3060
sVid
p3061
I98
ssg38
S'Shen'
p3062
sg40
g3056
sbsI99
(i__main__
Champion
p3063
(dp3064
g3
(dp3065
Varmorperlevel
p3066
F4.0
sVattackdamage
p3067
F53.544
sVmpperlevel
p3068
F47.0
sVattackspeedoffset
p3069
F0.0
sVmp
p3070
F384.0
sVarmor
p3071
F18.72
sVhp
p3072
F477.72
sVhpregenperlevel
p3073
F0.55
sVattackspeedperlevel
p3074
F1.36
sVattackrange
p3075
F550.0
sVmovespeed
p3076
F330.0
sVattackdamageperlevel
p3077
F3.3
sVmpregenperlevel
p3078
F0.8
sVcritperlevel
p3079
F0.0
sVspellblockperlevel
p3080
F0.0
sVcrit
p3081
F0.0
sVmpregen
p3082
F6.0
sVspellblock
p3083
F30.0
sVhpregen
p3084
F5.42
sVhpperlevel
p3085
F79.0
ssg25
(dp3086
Vstats
p3087
g3065
sVname
p3088
VLux
p3089
sVtitle
p3090
Vthe Lady of Luminosity
p3091
sVtags
p3092
(lp3093
VMage
p3094
aVSupport
p3095
asVkey
p3096
VLux
p3097
sVid
p3098
I99
ssg38
S'Lux'
p3099
sg40
g3093
sbsI101
(i__main__
Champion
p3100
(dp3101
g3
(dp3102
Varmorperlevel
p3103
F3.5
sVattackdamage
p3104
F54.7
sVmpperlevel
p3105
F44.0
sVattackspeedoffset
p3106
F0.0
sVmp
p3107
F366.96
sVarmor
p3108
F21.88
sVhp
p3109
F514.4
sVhpregenperlevel
p3110
F0.55
sVattackspeedperlevel
p3111
F1.36
sVattackrange
p3112
F525.0
sVmovespeed
p3113
F340.0
sVattackdamageperlevel
p3114
F3.0
sVmpregenperlevel
p3115
F0.8
sVcritperlevel
p3116
F0.0
sVspellblockperlevel
p3117
F0.0
sVcrit
p3118
F0.0
sVmpregen
p3119
F6.0
sVspellblock
p3120
F30.0
sVhpregen
p3121
F5.42
sVhpperlevel
p3122
F80.0
ssg25
(dp3123
Vstats
p3124
g3102
sVname
p3125
VXerath
p3126
sVtitle
p3127
Vthe Magus Ascendant
p3128
sVtags
p3129
(lp3130
VMage
p3131
aVAssassin
p3132
asVkey
p3133
VXerath
p3134
sVid
p3135
I101
ssg38
S'Xerath'
p3136
sg40
g3130
sbsI102
(i__main__
Champion
p3137
(dp3138
g3
(dp3139
Varmorperlevel
p3140
F3.35
sVattackdamage
p3141
F60.712
sVmpperlevel
p3142
F0.0
sVattackspeedoffset
p3143
F-0.05
sVmp
p3144
F100.0
sVarmor
p3145
F27.628
sVhp
p3146
F594.6
sVhpregenperlevel
p3147
F0.8
sVattackspeedperlevel
p3148
F2.5
sVattackrange
p3149
F125.0
sVmovespeed
p3150
F350.0
sVattackdamageperlevel
p3151
F3.4
sVmpregenperlevel
p3152
F0.0
sVcritperlevel
p3153
F0.0
sVspellblockperlevel
p3154
F1.25
sVcrit
p3155
F0.0
sVmpregen
p3156
F0.0
sVspellblock
p3157
F32.1
sVhpregen
p3158
F8.59
sVhpperlevel
p3159
F95.0
ssg25
(dp3160
Vstats
p3161
g3139
sVname
p3162
VShyvana
p3163
sVtitle
p3164
Vthe Half-Dragon
p3165
sVtags
p3166
(lp3167
VFighter
p3168
aVTank
p3169
asVkey
p3170
VShyvana
p3171
sVid
p3172
I102
ssg38
S'Shyvana'
p3173
sg40
g3167
sbsI103
(i__main__
Champion
p3174
(dp3175
g3
(dp3176
Varmorperlevel
p3177
F3.5
sVattackdamage
p3178
F53.04
sVmpperlevel
p3179
F50.0
sVattackspeedoffset
p3180
F-0.065
sVmp
p3181
F334.0
sVarmor
p3182
F20.88
sVhp
p3183
F514.4
sVhpregenperlevel
p3184
F0.6
sVattackspeedperlevel
p3185
F2.0
sVattackrange
p3186
F550.0
sVmovespeed
p3187
F330.0
sVattackdamageperlevel
p3188
F3.0
sVmpregenperlevel
p3189
F0.8
sVcritperlevel
p3190
F0.0
sVspellblockperlevel
p3191
F0.0
sVcrit
p3192
F0.0
sVmpregen
p3193
F6.0
sVspellblock
p3194
F30.0
sVhpregen
p3195
F6.505
sVhpperlevel
p3196
F80.0
ssg25
(dp3197
Vstats
p3198
g3176
sVname
p3199
VAhri
p3200
sVtitle
p3201
Vthe Nine-Tailed Fox
p3202
sVtags
p3203
(lp3204
VMage
p3205
aVAssassin
p3206
asVkey
p3207
VAhri
p3208
sVid
p3209
I103
ssg38
S'Ahri'
p3210
sg40
g3204
sbsI104
(i__main__
Champion
p3211
(dp3212
g3
(dp3213
Varmorperlevel
p3214
F3.4
sVattackdamage
p3215
F60.83
sVmpperlevel
p3216
F40.0
sVattackspeedoffset
p3217
F0.3
sVmp
p3218
F322.2
sVarmor
p3219
F24.376
sVhp
p3220
F551.12
sVhpregenperlevel
p3221
F0.7
sVattackspeedperlevel
p3222
F2.6
sVattackrange
p3223
F425.0
sVmovespeed
p3224
F340.0
sVattackdamageperlevel
p3225
F2.41
sVmpregenperlevel
p3226
F0.7
sVcritperlevel
p3227
F0.0
sVspellblockperlevel
p3228
F0.0
sVcrit
p3229
F0.0
sVmpregen
p3230
F7.925
sVspellblock
p3231
F30.0
sVhpregen
p3232
F6.675
sVhpperlevel
p3233
F84.0
ssg25
(dp3234
Vstats
p3235
g3213
sVname
p3236
VGraves
p3237
sVtitle
p3238
Vthe Outlaw
p3239
sVtags
p3240
(lp3241
VMarksman
p3242
asVkey
p3243
VGraves
p3244
sVid
p3245
I104
ssg38
S'Graves'
p3246
sg40
g3241
sbsI105
(i__main__
Champion
p3247
(dp3248
g3
(dp3249
Varmorperlevel
p3250
F3.4
sVattackdamage
p3251
F58.04
sVmpperlevel
p3252
F37.0
sVattackspeedoffset
p3253
F-0.05
sVmp
p3254
F317.2
sVarmor
p3255
F22.412
sVhp
p3256
F558.48
sVhpregenperlevel
p3257
F0.7
sVattackspeedperlevel
p3258
F3.1
sVattackrange
p3259
F175.0
sVmovespeed
p3260
F335.0
sVattackdamageperlevel
p3261
F3.0
sVmpregenperlevel
p3262
F0.8
sVcritperlevel
p3263
F0.0
sVspellblockperlevel
p3264
F1.25
sVcrit
p3265
F0.0
sVmpregen
p3266
F6.0
sVspellblock
p3267
F32.1
sVhpregen
p3268
F8.175
sVhpperlevel
p3269
F86.0
ssg25
(dp3270
Vstats
p3271
g3249
sVname
p3272
VFizz
p3273
sVtitle
p3274
Vthe Tidal Trickster
p3275
sVtags
p3276
(lp3277
VAssassin
p3278
aVFighter
p3279
asVkey
p3280
VFizz
p3281
sVid
p3282
I105
ssg38
S'Fizz'
p3283
sg40
g3277
sbsI106
(i__main__
Champion
p3284
(dp3285
g3
(dp3286
Varmorperlevel
p3287
F3.5
sVattackdamage
p3288
F59.544
sVmpperlevel
p3289
F30.0
sVattackspeedoffset
p3290
F-0.05
sVmp
p3291
F270.4
sVarmor
p3292
F26.38
sVhp
p3293
F584.48
sVhpregenperlevel
p3294
F0.65
sVattackspeedperlevel
p3295
F2.67
sVattackrange
p3296
F125.0
sVmovespeed
p3297
F345.0
sVattackdamageperlevel
p3298
F3.3
sVmpregenperlevel
p3299
F0.65
sVcritperlevel
p3300
F0.0
sVspellblockperlevel
p3301
F1.25
sVcrit
p3302
F0.0
sVmpregen
p3303
F8.09
sVspellblock
p3304
F32.1
sVhpregen
p3305
F8.09
sVhpperlevel
p3306
F86.0
ssg25
(dp3307
Vstats
p3308
g3286
sVname
p3309
VVolibear
p3310
sVtitle
p3311
Vthe Thunder's Roar
p3312
sVtags
p3313
(lp3314
VFighter
p3315
aVTank
p3316
asVkey
p3317
VVolibear
p3318
sVid
p3319
I106
ssg38
S'Volibear'
p3320
sg40
g3314
sbsI107
(i__main__
Champion
p3321
(dp3322
g3
(dp3323
Varmorperlevel
p3324
F3.5
sVattackdamage
p3325
F60.04
sVmpperlevel
p3326
F0.0
sVattackspeedoffset
p3327
F-0.08
sVmp
p3328
F5.0
sVarmor
p3329
F25.88
sVhp
p3330
F586.2
sVhpregenperlevel
p3331
F0.4
sVattackspeedperlevel
p3332
F2.85
sVattackrange
p3333
F125.0
sVmovespeed
p3334
F345.0
sVattackdamageperlevel
p3335
F3.0
sVmpregenperlevel
p3336
F0.0
sVcritperlevel
p3337
F0.0
sVspellblockperlevel
p3338
F1.25
sVcrit
p3339
F0.0
sVmpregen
p3340
F0.0
sVspellblock
p3341
F32.1
sVhpregen
p3342
F4.27
sVhpperlevel
p3343
F90.0
ssg25
(dp3344
Vstats
p3345
g3323
sVname
p3346
VRengar
p3347
sVtitle
p3348
Vthe Pridestalker
p3349
sVtags
p3350
(lp3351
VAssassin
p3352
aVFighter
p3353
asVkey
p3354
VRengar
p3355
sVid
p3356
I107
ssg38
S'Rengar'
p3357
sg40
g3351
sbsI110
(i__main__
Champion
p3358
(dp3359
g3
(dp3360
Varmorperlevel
p3361
F3.4
sVattackdamage
p3362
F54.66
sVmpperlevel
p3363
F33.0
sVattackspeedoffset
p3364
F-0.05
sVmp
p3365
F360.48
sVarmor
p3366
F23.212
sVhp
p3367
F537.76
sVhpregenperlevel
p3368
F0.55
sVattackspeedperlevel
p3369
F3.0
sVattackrange
p3370
F575.0
sVmovespeed
p3371
F330.0
sVattackdamageperlevel
p3372
F2.41
sVmpregenperlevel
p3373
F0.8
sVcritperlevel
p3374
F0.0
sVspellblockperlevel
p3375
F0.0
sVcrit
p3376
F0.0
sVmpregen
p3377
F7.34
sVspellblock
p3378
F30.0
sVhpregen
p3379
F5.42
sVhpperlevel
p3380
F82.0
ssg25
(dp3381
Vstats
p3382
g3360
sVname
p3383
VVarus
p3384
sVtitle
p3385
Vthe Arrow of Retribution
p3386
sVtags
p3387
(lp3388
VMarksman
p3389
aVMage
p3390
asVkey
p3391
VVarus
p3392
sVid
p3393
I110
ssg38
S'Varus'
p3394
sg40
g3388
sbsI111
(i__main__
Champion
p3395
(dp3396
g3
(dp3397
Varmorperlevel
p3398
F3.75
sVattackdamage
p3399
F57.544
sVmpperlevel
p3400
F47.0
sVattackspeedoffset
p3401
F0.02
sVmp
p3402
F334.0
sVarmor
p3403
F26.46
sVhp
p3404
F576.48
sVhpregenperlevel
p3405
F0.55
sVattackspeedperlevel
p3406
F1.0
sVattackrange
p3407
F175.0
sVmovespeed
p3408
F325.0
sVattackdamageperlevel
p3409
F3.3
sVmpregenperlevel
p3410
F0.7
sVcritperlevel
p3411
F0.0
sVspellblockperlevel
p3412
F1.25
sVcrit
p3413
F0.0
sVmpregen
p3414
F8.625
sVspellblock
p3415
F32.1
sVhpregen
p3416
F8.37
sVhpperlevel
p3417
F86.0
ssg25
(dp3418
Vstats
p3419
g3397
sVname
p3420
VNautilus
p3421
sVtitle
p3422
Vthe Titan of the Depths
p3423
sVtags
p3424
(lp3425
VTank
p3426
aVFighter
p3427
asVkey
p3428
VNautilus
p3429
sVid
p3430
I111
ssg38
S'Nautilus'
p3431
sg40
g3425
sbsI112
(i__main__
Champion
p3432
(dp3433
g3
(dp3434
Varmorperlevel
p3435
F4.0
sVattackdamage
p3436
F52.04
sVmpperlevel
p3437
F50.0
sVattackspeedoffset
p3438
F-0.05
sVmp
p3439
F324.0
sVarmor
p3440
F22.72
sVhp
p3441
F516.04
sVhpregenperlevel
p3442
F0.65
sVattackspeedperlevel
p3443
F2.11
sVattackrange
p3444
F525.0
sVmovespeed
p3445
F335.0
sVattackdamageperlevel
p3446
F3.0
sVmpregenperlevel
p3447
F0.8
sVcritperlevel
p3448
F0.0
sVspellblockperlevel
p3449
F0.0
sVcrit
p3450
F0.0
sVmpregen
p3451
F6.0
sVspellblock
p3452
F30.0
sVhpregen
p3453
F7.84
sVhpperlevel
p3454
F78.0
ssg25
(dp3455
Vstats
p3456
g3434
sVname
p3457
VViktor
p3458
sVtitle
p3459
Vthe Machine Herald
p3460
sVtags
p3461
(lp3462
VMage
p3463
asVkey
p3464
VViktor
p3465
sVid
p3466
I112
ssg38
S'Viktor'
p3467
sg40
g3462
sbsI113
(i__main__
Champion
p3468
(dp3469
g3
(dp3470
Varmorperlevel
p3471
F3.0
sVattackdamage
p3472
F57.544
sVmpperlevel
p3473
F40.0
sVattackspeedoffset
p3474
F-0.0672
sVmp
p3475
F400.0
sVarmor
p3476
F29.54
sVhp
p3477
F600.0
sVhpregenperlevel
p3478
F0.85
sVattackspeedperlevel
p3479
F1.44
sVattackrange
p3480
F125.0
sVmovespeed
p3481
F340.0
sVattackdamageperlevel
p3482
F3.3
sVmpregenperlevel
p3483
F0.45
sVcritperlevel
p3484
F0.0
sVspellblockperlevel
p3485
F1.25
sVcrit
p3486
F0.0
sVmpregen
p3487
F7.205
sVspellblock
p3488
F32.1
sVhpregen
p3489
F8.675
sVhpperlevel
p3490
F95.0
ssg25
(dp3491
Vstats
p3492
g3470
sVname
p3493
VSejuani
p3494
sVtitle
p3495
Vthe Winter's Wrath
p3496
sVtags
p3497
(lp3498
VTank
p3499
aVFighter
p3500
asVkey
p3501
VSejuani
p3502
sVid
p3503
I113
ssg38
S'Sejuani'
p3504
sg40
g3498
sbsI114
(i__main__
Champion
p3505
(dp3506
g3
(dp3507
Varmorperlevel
p3508
F3.5
sVattackdamage
p3509
F60.0
sVmpperlevel
p3510
F40.0
sVattackspeedoffset
p3511
F0.0
sVmp
p3512
F300.0
sVarmor
p3513
F24.0
sVhp
p3514
F550.0
sVhpregenperlevel
p3515
F0.55
sVattackspeedperlevel
p3516
F3.2
sVattackrange
p3517
F150.0
sVmovespeed
p3518
F345.0
sVattackdamageperlevel
p3519
F3.3
sVmpregenperlevel
p3520
F0.7
sVcritperlevel
p3521
F0.0
sVspellblockperlevel
p3522
F1.25
sVcrit
p3523
F0.0
sVmpregen
p3524
F8.0
sVspellblock
p3525
F32.1
sVhpregen
p3526
F8.25
sVhpperlevel
p3527
F85.0
ssg25
(dp3528
Vstats
p3529
g3507
sVname
p3530
VFiora
p3531
sVtitle
p3532
Vthe Grand Duelist
p3533
sVtags
p3534
(lp3535
VFighter
p3536
aVAssassin
p3537
asVkey
p3538
VFiora
p3539
sVid
p3540
I114
ssg38
S'Fiora'
p3541
sg40
g3535
sbsI115
(i__main__
Champion
p3542
(dp3543
g3
(dp3544
Varmorperlevel
p3545
F3.3
sVattackdamage
p3546
F54.208
sVmpperlevel
p3547
F47.0
sVattackspeedoffset
p3548
F-0.04734
sVmp
p3549
F384.0
sVarmor
p3550
F21.544
sVhp
p3551
F524.4
sVhpregenperlevel
p3552
F0.6
sVattackspeedperlevel
p3553
F2.0
sVattackrange
p3554
F550.0
sVmovespeed
p3555
F325.0
sVattackdamageperlevel
p3556
F3.1
sVmpregenperlevel
p3557
F0.8
sVcritperlevel
p3558
F0.0
sVspellblockperlevel
p3559
F0.0
sVcrit
p3560
F0.0
sVmpregen
p3561
F6.0
sVspellblock
p3562
F30.0
sVhpregen
p3563
F6.255
sVhpperlevel
p3564
F80.0
ssg25
(dp3565
Vstats
p3566
g3544
sVname
p3567
VZiggs
p3568
sVtitle
p3569
Vthe Hexplosives Expert
p3570
sVtags
p3571
(lp3572
VMage
p3573
asVkey
p3574
VZiggs
p3575
sVid
p3576
I115
ssg38
S'Ziggs'
p3577
sg40
g3572
sbsI117
(i__main__
Champion
p3578
(dp3579
g3
(dp3580
Varmorperlevel
p3581
F3.7
sVattackdamage
p3582
F46.368
sVmpperlevel
p3583
F55.0
sVattackspeedoffset
p3584
F0.0
sVmp
p3585
F292.4
sVarmor
p3586
F19.216
sVhp
p3587
F552.76
sVhpregenperlevel
p3588
F0.6
sVattackspeedperlevel
p3589
F2.25
sVattackrange
p3590
F550.0
sVmovespeed
p3591
F325.0
sVattackdamageperlevel
p3592
F2.6
sVmpregenperlevel
p3593
F0.6
sVcritperlevel
p3594
F0.0
sVspellblockperlevel
p3595
F0.0
sVcrit
p3596
F0.0
sVmpregen
p3597
F11.0
sVspellblock
p3598
F30.0
sVhpregen
p3599
F6.005
sVhpperlevel
p3600
F74.0
ssg25
(dp3601
Vstats
p3602
g3580
sVname
p3603
VLulu
p3604
sVtitle
p3605
Vthe Fae Sorceress
p3606
sVtags
p3607
(lp3608
VSupport
p3609
aVMage
p3610
asVkey
p3611
VLulu
p3612
sVid
p3613
I117
ssg38
S'Lulu'
p3614
sg40
g3608
sbsI119
(i__main__
Champion
p3615
(dp3616
g3
(dp3617
Varmorperlevel
p3618
F3.3
sVattackdamage
p3619
F55.8
sVmpperlevel
p3620
F39.0
sVattackspeedoffset
p3621
F-0.08
sVmp
p3622
F360.56
sVarmor
p3623
F25.544
sVhp
p3624
F557.76
sVhpregenperlevel
p3625
F0.7
sVattackspeedperlevel
p3626
F2.7
sVattackrange
p3627
F550.0
sVmovespeed
p3628
F330.0
sVattackdamageperlevel
p3629
F2.91
sVmpregenperlevel
p3630
F0.65
sVcritperlevel
p3631
F0.0
sVspellblockperlevel
p3632
F0.0
sVcrit
p3633
F0.0
sVmpregen
p3634
F8.04
sVspellblock
p3635
F30.0
sVhpregen
p3636
F6.175
sVhpperlevel
p3637
F82.0
ssg25
(dp3638
Vstats
p3639
g3617
sVname
p3640
VDraven
p3641
sVtitle
p3642
Vthe Glorious Executioner
p3643
sVtags
p3644
(lp3645
VMarksman
p3646
asVkey
p3647
VDraven
p3648
sVid
p3649
I119
ssg38
S'Draven'
p3650
sg40
g3645
sbsI120
(i__main__
Champion
p3651
(dp3652
g3
(dp3653
Varmorperlevel
p3654
F4.0
sVattackdamage
p3655
F61.376
sVmpperlevel
p3656
F40.0
sVattackspeedoffset
p3657
F-0.0672
sVmp
p3658
F277.2
sVarmor
p3659
F26.72
sVhp
p3660
F599.6
sVhpregenperlevel
p3661
F0.75
sVattackspeedperlevel
p3662
F2.5
sVattackrange
p3663
F175.0
sVmovespeed
p3664
F345.0
sVattackdamageperlevel
p3665
F3.2
sVmpregenperlevel
p3666
F0.6
sVcritperlevel
p3667
F0.0
sVspellblockperlevel
p3668
F1.25
sVcrit
p3669
F0.0
sVmpregen
p3670
F6.5
sVspellblock
p3671
F32.1
sVhpregen
p3672
F7.0
sVhpperlevel
p3673
F95.0
ssg25
(dp3674
Vstats
p3675
g3653
sVname
p3676
VHecarim
p3677
sVtitle
p3678
Vthe Shadow of War
p3679
sVtags
p3680
(lp3681
VFighter
p3682
aVTank
p3683
asVkey
p3684
VHecarim
p3685
sVid
p3686
I120
ssg38
S'Hecarim'
p3687
sg40
g3681
sbsI121
(i__main__
Champion
p3688
(dp3689
g3
(dp3690
Varmorperlevel
p3691
F3.0
sVattackdamage
p3692
F55.208
sVmpperlevel
p3693
F40.0
sVattackspeedoffset
p3694
F-0.065
sVmp
p3695
F327.2
sVarmor
p3696
F27.0
sVhp
p3697
F572.8
sVhpregenperlevel
p3698
F0.75
sVattackspeedperlevel
p3699
F2.7
sVattackrange
p3700
F125.0
sVmovespeed
p3701
F350.0
sVattackdamageperlevel
p3702
F3.1
sVmpregenperlevel
p3703
F0.5
sVcritperlevel
p3704
F0.0
sVspellblockperlevel
p3705
F1.25
sVcrit
p3706
F0.0
sVmpregen
p3707
F7.59
sVspellblock
p3708
F32.1
sVhpregen
p3709
F7.51
sVhpperlevel
p3710
F85.0
ssg25
(dp3711
Vstats
p3712
g3690
sVname
p3713
VKha'Zix
p3714
sVtitle
p3715
Vthe Voidreaver
p3716
sVtags
p3717
(lp3718
VAssassin
p3719
aVFighter
p3720
asVkey
p3721
VKhazix
p3722
sVid
p3723
I121
ssg38
S"Kha'Zix"
p3724
sg40
g3718
sbsI122
(i__main__
Champion
p3725
(dp3726
g3
(dp3727
Varmorperlevel
p3728
F4.0
sVattackdamage
p3729
F56.0
sVmpperlevel
p3730
F37.5
sVattackspeedoffset
p3731
F0.0
sVmp
p3732
F263.0
sVarmor
p3733
F30.0
sVhp
p3734
F582.24
sVhpregenperlevel
p3735
F0.95
sVattackspeedperlevel
p3736
F1.0
sVattackrange
p3737
F175.0
sVmovespeed
p3738
F340.0
sVattackdamageperlevel
p3739
F5.0
sVmpregenperlevel
p3740
F0.35
sVcritperlevel
p3741
F0.0
sVspellblockperlevel
p3742
F1.25
sVcrit
p3743
F0.0
sVmpregen
p3744
F6.585
sVspellblock
p3745
F32.1
sVhpregen
p3746
F9.845
sVhpperlevel
p3747
F100.0
ssg25
(dp3748
Vstats
p3749
g3727
sVname
p3750
VDarius
p3751
sVtitle
p3752
Vthe Hand of Noxus
p3753
sVtags
p3754
(lp3755
VFighter
p3756
aVTank
p3757
asVkey
p3758
VDarius
p3759
sVid
p3760
I122
ssg38
S'Darius'
p3761
sg40
g3755
sbsI126
(i__main__
Champion
p3762
(dp3763
g3
(dp3764
Varmorperlevel
p3765
F3.5
sVattackdamage
p3766
F50.38
sVmpperlevel
p3767
F37.0
sVattackspeedoffset
p3768
F-0.05
sVmp
p3769
F357.2
sVarmor
p3770
F22.38
sVhp
p3771
F571.2
sVhpregenperlevel
p3772
F0.8
sVattackspeedperlevel
p3773
F3.0
sVattackrange
p3774
F125.0
sVmovespeed
p3775
F335.0
sVattackdamageperlevel
p3776
F3.5
sVmpregenperlevel
p3777
F0.8
sVcritperlevel
p3778
F0.0
sVspellblockperlevel
p3779
F0.0
sVcrit
p3780
F0.0
sVmpregen
p3781
F6.0
sVspellblock
p3782
F30.0
sVhpregen
p3783
F7.34
sVhpperlevel
p3784
F90.0
ssg25
(dp3785
Vstats
p3786
g3764
sVname
p3787
VJayce
p3788
sVtitle
p3789
Vthe Defender of Tomorrow
p3790
sVtags
p3791
(lp3792
VFighter
p3793
aVMarksman
p3794
asVkey
p3795
VJayce
p3796
sVid
p3797
I126
ssg38
S'Jayce'
p3798
sg40
g3792
sbsI127
(i__main__
Champion
p3799
(dp3800
g3
(dp3801
Varmorperlevel
p3802
F3.7
sVattackdamage
p3803
F50.536
sVmpperlevel
p3804
F50.0
sVattackspeedoffset
p3805
F0.0
sVmp
p3806
F304.0
sVarmor
p3807
F20.216
sVhp
p3808
F506.12
sVhpregenperlevel
p3809
F0.55
sVattackspeedperlevel
p3810
F1.36
sVattackrange
p3811
F550.0
sVmovespeed
p3812
F325.0
sVattackdamageperlevel
p3813
F2.7
sVmpregenperlevel
p3814
F0.4
sVcritperlevel
p3815
F0.0
sVspellblockperlevel
p3816
F0.0
sVcrit
p3817
F0.0
sVmpregen
p3818
F5.67
sVspellblock
p3819
F30.0
sVhpregen
p3820
F6.92
sVhpperlevel
p3821
F84.0
ssg25
(dp3822
Vstats
p3823
g3801
sVname
p3824
VLissandra
p3825
sVtitle
p3826
Vthe Ice Witch
p3827
sVtags
p3828
(lp3829
VMage
p3830
asVkey
p3831
VLissandra
p3832
sVid
p3833
I127
ssg38
S'Lissandra'
p3834
sg40
g3829
sbsI131
(i__main__
Champion
p3835
(dp3836
g3
(dp3837
Varmorperlevel
p3838
F3.6
sVattackdamage
p3839
F53.04
sVmpperlevel
p3840
F40.0
sVattackspeedoffset
p3841
F0.0
sVmp
p3842
F297.2
sVarmor
p3843
F26.048
sVhp
p3844
F589.2
sVhpregenperlevel
p3845
F0.85
sVattackspeedperlevel
p3846
F2.25
sVattackrange
p3847
F150.0
sVmovespeed
p3848
F345.0
sVattackdamageperlevel
p3849
F3.0
sVmpregenperlevel
p3850
F0.8
sVcritperlevel
p3851
F0.0
sVspellblockperlevel
p3852
F1.25
sVcrit
p3853
F0.0
sVmpregen
p3854
F6.0
sVspellblock
p3855
F32.1
sVhpregen
p3856
F7.425
sVhpperlevel
p3857
F90.0
ssg25
(dp3858
Vstats
p3859
g3837
sVname
p3860
VDiana
p3861
sVtitle
p3862
VScorn of the Moon
p3863
sVtags
p3864
(lp3865
VFighter
p3866
aVMage
p3867
asVkey
p3868
VDiana
p3869
sVid
p3870
I131
ssg38
S'Diana'
p3871
sg40
g3865
sbsI133
(i__main__
Champion
p3872
(dp3873
g3
(dp3874
Varmorperlevel
p3875
F3.5
sVattackdamage
p3876
F56.46
sVmpperlevel
p3877
F35.0
sVattackspeedoffset
p3878
F-0.065
sVmp
p3879
F268.8
sVarmor
p3880
F23.38
sVhp
p3881
F532.8
sVhpregenperlevel
p3882
F0.55
sVattackspeedperlevel
p3883
F3.1
sVattackrange
p3884
F525.0
sVmovespeed
p3885
F335.0
sVattackdamageperlevel
p3886
F2.41
sVmpregenperlevel
p3887
F0.4
sVcritperlevel
p3888
F0.0
sVspellblockperlevel
p3889
F0.0
sVcrit
p3890
F0.0
sVmpregen
p3891
F6.97
sVspellblock
p3892
F30.0
sVhpregen
p3893
F5.42
sVhpperlevel
p3894
F85.0
ssg25
(dp3895
Vstats
p3896
g3874
sVname
p3897
VQuinn
p3898
sVtitle
p3899
VDemacia's Wings
p3900
sVtags
p3901
(lp3902
VMarksman
p3903
aVFighter
p3904
asVkey
p3905
VQuinn
p3906
sVid
p3907
I133
ssg38
S'Quinn'
p3908
sg40
g3902
sbsI134
(i__main__
Champion
p3909
(dp3910
g3
(dp3911
Varmorperlevel
p3912
F3.4
sVattackdamage
p3913
F53.872
sVmpperlevel
p3914
F60.0
sVattackspeedoffset
p3915
F0.0
sVmp
p3916
F384.0
sVarmor
p3917
F24.712
sVhp
p3918
F511.04
sVhpregenperlevel
p3919
F0.6
sVattackspeedperlevel
p3920
F2.0
sVattackrange
p3921
F550.0
sVmovespeed
p3922
F330.0
sVattackdamageperlevel
p3923
F2.9
sVmpregenperlevel
p3924
F0.8
sVcritperlevel
p3925
F0.0
sVspellblockperlevel
p3926
F0.0
sVcrit
p3927
F0.0
sVmpregen
p3928
F6.0
sVspellblock
p3929
F30.0
sVhpregen
p3930
F6.505
sVhpperlevel
p3931
F78.0
ssg25
(dp3932
Vstats
p3933
g3911
sVname
p3934
VSyndra
p3935
sVtitle
p3936
Vthe Dark Sovereign
p3937
sVtags
p3938
(lp3939
VMage
p3940
aVSupport
p3941
asVkey
p3942
VSyndra
p3943
sVid
p3944
I134
ssg38
S'Syndra'
p3945
sg40
g3939
sbsI143
(i__main__
Champion
p3946
(dp3947
g3
(dp3948
Varmorperlevel
p3949
F3.0
sVattackdamage
p3950
F53.376
sVmpperlevel
p3951
F50.0
sVattackspeedoffset
p3952
F0.0
sVmp
p3953
F334.0
sVarmor
p3954
F20.04
sVhp
p3955
F479.32
sVhpregenperlevel
p3956
F0.5
sVattackspeedperlevel
p3957
F2.11
sVattackrange
p3958
F575.0
sVmovespeed
p3959
F325.0
sVattackdamageperlevel
p3960
F3.2
sVmpregenperlevel
p3961
F0.8
sVcritperlevel
p3962
F0.0
sVspellblockperlevel
p3963
F0.0
sVcrit
p3964
F0.0
sVmpregen
p3965
F8.5
sVspellblock
p3966
F30.0
sVhpregen
p3967
F5.69
sVhpperlevel
p3968
F74.0
ssg25
(dp3969
Vstats
p3970
g3948
sVname
p3971
VZyra
p3972
sVtitle
p3973
VRise of the Thorns
p3974
sVtags
p3975
(lp3976
VMage
p3977
aVSupport
p3978
asVkey
p3979
VZyra
p3980
sVid
p3981
I143
ssg38
S'Zyra'
p3982
sg40
g3976
sbsI150
(i__main__
Champion
p3983
(dp3984
g3
(dp3985
Varmorperlevel
p3986
F2.5
sVattackdamage
p3987
F48.0
sVmpperlevel
p3988
F0.0
sVattackspeedoffset
p3989
F0.0
sVmp
p3990
F100.0
sVarmor
p3991
F23.0
sVhp
p3992
F540.0
sVhpregenperlevel
p3993
F0.5
sVattackspeedperlevel
p3994
F6.0
sVattackrange
p3995
F150.0
sVmovespeed
p3996
F325.0
sVattackdamageperlevel
p3997
F3.0
sVmpregenperlevel
p3998
F0.0
sVcritperlevel
p3999
F0.0
sVspellblockperlevel
p4000
F0.0
sVcrit
p4001
F0.0
sVmpregen
p4002
F0.0
sVspellblock
p4003
F30.0
sVhpregen
p4004
F2.5
sVhpperlevel
p4005
F65.0
ssg25
(dp4006
Vstats
p4007
g3985
sVname
p4008
VGnar
p4009
sVtitle
p4010
Vthe Missing Link
p4011
sVtags
p4012
(lp4013
VFighter
p4014
aVTank
p4015
asVkey
p4016
VGnar
p4017
sVid
p4018
I150
ssg38
S'Gnar'
p4019
sg40
g4013
sbsI154
(i__main__
Champion
p4020
(dp4021
g3
(dp4022
Varmorperlevel
p4023
F3.5
sVattackdamage
p4024
F59.67
sVmpperlevel
p4025
F0.0
sVattackspeedoffset
p4026
F-0.02
sVmp
p4027
F0.0
sVarmor
p4028
F23.88
sVhp
p4029
F614.6
sVhpregenperlevel
p4030
F0.55
sVattackspeedperlevel
p4031
F1.6
sVattackrange
p4032
F175.0
sVmovespeed
p4033
F335.0
sVattackdamageperlevel
p4034
F3.375
sVmpregenperlevel
p4035
F0.0
sVcritperlevel
p4036
F0.0
sVspellblockperlevel
p4037
F1.25
sVcrit
p4038
F0.0
sVmpregen
p4039
F0.0
sVspellblock
p4040
F32.1
sVhpregen
p4041
F7.92
sVhpperlevel
p4042
F95.0
ssg25
(dp4043
Vstats
p4044
g4022
sVname
p4045
VZac
p4046
sVtitle
p4047
Vthe Secret Weapon
p4048
sVtags
p4049
(lp4050
VTank
p4051
aVFighter
p4052
asVkey
p4053
VZac
p4054
sVid
p4055
I154
ssg38
S'Zac'
p4056
sg40
g4050
sbsI157
(i__main__
Champion
p4057
(dp4058
g3
(dp4059
Varmorperlevel
p4060
F3.4
sVattackdamage
p4061
F55.376
sVmpperlevel
p4062
F0.0
sVattackspeedoffset
p4063
F-0.05
sVmp
p4064
F100.0
sVarmor
p4065
F24.712
sVhp
p4066
F517.76
sVhpregenperlevel
p4067
F0.9
sVattackspeedperlevel
p4068
F3.2
sVattackrange
p4069
F175.0
sVmovespeed
p4070
F345.0
sVattackdamageperlevel
p4071
F3.2
sVmpregenperlevel
p4072
F0.0
sVcritperlevel
p4073
F0.0
sVspellblockperlevel
p4074
F0.0
sVcrit
p4075
F0.0
sVmpregen
p4076
F0.0
sVspellblock
p4077
F30.0
sVhpregen
p4078
F6.51
sVhpperlevel
p4079
F82.0
ssg25
(dp4080
Vstats
p4081
g4059
sVname
p4082
VYasuo
p4083
sVtitle
p4084
Vthe Unforgiven
p4085
sVtags
p4086
(lp4087
VFighter
p4088
aVAssassin
p4089
asVkey
p4090
VYasuo
p4091
sVid
p4092
I157
ssg38
S'Yasuo'
p4093
sg40
g4087
sbsI161
(i__main__
Champion
p4094
(dp4095
g3
(dp4096
Varmorperlevel
p4097
F3.5
sVattackdamage
p4098
F54.937875658
sVmpperlevel
p4099
F42.0
sVattackspeedoffset
p4100
F0.0
sVmp
p4101
F375.6
sVarmor
p4102
F21.88
sVhp
p4103
F507.68
sVhpregenperlevel
p4104
F0.55
sVattackspeedperlevel
p4105
F1.36
sVattackrange
p4106
F525.0
sVmovespeed
p4107
F340.0
sVattackdamageperlevel
p4108
F3.14159265359
sVmpregenperlevel
p4109
F0.8
sVcritperlevel
p4110
F0.0
sVspellblockperlevel
p4111
F0.0
sVcrit
p4112
F0.0
sVmpregen
p4113
F6.0
sVspellblock
p4114
F30.0
sVhpregen
p4115
F5.42
sVhpperlevel
p4116
F76.0
ssg25
(dp4117
Vstats
p4118
g4096
sVname
p4119
VVel'Koz
p4120
sVtitle
p4121
Vthe Eye of the Void
p4122
sVtags
p4123
(lp4124
VMage
p4125
asVkey
p4126
VVelkoz
p4127
sVid
p4128
I161
ssg38
S"Vel'Koz"
p4129
sg40
g4124
sbsI201
(i__main__
Champion
p4130
(dp4131
g3
(dp4132
Varmorperlevel
p4133
F4.5
sVattackdamage
p4134
F55.376
sVmpperlevel
p4135
F45.0
sVattackspeedoffset
p4136
F-0.03
sVmp
p4137
F310.6
sVarmor
p4138
F26.72
sVhp
p4139
F576.16
sVhpregenperlevel
p4140
F1.0
sVattackspeedperlevel
p4141
F3.5
sVattackrange
p4142
F125.0
sVmovespeed
p4143
F335.0
sVattackdamageperlevel
p4144
F3.2
sVmpregenperlevel
p4145
F0.8
sVcritperlevel
p4146
F0.0
sVspellblockperlevel
p4147
F1.25
sVcrit
p4148
F0.0
sVmpregen
p4149
F6.0
sVspellblock
p4150
F32.1
sVhpregen
p4151
F8.18
sVhpperlevel
p4152
F87.0
ssg25
(dp4153
Vstats
p4154
g4132
sVname
p4155
VBraum
p4156
sVtitle
p4157
Vthe Heart of the Freljord
p4158
sVtags
p4159
(lp4160
VSupport
p4161
aVTank
p4162
asVkey
p4163
VBraum
p4164
sVid
p4165
I201
ssg38
S'Braum'
p4166
sg40
g4160
sbsI203
(i__main__
Champion
p4167
(dp4168
g3
(dp4169
Varmorperlevel
p4170
F3.25
sVattackdamage
p4171
F54.0
sVmpperlevel
p4172
F35.0
sVattackspeedoffset
p4173
F0.0
sVmp
p4174
F300.0
sVarmor
p4175
F27.0
sVhp
p4176
F540.0
sVhpregenperlevel
p4177
F0.55
sVattackspeedperlevel
p4178
F2.5
sVattackrange
p4179
F500.0
sVmovespeed
p4180
F325.0
sVattackdamageperlevel
p4181
F1.7
sVmpregenperlevel
p4182
F0.4
sVcritperlevel
p4183
F0.0
sVspellblockperlevel
p4184
F0.0
sVcrit
p4185
F0.0
sVmpregen
p4186
F6.97
sVspellblock
p4187
F30.0
sVhpregen
p4188
F7.0
sVhpperlevel
p4189
F85.0
ssg25
(dp4190
Vstats
p4191
g4169
sVname
p4192
VKindred
p4193
sVtitle
p4194
VThe Eternal Hunters
p4195
sVtags
p4196
(lp4197
VMarksman
p4198
asVkey
p4199
VKindred
p4200
sVid
p4201
I203
ssg38
S'Kindred'
p4202
sg40
g4197
sbsI222
(i__main__
Champion
p4203
(dp4204
g3
(dp4205
Varmorperlevel
p4206
F3.5
sVattackdamage
p4207
F58.46
sVmpperlevel
p4208
F45.0
sVattackspeedoffset
p4209
F0.0
sVmp
p4210
F245.6
sVarmor
p4211
F22.88
sVhp
p4212
F517.76
sVhpregenperlevel
p4213
F0.5
sVattackspeedperlevel
p4214
F1.0
sVattackrange
p4215
F525.0
sVmovespeed
p4216
F325.0
sVattackdamageperlevel
p4217
F2.41
sVmpregenperlevel
p4218
F1.0
sVcritperlevel
p4219
F0.0
sVspellblockperlevel
p4220
F0.0
sVcrit
p4221
F0.0
sVmpregen
p4222
F6.68
sVspellblock
p4223
F30.0
sVhpregen
p4224
F5.84
sVhpperlevel
p4225
F82.0
ssg25
(dp4226
Vstats
p4227
g4205
sVname
p4228
VJinx
p4229
sVtitle
p4230
Vthe Loose Cannon
p4231
sVtags
p4232
(lp4233
VMarksman
p4234
asVkey
p4235
VJinx
p4236
sVid
p4237
I222
ssg38
S'Jinx'
p4238
sg40
g4233
sbsI223
(i__main__
Champion
p4239
(dp4240
g3
(dp4241
Varmorperlevel
p4242
F3.5
sVattackdamage
p4243
F56.0
sVmpperlevel
p4244
F40.0
sVattackspeedoffset
p4245
F0.0
sVmp
p4246
F325.0
sVarmor
p4247
F27.0
sVhp
p4248
F610.0
sVhpregenperlevel
p4249
F0.55
sVattackspeedperlevel
p4250
F2.5
sVattackrange
p4251
F175.0
sVmovespeed
p4252
F335.0
sVattackdamageperlevel
p4253
F3.2
sVmpregenperlevel
p4254
F1.0
sVcritperlevel
p4255
F0.0
sVspellblockperlevel
p4256
F1.25
sVcrit
p4257
F0.0
sVmpregen
p4258
F8.0
sVspellblock
p4259
F32.1
sVhpregen
p4260
F6.5
sVhpperlevel
p4261
F95.0
ssg25
(dp4262
Vstats
p4263
g4241
sVname
p4264
VTahm Kench
p4265
sVtitle
p4266
Vthe River King
p4267
sVtags
p4268
(lp4269
VSupport
p4270
aVTank
p4271
asVkey
p4272
VTahmKench
p4273
sVid
p4274
I223
ssg38
S'Tahm Kench'
p4275
sg40
g4269
sbsI236
(i__main__
Champion
p4276
(dp4277
g3
(dp4278
Varmorperlevel
p4279
F3.0
sVattackdamage
p4280
F57.46
sVmpperlevel
p4281
F38.0
sVattackspeedoffset
p4282
F-0.02
sVmp
p4283
F348.88
sVarmor
p4284
F24.04
sVhp
p4285
F554.4
sVhpregenperlevel
p4286
F0.65
sVattackspeedperlevel
p4287
F3.3
sVattackrange
p4288
F500.0
sVmovespeed
p4289
F335.0
sVattackdamageperlevel
p4290
F2.41
sVmpregenperlevel
p4291
F0.7
sVcritperlevel
p4292
F0.0
sVspellblockperlevel
p4293
F0.0
sVcrit
p4294
F0.0
sVmpregen
p4295
F8.175
sVspellblock
p4296
F30.0
sVhpregen
p4297
F6.19
sVhpperlevel
p4298
F80.0
ssg25
(dp4299
Vstats
p4300
g4278
sVname
p4301
VLucian
p4302
sVtitle
p4303
Vthe Purifier
p4304
sVtags
p4305
(lp4306
VMarksman
p4307
asVkey
p4308
VLucian
p4309
sVid
p4310
I236
ssg38
S'Lucian'
p4311
sg40
g4306
sbsI238
(i__main__
Champion
p4312
(dp4313
g3
(dp4314
Varmorperlevel
p4315
F3.5
sVattackdamage
p4316
F54.712
sVmpperlevel
p4317
F0.0
sVattackspeedoffset
p4318
F-0.03
sVmp
p4319
F200.0
sVarmor
p4320
F26.88
sVhp
p4321
F579.4
sVhpregenperlevel
p4322
F0.65
sVattackspeedperlevel
p4323
F2.1
sVattackrange
p4324
F125.0
sVmovespeed
p4325
F345.0
sVattackdamageperlevel
p4326
F3.4
sVmpregenperlevel
p4327
F0.0
sVcritperlevel
p4328
F0.0
sVspellblockperlevel
p4329
F1.25
sVcrit
p4330
F0.0
sVmpregen
p4331
F50.0
sVspellblock
p4332
F32.1
sVhpregen
p4333
F7.09
sVhpperlevel
p4334
F80.0
ssg25
(dp4335
Vstats
p4336
g4314
sVname
p4337
VZed
p4338
sVtitle
p4339
Vthe Master of Shadows
p4340
sVtags
p4341
(lp4342
VAssassin
p4343
aVFighter
p4344
asVkey
p4345
VZed
p4346
sVid
p4347
I238
ssg38
S'Zed'
p4348
sg40
g4342
sbsI245
(i__main__
Champion
p4349
(dp4350
g3
(dp4351
Varmorperlevel
p4352
F3.0
sVattackdamage
p4353
F59.0
sVmpperlevel
p4354
F50.0
sVattackspeedoffset
p4355
F0.0
sVmp
p4356
F280.0
sVarmor
p4357
F27.0
sVhp
p4358
F580.0
sVhpregenperlevel
p4359
F0.9
sVattackspeedperlevel
p4360
F3.3
sVattackrange
p4361
F125.0
sVmovespeed
p4362
F340.0
sVattackdamageperlevel
p4363
F3.0
sVmpregenperlevel
p4364
F0.8
sVcritperlevel
p4365
F0.0
sVspellblockperlevel
p4366
F1.25
sVcrit
p4367
F0.0
sVmpregen
p4368
F6.0
sVspellblock
p4369
F32.0
sVhpregen
p4370
F9.0
sVhpperlevel
p4371
F80.0
ssg25
(dp4372
Vstats
p4373
g4351
sVname
p4374
VEkko
p4375
sVtitle
p4376
Vthe Boy Who Shattered Time
p4377
sVtags
p4378
(lp4379
VAssassin
p4380
aVFighter
p4381
asVkey
p4382
VEkko
p4383
sVid
p4384
I245
ssg38
S'Ekko'
p4385
sg40
g4379
sbsI254
(i__main__
Champion
p4386
(dp4387
g3
(dp4388
Varmorperlevel
p4389
F3.5
sVattackdamage
p4390
F55.88
sVmpperlevel
p4391
F45.0
sVattackspeedoffset
p4392
F-0.03
sVmp
p4393
F295.6
sVarmor
p4394
F25.88
sVhp
p4395
F582.8
sVhpregenperlevel
p4396
F0.9
sVattackspeedperlevel
p4397
F2.5
sVattackrange
p4398
F125.0
sVmovespeed
p4399
F345.0
sVattackdamageperlevel
p4400
F3.5
sVmpregenperlevel
p4401
F0.65
sVcritperlevel
p4402
F0.0
sVspellblockperlevel
p4403
F1.25
sVcrit
p4404
F0.0
sVmpregen
p4405
F8.09
sVspellblock
p4406
F32.1
sVhpregen
p4407
F9.01
sVhpperlevel
p4408
F85.0
ssg25
(dp4409
Vstats
p4410
g4388
sVname
p4411
VVi
p4412
sVtitle
p4413
Vthe Piltover Enforcer
p4414
sVtags
p4415
(lp4416
VFighter
p4417
aVAssassin
p4418
asVkey
p4419
VVi
p4420
sVid
p4421
I254
ssg38
S'Vi'
p4422
sg40
g4416
sbsI266
(i__main__
Champion
p4423
(dp4424
g3
(dp4425
Varmorperlevel
p4426
F3.8
sVattackdamage
p4427
F60.376
sVmpperlevel
p4428
F45.0
sVattackspeedoffset
p4429
F-0.04
sVmp
p4430
F105.6
sVarmor
p4431
F24.384
sVhp
p4432
F537.8
sVhpregenperlevel
p4433
F0.5
sVattackspeedperlevel
p4434
F3.0
sVattackrange
p4435
F150.0
sVmovespeed
p4436
F345.0
sVattackdamageperlevel
p4437
F3.2
sVmpregenperlevel
p4438
F0.0
sVcritperlevel
p4439
F0.0
sVspellblockperlevel
p4440
F1.25
sVcrit
p4441
F0.0
sVmpregen
p4442
F0.0
sVspellblock
p4443
F32.1
sVhpregen
p4444
F6.59
sVhpperlevel
p4445
F85.0
ssg25
(dp4446
Vstats
p4447
g4425
sVname
p4448
VAatrox
p4449
sVtitle
p4450
Vthe Darkin Blade
p4451
sVtags
p4452
(lp4453
VFighter
p4454
aVTank
p4455
asVkey
p4456
VAatrox
p4457
sVid
p4458
I266
ssg38
S'Aatrox'
p4459
sg40
g4453
sbsI267
(i__main__
Champion
p4460
(dp4461
g3
(dp4462
Varmorperlevel
p4463
F4.0
sVattackdamage
p4464
F51.208
sVmpperlevel
p4465
F43.0
sVattackspeedoffset
p4466
F-0.03
sVmp
p4467
F377.24
sVarmor
p4468
F19.72
sVhp
p4469
F489.32
sVhpregenperlevel
p4470
F0.55
sVattackspeedperlevel
p4471
F2.61
sVattackrange
p4472
F550.0
sVmovespeed
p4473
F335.0
sVattackdamageperlevel
p4474
F3.1
sVmpregenperlevel
p4475
F0.4
sVcritperlevel
p4476
F0.0
sVspellblockperlevel
p4477
F0.0
sVcrit
p4478
F0.0
sVmpregen
p4479
F11.5
sVspellblock
p4480
F30.0
sVhpregen
p4481
F5.42
sVhpperlevel
p4482
F74.0
ssg25
(dp4483
Vstats
p4484
g4462
sVname
p4485
VNami
p4486
sVtitle
p4487
Vthe Tidecaller
p4488
sVtags
p4489
(lp4490
VSupport
p4491
aVMage
p4492
asVkey
p4493
VNami
p4494
sVid
p4495
I267
ssg38
S'Nami'
p4496
sg40
g4490
sbsI268
(i__main__
Champion
p4497
(dp4498
g3
(dp4499
Varmorperlevel
p4500
F3.0
sVattackdamage
p4501
F52.0
sVmpperlevel
p4502
F42.0
sVattackspeedoffset
p4503
F-0.02
sVmp
p4504
F350.56
sVarmor
p4505
F19.04
sVhp
p4506
F524.4
sVhpregenperlevel
p4507
F0.55
sVattackspeedperlevel
p4508
F1.5
sVattackrange
p4509
F525.0
sVmovespeed
p4510
F325.0
sVattackdamageperlevel
p4511
F2.8
sVmpregenperlevel
p4512
F0.8
sVcritperlevel
p4513
F0.0
sVspellblockperlevel
p4514
F0.0
sVcrit
p4515
F0.0
sVmpregen
p4516
F6.0
sVspellblock
p4517
F30.0
sVhpregen
p4518
F6.92
sVhpperlevel
p4519
F80.0
ssg25
(dp4520
Vstats
p4521
g4499
sVname
p4522
VAzir
p4523
sVtitle
p4524
Vthe Emperor of the Sands
p4525
sVtags
p4526
(lp4527
VMage
p4528
aVMarksman
p4529
asVkey
p4530
VAzir
p4531
sVid
p4532
I268
ssg38
S'Azir'
p4533
sg40
g4527
sbsI412
(i__main__
Champion
p4534
(dp4535
g3
(dp4536
Varmorperlevel
p4537
F0.0
sVattackdamage
p4538
F47.696
sVmpperlevel
p4539
F44.0
sVattackspeedoffset
p4540
F0.0
sVmp
p4541
F273.92
sVarmor
p4542
F16.0
sVhp
p4543
F560.52
sVhpregenperlevel
p4544
F0.55
sVattackspeedperlevel
p4545
F3.5
sVattackrange
p4546
F450.0
sVmovespeed
p4547
F335.0
sVattackdamageperlevel
p4548
F2.2
sVmpregenperlevel
p4549
F0.8
sVcritperlevel
p4550
F0.0
sVspellblockperlevel
p4551
F0.0
sVcrit
p4552
F0.0
sVmpregen
p4553
F6.0
sVspellblock
p4554
F30.0
sVhpregen
p4555
F6.92
sVhpperlevel
p4556
F93.0
ssg25
(dp4557
Vstats
p4558
g4536
sVname
p4559
VThresh
p4560
sVtitle
p4561
Vthe Chain Warden
p4562
sVtags
p4563
(lp4564
VSupport
p4565
aVFighter
p4566
asVkey
p4567
VThresh
p4568
sVid
p4569
I412
ssg38
S'Thresh'
p4570
sg40
g4564
sbsI420
(i__main__
Champion
p4571
(dp4572
g3
(dp4573
Varmorperlevel
p4574
F3.8
sVattackdamage
p4575
F60.0
sVmpperlevel
p4576
F40.0
sVattackspeedoffset
p4577
F0.0
sVmp
p4578
F300.0
sVarmor
p4579
F26.0
sVhp
p4580
F585.6
sVhpregenperlevel
p4581
F0.8
sVattackspeedperlevel
p4582
F2.5
sVattackrange
p4583
F125.0
sVmovespeed
p4584
F340.0
sVattackdamageperlevel
p4585
F5.0
sVmpregenperlevel
p4586
F0.75
sVcritperlevel
p4587
F0.0
sVspellblockperlevel
p4588
F1.25
sVcrit
p4589
F0.0
sVmpregen
p4590
F7.5
sVspellblock
p4591
F32.1
sVhpregen
p4592
F9.5
sVhpperlevel
p4593
F95.0
ssg25
(dp4594
Vstats
p4595
g4573
sVname
p4596
VIllaoi
p4597
sVtitle
p4598
Vthe Kraken Priestess
p4599
sVtags
p4600
(lp4601
VFighter
p4602
aVTank
p4603
asVkey
p4604
VIllaoi
p4605
sVid
p4606
I420
ssg38
S'Illaoi'
p4607
sg40
g4601
sbsI421
(i__main__
Champion
p4608
(dp4609
g3
(dp4610
Varmorperlevel
p4611
F3.75
sVattackdamage
p4612
F55.628
sVmpperlevel
p4613
F0.0
sVattackspeedoffset
p4614
F0.0
sVmp
p4615
F100.0
sVarmor
p4616
F28.3
sVhp
p4617
F570.0
sVhpregenperlevel
p4618
F0.65
sVattackspeedperlevel
p4619
F2.0
sVattackrange
p4620
F175.0
sVmovespeed
p4621
F335.0
sVattackdamageperlevel
p4622
F3.35
sVmpregenperlevel
p4623
F0.0
sVcritperlevel
p4624
F0.0
sVspellblockperlevel
p4625
F1.25
sVcrit
p4626
F0.0
sVmpregen
p4627
F0.0
sVspellblock
p4628
F32.1
sVhpregen
p4629
F7.34
sVhpperlevel
p4630
F90.0
ssg25
(dp4631
Vstats
p4632
g4610
sVname
p4633
VRek'Sai
p4634
sVtitle
p4635
Vthe Void Burrower
p4636
sVtags
p4637
(lp4638
VFighter
p4639
asVkey
p4640
VRekSai
p4641
sVid
p4642
I421
ssg38
S"Rek'Sai"
p4643
sg40
g4638
sbsI429
(i__main__
Champion
p4644
(dp4645
g3
(dp4646
Varmorperlevel
p4647
F3.5
sVattackdamage
p4648
F62.92
sVmpperlevel
p4649
F35.0
sVattackspeedoffset
p4650
F-0.1
sVmp
p4651
F231.8
sVarmor
p4652
F19.012
sVhp
p4653
F517.76
sVhpregenperlevel
p4654
F0.55
sVattackspeedperlevel
p4655
F2.8
sVattackrange
p4656
F550.0
sVmovespeed
p4657
F325.0
sVattackdamageperlevel
p4658
F2.91
sVmpregenperlevel
p4659
F0.4
sVcritperlevel
p4660
F0.0
sVspellblockperlevel
p4661
F0.0
sVcrit
p4662
F0.0
sVmpregen
p4663
F6.3
sVspellblock
p4664
F30.0
sVhpregen
p4665
F6.0
sVhpperlevel
p4666
F83.0
ssg25
(dp4667
Vstats
p4668
g4646
sVname
p4669
VKalista
p4670
sVtitle
p4671
Vthe Spear of Vengeance
p4672
sVtags
p4673
(lp4674
VMarksman
p4675
asVkey
p4676
VKalista
p4677
sVid
p4678
I429
ssg38
S'Kalista'
p4679
sg40
g4674
sbsI432
(i__main__
Champion
p4680
(dp4681
g3
(dp4682
Varmorperlevel
p4683
F4.0
sVattackdamage
p4684
F52.0
sVmpperlevel
p4685
F50.0
sVattackspeedoffset
p4686
F0.0
sVmp
p4687
F350.0
sVarmor
p4688
F25.0
sVhp
p4689
F535.0
sVhpregenperlevel
p4690
F0.55
sVattackspeedperlevel
p4691
F2.0
sVattackrange
p4692
F500.0
sVmovespeed
p4693
F330.0
sVattackdamageperlevel
p4694
F3.0
sVmpregenperlevel
p4695
F0.45
sVcritperlevel
p4696
F0.0
sVspellblockperlevel
p4697
F0.0
sVcrit
p4698
F0.0
sVmpregen
p4699
F6.0
sVspellblock
p4700
F30.0
sVhpregen
p4701
F5.4
sVhpperlevel
p4702
F89.0
ssg25
(dp4703
Vstats
p4704
g4682
sVname
p4705
VBard
p4706
sVtitle
p4707
Vthe Wandering Caretaker
p4708
sVtags
p4709
(lp4710
VSupport
p4711
aVMage
p4712
asVkey
p4713
VBard
p4714
sVid
p4715
I432
ssg38
S'Bard'
p4716
sg40
g4710
sbs.