(lp0
(i__main__
Champion
p1
(dp2
S'stats'
p3
(dp4
Varmorperlevel
p5
F3.5
sVattackdamage
p6
F59.876
sVmpperlevel
p7
F38.0
sVattackspeedoffset
p8
F-0.05
sVmp
p9
F265.84
sVarmor
p10
F24.88
sVhp
p11
F577.8
sVhpregenperlevel
p12
F0.65
sVattackspeedperlevel
p13
F3.0
sVattackrange
p14
F175.0
sVmovespeed
p15
F345.0
sVattackdamageperlevel
p16
F3.2
sVmpregenperlevel
p17
F0.65
sVcritperlevel
p18
F0.0
sVspellblockperlevel
p19
F1.25
sVcrit
p20
F0.0
sVmpregen
p21
F8.04
sVspellblock
p22
F32.1
sVhpregen
p23
F6.19
sVhpperlevel
p24
F85.0
ssS'data'
p25
(dp26
Vstats
p27
g4
sVname
p28
VWukong
p29
sVtitle
p30
Vthe Monkey King
p31
sVtags
p32
(lp33
VFighter
p34
aVTank
p35
asVkey
p36
VMonkeyKing
p37
sVid
p38
I62
ssS'name'
p39
S'Wukong'
p40
sS'tags'
p41
g33
sba(i__main__
Champion
p42
(dp43
g3
(dp44
Varmorperlevel
p45
F3.0
sVattackdamage
p46
F61.97
sVmpperlevel
p47
F32.0
sVattackspeedoffset
p48
F-0.02
sVmp
p49
F338.8
sVarmor
p50
F27.04
sVhp
p51
F592.8
sVhpregenperlevel
p52
F0.55
sVattackspeedperlevel
p53
F3.4
sVattackrange
p54
F125.0
sVmovespeed
p55
F350.0
sVattackdamageperlevel
p56
F3.375
sVmpregenperlevel
p57
F0.7
sVcritperlevel
p58
F0.0
sVspellblockperlevel
p59
F1.25
sVcrit
p60
F0.0
sVmpregen
p61
F7.575
sVspellblock
p62
F32.1
sVhpregen
p63
F8.37
sVhpperlevel
p64
F85.0
ssg25
(dp65
Vstats
p66
g44
sVname
p67
VJax
p68
sVtitle
p69
VGrandmaster at Arms
p70
sVtags
p71
(lp72
VFighter
p73
aVAssassin
p74
asVkey
p75
VJax
p76
sVid
p77
I24
ssg39
S'Jax'
p78
sg41
g72
sba(i__main__
Champion
p79
(dp80
g3
(dp81
Varmorperlevel
p82
F3.5
sVattackdamage
p83
F57.58
sVmpperlevel
p84
F40.0
sVattackspeedoffset
p85
F-0.1
sVmp
p86
F297.2
sVarmor
p87
F24.88
sVhp
p88
F582.12
sVhpregenperlevel
p89
F0.55
sVattackspeedperlevel
p90
F3.0
sVattackrange
p91
F125.0
sVmovespeed
p92
F350.0
sVattackdamageperlevel
p93
F3.5
sVmpregenperlevel
p94
F0.45
sVcritperlevel
p95
F0.0
sVspellblockperlevel
p96
F1.25
sVcrit
p97
F0.0
sVmpregen
p98
F7.155
sVspellblock
p99
F32.1
sVhpregen
p100
F8.37
sVhpperlevel
p101
F84.0
ssg25
(dp102
Vstats
p103
g81
sVname
p104
VShaco
p105
sVtitle
p106
Vthe Demon Jester
p107
sVtags
p108
(lp109
VAssassin
p110
asVkey
p111
VShaco
p112
sVid
p113
I35
ssg39
S'Shaco'
p114
sg41
g109
sba(i__main__
Champion
p115
(dp116
g3
(dp117
Varmorperlevel
p118
F3.5
sVattackdamage
p119
F62.43
sVmpperlevel
p120
F30.0
sVattackspeedoffset
p121
F-0.08
sVmp
p122
F240.4
sVarmor
p123
F25.88
sVhp
p124
F592.64
sVhpregenperlevel
p125
F0.8
sVattackspeedperlevel
p126
F2.88
sVattackrange
p127
F125.0
sVmovespeed
p128
F345.0
sVattackdamageperlevel
p129
F3.375
sVmpregenperlevel
p130
F0.6
sVcritperlevel
p131
F0.0
sVspellblockperlevel
p132
F1.25
sVcrit
p133
F0.0
sVmpregen
p134
F8.105
sVspellblock
p135
F32.1
sVhpregen
p136
F8.39
sVhpperlevel
p137
F98.0
ssg25
(dp138
Vstats
p139
g117
sVname
p140
VWarwick
p141
sVtitle
p142
Vthe Blood Hunter
p143
sVtags
p144
(lp145
VFighter
p146
aVTank
p147
asVkey
p148
VWarwick
p149
sVid
p150
I19
ssg39
S'Warwick'
p151
sg41
g145
sba(i__main__
Champion
p152
(dp153
g3
(dp154
Varmorperlevel
p155
F3.5
sVattackdamage
p156
F47.88
sVmpperlevel
p157
F45.0
sVattackspeedoffset
p158
F-0.02
sVmp
p159
F295.6
sVarmor
p160
F22.88
sVhp
p161
F511.2
sVhpregenperlevel
p162
F0.6
sVattackspeedperlevel
p163
F3.22
sVattackrange
p164
F525.0
sVmovespeed
p165
F335.0
sVattackdamageperlevel
p166
F3.5
sVmpregenperlevel
p167
F0.8
sVcritperlevel
p168
F0.0
sVspellblockperlevel
p169
F0.0
sVcrit
p170
F0.0
sVmpregen
p171
F6.0
sVspellblock
p172
F30.0
sVhpregen
p173
F6.005
sVhpperlevel
p174
F80.0
ssg25
(dp175
Vstats
p176
g154
sVname
p177
VNidalee
p178
sVtitle
p179
Vthe Bestial Huntress
p180
sVtags
p181
(lp182
VAssassin
p183
aVFighter
p184
asVkey
p185
VNidalee
p186
sVid
p187
I76
ssg39
S'Nidalee'
p188
sg41
g182
sba(i__main__
Champion
p189
(dp190
g3
(dp191
Varmorperlevel
p192
F3.0
sVattackdamage
p193
F53.376
sVmpperlevel
p194
F50.0
sVattackspeedoffset
p195
F0.0
sVmp
p196
F334.0
sVarmor
p197
F20.04
sVhp
p198
F479.32
sVhpregenperlevel
p199
F0.5
sVattackspeedperlevel
p200
F2.11
sVattackrange
p201
F575.0
sVmovespeed
p202
F325.0
sVattackdamageperlevel
p203
F3.2
sVmpregenperlevel
p204
F0.8
sVcritperlevel
p205
F0.0
sVspellblockperlevel
p206
F0.0
sVcrit
p207
F0.0
sVmpregen
p208
F8.5
sVspellblock
p209
F30.0
sVhpregen
p210
F5.69
sVhpperlevel
p211
F74.0
ssg25
(dp212
Vstats
p213
g191
sVname
p214
VZyra
p215
sVtitle
p216
VRise of the Thorns
p217
sVtags
p218
(lp219
VMage
p220
aVSupport
p221
asVkey
p222
VZyra
p223
sVid
p224
I143
ssg39
S'Zyra'
p225
sg41
g219
sba(i__main__
Champion
p226
(dp227
g3
(dp228
Varmorperlevel
p229
F3.5
sVattackdamage
p230
F57.04
sVmpperlevel
p231
F42.0
sVattackspeedoffset
p232
F0.0
sVmp
p233
F375.6
sVarmor
p234
F21.88
sVhp
p235
F507.68
sVhpregenperlevel
p236
F0.55
sVattackspeedperlevel
p237
F1.36
sVattackrange
p238
F550.0
sVmovespeed
p239
F340.0
sVattackdamageperlevel
p240
F3.0
sVmpregenperlevel
p241
F0.6
sVcritperlevel
p242
F0.0
sVspellblockperlevel
p243
F0.0
sVcrit
p244
F0.0
sVmpregen
p245
F8.005
sVspellblock
p246
F30.0
sVhpregen
p247
F5.42
sVhpperlevel
p248
F76.0
ssg25
(dp249
Vstats
p250
g228
sVname
p251
VBrand
p252
sVtitle
p253
Vthe Burning Vengeance
p254
sVtags
p255
(lp256
VMage
p257
asVkey
p258
VBrand
p259
sVid
p260
I63
ssg39
S'Brand'
p261
sg41
g256
sba(i__main__
Champion
p262
(dp263
g3
(dp264
Varmorperlevel
p265
F4.3
sVattackdamage
p266
F55.88
sVmpperlevel
p267
F33.0
sVattackspeedoffset
p268
F0.0
sVmp
p269
F310.44
sVarmor
p270
F31.384
sVhp
p271
F564.48
sVhpregenperlevel
p272
F0.55
sVattackspeedperlevel
p273
F2.215
sVattackrange
p274
F125.0
sVmovespeed
p275
F335.0
sVattackdamageperlevel
p276
F3.5
sVmpregenperlevel
p277
F0.5
sVcritperlevel
p278
F0.0
sVspellblockperlevel
p279
F1.25
sVcrit
p280
F0.0
sVmpregen
p281
F7.84
sVspellblock
p282
F32.1
sVhpregen
p283
F7.92
sVhpperlevel
p284
F86.0
ssg25
(dp285
Vstats
p286
g264
sVname
p287
VRammus
p288
sVtitle
p289
Vthe Armordillo
p290
sVtags
p291
(lp292
VTank
p293
aVFighter
p294
asVkey
p295
VRammus
p296
sVid
p297
I33
ssg39
S'Rammus'
p298
sg41
g292
sba(i__main__
Champion
p299
(dp300
g3
(dp301
Varmorperlevel
p302
F3.5
sVattackdamage
p303
F56.0
sVmpperlevel
p304
F34.0
sVattackspeedoffset
p305
F0.0
sVmp
p306
F350.16
sVarmor
p307
F23.38
sVhp
p308
F512.76
sVhpregenperlevel
p309
F0.55
sVattackspeedperlevel
p310
F2.3
sVattackrange
p311
F550.0
sVmovespeed
p312
F325.0
sVattackdamageperlevel
p313
F2.5
sVmpregenperlevel
p314
F0.55
sVcritperlevel
p315
F0.0
sVspellblockperlevel
p316
F0.0
sVcrit
p317
F0.0
sVmpregen
p318
F7.42
sVspellblock
p319
F30.0
sVhpregen
p320
F5.42
sVhpperlevel
p321
F82.0
ssg25
(dp322
Vstats
p323
g301
sVname
p324
VCorki
p325
sVtitle
p326
Vthe Daring Bombardier
p327
sVtags
p328
(lp329
VMarksman
p330
asVkey
p331
VCorki
p332
sVid
p333
I42
ssg39
S'Corki'
p334
sg41
g329
sba(i__main__
Champion
p335
(dp336
g3
(dp337
Varmorperlevel
p338
F4.5
sVattackdamage
p339
F55.376
sVmpperlevel
p340
F45.0
sVattackspeedoffset
p341
F-0.03
sVmp
p342
F310.6
sVarmor
p343
F26.72
sVhp
p344
F576.16
sVhpregenperlevel
p345
F1.0
sVattackspeedperlevel
p346
F3.5
sVattackrange
p347
F125.0
sVmovespeed
p348
F335.0
sVattackdamageperlevel
p349
F3.2
sVmpregenperlevel
p350
F0.8
sVcritperlevel
p351
F0.0
sVspellblockperlevel
p352
F1.25
sVcrit
p353
F0.0
sVmpregen
p354
F6.0
sVspellblock
p355
F32.1
sVhpregen
p356
F8.18
sVhpperlevel
p357
F87.0
ssg25
(dp358
Vstats
p359
g337
sVname
p360
VBraum
p361
sVtitle
p362
Vthe Heart of the Freljord
p363
sVtags
p364
(lp365
VSupport
p366
aVTank
p367
asVkey
p368
VBraum
p369
sVid
p370
I201
ssg39
S'Braum'
p371
sg41
g365
sba(i__main__
Champion
p372
(dp373
g3
(dp374
Varmorperlevel
p375
F4.0
sVattackdamage
p376
F51.376
sVmpperlevel
p377
F50.0
sVattackspeedoffset
p378
F0.0
sVmp
p379
F396.04
sVarmor
p380
F21.22
sVhp
p381
F467.6
sVhpregenperlevel
p382
F0.55
sVattackspeedperlevel
p383
F1.68
sVattackrange
p384
F600.0
sVmovespeed
p385
F325.0
sVattackdamageperlevel
p386
F3.2
sVmpregenperlevel
p387
F0.8
sVcritperlevel
p388
F0.0
sVspellblockperlevel
p389
F0.0
sVcrit
p390
F0.0
sVmpregen
p391
F6.0
sVspellblock
p392
F30.0
sVhpregen
p393
F5.57
sVhpperlevel
p394
F70.0
ssg25
(dp395
Vstats
p396
g374
sVname
p397
VAnivia
p398
sVtitle
p399
Vthe Cryophoenix
p400
sVtags
p401
(lp402
VMage
p403
aVSupport
p404
asVkey
p405
VAnivia
p406
sVid
p407
I34
ssg39
S'Anivia'
p408
sg41
g402
sba(i__main__
Champion
p409
(dp410
g3
(dp411
Varmorperlevel
p412
F3.1
sVattackdamage
p413
F61.376
sVmpperlevel
p414
F0.0
sVattackspeedoffset
p415
F-0.0672
sVmp
p416
F100.0
sVarmor
p417
F24.108
sVhp
p418
F625.64
sVhpregenperlevel
p419
F0.9
sVattackspeedperlevel
p420
F2.9
sVattackrange
p421
F125.0
sVmovespeed
p422
F345.0
sVattackdamageperlevel
p423
F3.2
sVmpregenperlevel
p424
F0.0
sVcritperlevel
p425
F0.0
sVspellblockperlevel
p426
F1.25
sVcrit
p427
F0.0
sVmpregen
p428
F0.0
sVspellblock
p429
F32.1
sVhpregen
p430
F8.51
sVhpperlevel
p431
F98.0
ssg25
(dp432
Vstats
p433
g411
sVname
p434
VTryndamere
p435
sVtitle
p436
Vthe Barbarian King
p437
sVtags
p438
(lp439
VFighter
p440
aVAssassin
p441
asVkey
p442
VTryndamere
p443
sVid
p444
I23
ssg39
S'Tryndamere'
p445
sg41
g439
sba(i__main__
Champion
p446
(dp447
g3
(dp448
Varmorperlevel
p449
F3.0
sVattackdamage
p450
F46.0
sVmpperlevel
p451
F35.0
sVattackspeedoffset
p452
F-0.04734
sVmp
p453
F325.84
sVarmor
p454
F24.04
sVhp
p455
F577.8
sVhpregenperlevel
p456
F0.65
sVattackspeedperlevel
p457
F3.0
sVattackrange
p458
F550.0
sVmovespeed
p459
F325.0
sVattackdamageperlevel
p460
F1.0
sVmpregenperlevel
p461
F0.65
sVcritperlevel
p462
F0.0
sVspellblockperlevel
p463
F0.0
sVcrit
p464
F0.0
sVmpregen
p465
F8.04
sVspellblock
p466
F30.0
sVhpregen
p467
F6.19
sVhpperlevel
p468
F85.0
ssg25
(dp469
Vstats
p470
g448
sVname
p471
VMiss Fortune
p472
sVtitle
p473
Vthe Bounty Hunter
p474
sVtags
p475
(lp476
VMarksman
p477
asVkey
p478
VMissFortune
p479
sVid
p480
I21
ssg39
S'Miss Fortune'
p481
sg41
g476
sba(i__main__
Champion
p482
(dp483
g3
(dp484
Varmorperlevel
p485
F4.0
sVattackdamage
p486
F61.54
sVmpperlevel
p487
F40.0
sVattackspeedoffset
p488
F0.0
sVmp
p489
F267.2
sVarmor
p490
F24.38
sVhp
p491
F582.6
sVhpregenperlevel
p492
F0.75
sVattackspeedperlevel
p493
F1.13
sVattackrange
p494
F125.0
sVmovespeed
p495
F325.0
sVattackdamageperlevel
p496
F3.5
sVmpregenperlevel
p497
F0.8
sVcritperlevel
p498
F0.0
sVspellblockperlevel
p499
F1.25
sVcrit
p500
F0.0
sVmpregen
p501
F8.5
sVspellblock
p502
F32.1
sVhpregen
p503
F8.51
sVhpperlevel
p504
F95.0
ssg25
(dp505
Vstats
p506
g484
sVname
p507
VBlitzcrank
p508
sVtitle
p509
Vthe Great Steam Golem
p510
sVtags
p511
(lp512
VTank
p513
aVFighter
p514
asVkey
p515
VBlitzcrank
p516
sVid
p517
I53
ssg39
S'Blitzcrank'
p518
sg41
g512
sba(i__main__
Champion
p519
(dp520
g3
(dp521
Varmorperlevel
p522
F3.6
sVattackdamage
p523
F57.58
sVmpperlevel
p524
F35.0
sVattackspeedoffset
p525
F0.0
sVmp
p526
F293.8
sVarmor
p527
F25.048
sVhp
p528
F563.8
sVhpregenperlevel
p529
F0.7
sVattackspeedperlevel
p530
F3.0
sVattackrange
p531
F125.0
sVmovespeed
p532
F345.0
sVattackdamageperlevel
p533
F3.5
sVmpregenperlevel
p534
F0.45
sVcritperlevel
p535
F0.0
sVspellblockperlevel
p536
F1.25
sVcrit
p537
F0.0
sVmpregen
p538
F6.755
sVspellblock
p539
F32.1
sVhpregen
p540
F8.175
sVhpperlevel
p541
F85.0
ssg25
(dp542
Vstats
p543
g521
sVname
p544
VYorick
p545
sVtitle
p546
Vthe Gravedigger
p547
sVtags
p548
(lp549
VFighter
p550
aVMage
p551
asVkey
p552
VYorick
p553
sVid
p554
I83
ssg39
S'Yorick'
p555
sg41
g549
sba(i__main__
Champion
p556
(dp557
g3
(dp558
Varmorperlevel
p559
F3.5
sVattackdamage
p560
F54.7
sVmpperlevel
p561
F44.0
sVattackspeedoffset
p562
F0.0
sVmp
p563
F366.96
sVarmor
p564
F21.88
sVhp
p565
F514.4
sVhpregenperlevel
p566
F0.55
sVattackspeedperlevel
p567
F1.36
sVattackrange
p568
F525.0
sVmovespeed
p569
F340.0
sVattackdamageperlevel
p570
F3.0
sVmpregenperlevel
p571
F0.8
sVcritperlevel
p572
F0.0
sVspellblockperlevel
p573
F0.0
sVcrit
p574
F0.0
sVmpregen
p575
F6.0
sVspellblock
p576
F30.0
sVhpregen
p577
F5.42
sVhpperlevel
p578
F80.0
ssg25
(dp579
Vstats
p580
g558
sVname
p581
VXerath
p582
sVtitle
p583
Vthe Magus Ascendant
p584
sVtags
p585
(lp586
VMage
p587
aVAssassin
p588
asVkey
p589
VXerath
p590
sVid
p591
I101
ssg39
S'Xerath'
p592
sg41
g586
sba(i__main__
Champion
p593
(dp594
g3
(dp595
Varmorperlevel
p596
F3.25
sVattackdamage
p597
F57.46
sVmpperlevel
p598
F50.0
sVattackspeedoffset
p599
F0.0
sVmp
p600
F284.0
sVarmor
p601
F22.21
sVhp
p602
F515.76
sVhpregenperlevel
p603
F0.55
sVattackspeedperlevel
p604
F1.6
sVattackrange
p605
F500.0
sVmovespeed
p606
F335.0
sVattackdamageperlevel
p607
F2.41
sVmpregenperlevel
p608
F0.9
sVcritperlevel
p609
F0.0
sVspellblockperlevel
p610
F0.0
sVcrit
p611
F0.0
sVmpregen
p612
F8.01
sVspellblock
p613
F30.0
sVhpregen
p614
F5.17
sVhpperlevel
p615
F82.0
ssg25
(dp616
Vstats
p617
g595
sVname
p618
VSivir
p619
sVtitle
p620
Vthe Battle Mistress
p621
sVtags
p622
(lp623
VMarksman
p624
asVkey
p625
VSivir
p626
sVid
p627
I15
ssg39
S'Sivir'
p628
sg41
g623
sba(i__main__
Champion
p629
(dp630
g3
(dp631
Varmorperlevel
p632
F3.2
sVattackdamage
p633
F56.04
sVmpperlevel
p634
F0.0
sVattackspeedoffset
p635
F0.0
sVmp
p636
F0.0
sVarmor
p637
F24.376
sVhp
p638
F558.48
sVhpregenperlevel
p639
F0.5
sVattackspeedperlevel
p640
F3.5
sVattackrange
p641
F125.0
sVmovespeed
p642
F340.0
sVattackdamageperlevel
p643
F3.0
sVmpregenperlevel
p644
F0.0
sVcritperlevel
p645
F0.0
sVspellblockperlevel
p646
F1.25
sVcrit
p647
F0.0
sVmpregen
p648
F0.0
sVspellblock
p649
F32.1
sVhpregen
p650
F3.34
sVhpperlevel
p651
F86.0
ssg25
(dp652
Vstats
p653
g631
sVname
p654
VRiven
p655
sVtitle
p656
Vthe Exile
p657
sVtags
p658
(lp659
VFighter
p660
aVAssassin
p661
asVkey
p662
VRiven
p663
sVid
p664
I92
ssg39
S'Riven'
p665
sg41
g659
sba(i__main__
Champion
p666
(dp667
g3
(dp668
Varmorperlevel
p669
F3.0
sVattackdamage
p670
F40.368
sVmpperlevel
p671
F50.0
sVattackspeedoffset
p672
F-0.05
sVmp
p673
F334.0
sVarmor
p674
F17.04
sVhp
p675
F517.72
sVhpregenperlevel
p676
F0.55
sVattackspeedperlevel
p677
F3.5
sVattackrange
p678
F525.0
sVmovespeed
p679
F325.0
sVattackdamageperlevel
p680
F2.6
sVmpregenperlevel
p681
F0.8
sVcritperlevel
p682
F0.0
sVspellblockperlevel
p683
F0.0
sVcrit
p684
F0.0
sVmpregen
p685
F6.0
sVspellblock
p686
F30.0
sVhpregen
p687
F6.87
sVhpperlevel
p688
F79.0
ssg25
(dp689
Vstats
p690
g668
sVname
p691
VOrianna
p692
sVtitle
p693
Vthe Lady of Clockwork
p694
sVtags
p695
(lp696
VMage
p697
aVSupport
p698
asVkey
p699
VOrianna
p700
sVid
p701
I61
ssg39
S'Orianna'
p702
sg41
g696
sba(i__main__
Champion
p703
(dp704
g3
(dp705
Varmorperlevel
p706
F3.0
sVattackdamage
p707
F56.0
sVmpperlevel
p708
F40.0
sVattackspeedoffset
p709
F0.0
sVmp
p710
F282.0
sVarmor
p711
F26.0
sVhp
p712
F580.0
sVhpregenperlevel
p713
F0.6
sVattackspeedperlevel
p714
F3.2
sVattackrange
p715
F125.0
sVmovespeed
p716
F345.0
sVattackdamageperlevel
p717
F3.0
sVmpregenperlevel
p718
F0.7
sVcritperlevel
p719
F0.0
sVspellblockperlevel
p720
F1.25
sVcrit
p721
F0.0
sVmpregen
p722
F7.5
sVspellblock
p723
F32.1
sVhpregen
p724
F6.0
sVhpperlevel
p725
F82.0
ssg25
(dp726
Vstats
p727
g705
sVname
p728
VGangplank
p729
sVtitle
p730
Vthe Saltwater Scourge
p731
sVtags
p732
(lp733
VFighter
p734
asVkey
p735
VGangplank
p736
sVid
p737
I41
ssg39
S'Gangplank'
p738
sg41
g733
sba(i__main__
Champion
p739
(dp740
g3
(dp741
Varmorperlevel
p742
F3.75
sVattackdamage
p743
F61.97
sVmpperlevel
p744
F40.0
sVattackspeedoffset
p745
F-0.02
sVmp
p746
F282.2
sVarmor
p747
F28.3
sVhp
p748
F574.2
sVhpregenperlevel
p749
F0.55
sVattackspeedperlevel
p750
F3.4
sVattackrange
p751
F125.0
sVmovespeed
p752
F335.0
sVattackdamageperlevel
p753
F3.375
sVmpregenperlevel
p754
F0.55
sVcritperlevel
p755
F0.0
sVspellblockperlevel
p756
F1.25
sVcrit
p757
F0.0
sVmpregen
p758
F7.32
sVspellblock
p759
F32.1
sVhpregen
p760
F8.37
sVhpperlevel
p761
F90.0
ssg25
(dp762
Vstats
p763
g741
sVname
p764
VMalphite
p765
sVtitle
p766
VShard of the Monolith
p767
sVtags
p768
(lp769
VTank
p770
aVFighter
p771
asVkey
p772
VMalphite
p773
sVid
p774
I54
ssg39
S'Malphite'
p775
sg41
g769
sba(i__main__
Champion
p776
(dp777
g3
(dp778
Varmorperlevel
p779
F4.0
sVattackdamage
p780
F61.97
sVmpperlevel
p781
F30.0
sVattackspeedoffset
p782
F-0.02
sVmp
p783
F235.4
sVarmor
p784
F28.72
sVhp
p785
F559.08
sVhpregenperlevel
p786
F0.55
sVattackspeedperlevel
p787
F3.35
sVattackrange
p788
F125.0
sVmovespeed
p789
F345.0
sVattackdamageperlevel
p790
F3.375
sVmpregenperlevel
p791
F0.45
sVcritperlevel
p792
F0.0
sVspellblockperlevel
p793
F0.0
sVcrit
p794
F0.0
sVmpregen
p795
F7.155
sVspellblock
p796
F30.0
sVhpregen
p797
F8.37
sVhpperlevel
p798
F81.0
ssg25
(dp799
Vstats
p800
g778
sVname
p801
VPoppy
p802
sVtitle
p803
Vthe Iron Ambassador
p804
sVtags
p805
(lp806
VFighter
p807
aVAssassin
p808
asVkey
p809
VPoppy
p810
sVid
p811
I78
ssg39
S'Poppy'
p812
sg41
g806
sba(i__main__
Champion
p813
(dp814
g3
(dp815
Varmorperlevel
p816
F3.5
sVattackdamage
p817
F45.66
sVmpperlevel
p818
F61.0
sVattackspeedoffset
p819
F0.0
sVmp
p820
F372.48
sVarmor
p821
F20.88
sVhp
p822
F516.0
sVhpregenperlevel
p823
F0.55
sVattackspeedperlevel
p824
F2.11
sVattackrange
p825
F450.0
sVmovespeed
p826
F335.0
sVattackdamageperlevel
p827
F3.25
sVmpregenperlevel
p828
F0.8
sVcritperlevel
p829
F0.0
sVspellblockperlevel
p830
F0.0
sVcrit
p831
F0.0
sVmpregen
p832
F6.0
sVspellblock
p833
F30.0
sVhpregen
p834
F6.42
sVhpperlevel
p835
F75.0
ssg25
(dp836
Vstats
p837
g815
sVname
p838
VKarthus
p839
sVtitle
p840
Vthe Deathsinger
p841
sVtags
p842
(lp843
VMage
p844
asVkey
p845
VKarthus
p846
sVid
p847
I30
ssg39
S'Karthus'
p848
sg41
g843
sba(i__main__
Champion
p849
(dp850
g3
(dp851
Varmorperlevel
p852
F3.5
sVattackdamage
p853
F50.38
sVmpperlevel
p854
F37.0
sVattackspeedoffset
p855
F-0.05
sVmp
p856
F357.2
sVarmor
p857
F22.38
sVhp
p858
F571.2
sVhpregenperlevel
p859
F0.8
sVattackspeedperlevel
p860
F3.0
sVattackrange
p861
F125.0
sVmovespeed
p862
F335.0
sVattackdamageperlevel
p863
F3.5
sVmpregenperlevel
p864
F0.8
sVcritperlevel
p865
F0.0
sVspellblockperlevel
p866
F0.0
sVcrit
p867
F0.0
sVmpregen
p868
F6.0
sVspellblock
p869
F30.0
sVhpregen
p870
F7.34
sVhpperlevel
p871
F90.0
ssg25
(dp872
Vstats
p873
g851
sVname
p874
VJayce
p875
sVtitle
p876
Vthe Defender of Tomorrow
p877
sVtags
p878
(lp879
VFighter
p880
aVMarksman
p881
asVkey
p882
VJayce
p883
sVid
p884
I126
ssg39
S'Jayce'
p885
sg41
g879
sba(i__main__
Champion
p886
(dp887
g3
(dp888
Varmorperlevel
p889
F3.5
sVattackdamage
p890
F56.856
sVmpperlevel
p891
F42.0
sVattackspeedoffset
p892
F0.0
sVmp
p893
F283.56
sVarmor
p894
F26.38
sVhp
p895
F598.28
sVhpregenperlevel
p896
F0.8
sVattackspeedperlevel
p897
F2.25
sVattackrange
p898
F125.0
sVmovespeed
p899
F350.0
sVattackdamageperlevel
p900
F3.45
sVmpregenperlevel
p901
F0.5
sVcritperlevel
p902
F0.0
sVspellblockperlevel
p903
F1.25
sVcrit
p904
F0.0
sVmpregen
p905
F7.44
sVspellblock
p906
F32.1
sVhpregen
p907
F8.39
sVhpperlevel
p908
F90.0
ssg25
(dp909
Vstats
p910
g888
sVname
p911
VNunu
p912
sVtitle
p913
Vthe Yeti Rider
p914
sVtags
p915
(lp916
VSupport
p917
aVFighter
p918
asVkey
p919
VNunu
p920
sVid
p921
I20
ssg39
S'Nunu'
p922
sg41
g916
sba(i__main__
Champion
p923
(dp924
g3
(dp925
Varmorperlevel
p926
F2.7
sVattackdamage
p927
F60.04
sVmpperlevel
p928
F45.0
sVattackspeedoffset
p929
F-0.0672
sVmp
p930
F281.6
sVarmor
p931
F27.536
sVhp
p932
F616.28
sVhpregenperlevel
p933
F0.85
sVattackspeedperlevel
p934
F2.9
sVattackrange
p935
F125.0
sVmovespeed
p936
F350.0
sVattackdamageperlevel
p937
F3.0
sVmpregenperlevel
p938
F0.6
sVcritperlevel
p939
F0.0
sVspellblockperlevel
p940
F1.25
sVcrit
p941
F0.0
sVmpregen
p942
F7.505
sVspellblock
p943
F32.1
sVhpregen
p944
F9.425
sVhpperlevel
p945
F96.0
ssg25
(dp946
Vstats
p947
g925
sVname
p948
VTrundle
p949
sVtitle
p950
Vthe Troll King
p951
sVtags
p952
(lp953
VFighter
p954
aVTank
p955
asVkey
p956
VTrundle
p957
sVid
p958
I48
ssg39
S'Trundle'
p959
sg41
g953
sba(i__main__
Champion
p960
(dp961
g3
(dp962
Varmorperlevel
p963
F3.0
sVattackdamage
p964
F57.544
sVmpperlevel
p965
F40.0
sVattackspeedoffset
p966
F-0.0672
sVmp
p967
F400.0
sVarmor
p968
F29.54
sVhp
p969
F600.0
sVhpregenperlevel
p970
F0.85
sVattackspeedperlevel
p971
F1.44
sVattackrange
p972
F125.0
sVmovespeed
p973
F340.0
sVattackdamageperlevel
p974
F3.3
sVmpregenperlevel
p975
F0.45
sVcritperlevel
p976
F0.0
sVspellblockperlevel
p977
F1.25
sVcrit
p978
F0.0
sVmpregen
p979
F7.205
sVspellblock
p980
F32.1
sVhpregen
p981
F8.675
sVhpperlevel
p982
F95.0
ssg25
(dp983
Vstats
p984
g962
sVname
p985
VSejuani
p986
sVtitle
p987
Vthe Winter's Wrath
p988
sVtags
p989
(lp990
VTank
p991
aVFighter
p992
asVkey
p993
VSejuani
p994
sVid
p995
I113
ssg39
S'Sejuani'
p996
sg41
g990
sba(i__main__
Champion
p997
(dp998
g3
(dp999
Varmorperlevel
p1000
F3.4
sVattackdamage
p1001
F60.83
sVmpperlevel
p1002
F40.0
sVattackspeedoffset
p1003
F0.3
sVmp
p1004
F322.2
sVarmor
p1005
F24.376
sVhp
p1006
F551.12
sVhpregenperlevel
p1007
F0.7
sVattackspeedperlevel
p1008
F2.6
sVattackrange
p1009
F425.0
sVmovespeed
p1010
F345.0
sVattackdamageperlevel
p1011
F2.41
sVmpregenperlevel
p1012
F0.7
sVcritperlevel
p1013
F0.0
sVspellblockperlevel
p1014
F0.0
sVcrit
p1015
F0.0
sVmpregen
p1016
F7.925
sVspellblock
p1017
F30.0
sVhpregen
p1018
F6.675
sVhpperlevel
p1019
F84.0
ssg25
(dp1020
Vstats
p1021
g999
sVname
p1022
VGraves
p1023
sVtitle
p1024
Vthe Outlaw
p1025
sVtags
p1026
(lp1027
VMarksman
p1028
asVkey
p1029
VGraves
p1030
sVid
p1031
I104
ssg39
S'Graves'
p1032
sg41
g1027
sba(i__main__
Champion
p1033
(dp1034
g3
(dp1035
Varmorperlevel
p1036
F3.0
sVattackdamage
p1037
F59.46
sVmpperlevel
p1038
F38.0
sVattackspeedoffset
p1039
F-0.02
sVmp
p1040
F348.88
sVarmor
p1041
F24.04
sVhp
p1042
F554.4
sVhpregenperlevel
p1043
F0.65
sVattackspeedperlevel
p1044
F3.3
sVattackrange
p1045
F500.0
sVmovespeed
p1046
F335.0
sVattackdamageperlevel
p1047
F2.41
sVmpregenperlevel
p1048
F0.7
sVcritperlevel
p1049
F0.0
sVspellblockperlevel
p1050
F0.0
sVcrit
p1051
F0.0
sVmpregen
p1052
F8.175
sVspellblock
p1053
F30.0
sVhpregen
p1054
F6.19
sVhpperlevel
p1055
F80.0
ssg25
(dp1056
Vstats
p1057
g1035
sVname
p1058
VLucian
p1059
sVtitle
p1060
Vthe Purifier
p1061
sVtags
p1062
(lp1063
VMarksman
p1064
asVkey
p1065
VLucian
p1066
sVid
p1067
I236
ssg39
S'Lucian'
p1068
sg41
g1063
sba(i__main__
Champion
p1069
(dp1070
g3
(dp1071
Varmorperlevel
p1072
F2.5
sVattackdamage
p1073
F48.0
sVmpperlevel
p1074
F0.0
sVattackspeedoffset
p1075
F0.0
sVmp
p1076
F100.0
sVarmor
p1077
F23.0
sVhp
p1078
F540.0
sVhpregenperlevel
p1079
F0.5
sVattackspeedperlevel
p1080
F6.0
sVattackrange
p1081
F150.0
sVmovespeed
p1082
F325.0
sVattackdamageperlevel
p1083
F3.0
sVmpregenperlevel
p1084
F0.0
sVcritperlevel
p1085
F0.0
sVspellblockperlevel
p1086
F0.0
sVcrit
p1087
F0.0
sVmpregen
p1088
F0.0
sVspellblock
p1089
F30.0
sVhpregen
p1090
F2.5
sVhpperlevel
p1091
F65.0
ssg25
(dp1092
Vstats
p1093
g1071
sVname
p1094
VGnar
p1095
sVtitle
p1096
Vthe Missing Link
p1097
sVtags
p1098
(lp1099
VFighter
p1100
aVTank
p1101
asVkey
p1102
VGnar
p1103
sVid
p1104
I150
ssg39
S'Gnar'
p1105
sg41
g1099
sba(i__main__
Champion
p1106
(dp1107
g3
(dp1108
Varmorperlevel
p1109
F4.0
sVattackdamage
p1110
F53.544
sVmpperlevel
p1111
F47.0
sVattackspeedoffset
p1112
F0.0
sVmp
p1113
F384.0
sVarmor
p1114
F18.72
sVhp
p1115
F477.72
sVhpregenperlevel
p1116
F0.55
sVattackspeedperlevel
p1117
F1.36
sVattackrange
p1118
F550.0
sVmovespeed
p1119
F330.0
sVattackdamageperlevel
p1120
F3.3
sVmpregenperlevel
p1121
F0.8
sVcritperlevel
p1122
F0.0
sVspellblockperlevel
p1123
F0.0
sVcrit
p1124
F0.0
sVmpregen
p1125
F6.0
sVspellblock
p1126
F30.0
sVhpregen
p1127
F5.42
sVhpperlevel
p1128
F79.0
ssg25
(dp1129
Vstats
p1130
g1108
sVname
p1131
VLux
p1132
sVtitle
p1133
Vthe Lady of Luminosity
p1134
sVtags
p1135
(lp1136
VMage
p1137
aVSupport
p1138
asVkey
p1139
VLux
p1140
sVid
p1141
I99
ssg39
S'Lux'
p1142
sg41
g1136
sba(i__main__
Champion
p1143
(dp1144
g3
(dp1145
Varmorperlevel
p1146
F3.35
sVattackdamage
p1147
F60.712
sVmpperlevel
p1148
F0.0
sVattackspeedoffset
p1149
F-0.05
sVmp
p1150
F100.0
sVarmor
p1151
F27.628
sVhp
p1152
F594.6
sVhpregenperlevel
p1153
F0.8
sVattackspeedperlevel
p1154
F2.5
sVattackrange
p1155
F125.0
sVmovespeed
p1156
F350.0
sVattackdamageperlevel
p1157
F3.4
sVmpregenperlevel
p1158
F0.0
sVcritperlevel
p1159
F0.0
sVspellblockperlevel
p1160
F1.25
sVcrit
p1161
F0.0
sVmpregen
p1162
F0.0
sVspellblock
p1163
F32.1
sVhpregen
p1164
F8.59
sVhpperlevel
p1165
F95.0
ssg25
(dp1166
Vstats
p1167
g1145
sVname
p1168
VShyvana
p1169
sVtitle
p1170
Vthe Half-Dragon
p1171
sVtags
p1172
(lp1173
VFighter
p1174
aVTank
p1175
asVkey
p1176
VShyvana
p1177
sVid
p1178
I102
ssg39
S'Shyvana'
p1179
sg41
g1173
sba(i__main__
Champion
p1180
(dp1181
g3
(dp1182
Varmorperlevel
p1183
F3.8
sVattackdamage
p1184
F58.328
sVmpperlevel
p1185
F0.0
sVattackspeedoffset
p1186
F-0.06
sVmp
p1187
F100.0
sVarmor
p1188
F25.584
sVhp
p1189
F572.16
sVhpregenperlevel
p1190
F0.75
sVattackspeedperlevel
p1191
F2.65
sVattackrange
p1192
F125.0
sVmovespeed
p1193
F345.0
sVattackdamageperlevel
p1194
F3.1
sVmpregenperlevel
p1195
F0.0
sVcritperlevel
p1196
F0.0
sVspellblockperlevel
p1197
F1.25
sVcrit
p1198
F0.0
sVmpregen
p1199
F0.0
sVspellblock
p1200
F32.1
sVhpregen
p1201
F7.96
sVhpperlevel
p1202
F87.0
ssg25
(dp1203
Vstats
p1204
g1182
sVname
p1205
VRenekton
p1206
sVtitle
p1207
Vthe Butcher of the Sands
p1208
sVtags
p1209
(lp1210
VFighter
p1211
aVTank
p1212
asVkey
p1213
VRenekton
p1214
sVid
p1215
I58
ssg39
S'Renekton'
p1216
sg41
g1210
sba(i__main__
Champion
p1217
(dp1218
g3
(dp1219
Varmorperlevel
p1220
F3.5
sVattackdamage
p1221
F60.0
sVmpperlevel
p1222
F40.0
sVattackspeedoffset
p1223
F0.0
sVmp
p1224
F300.0
sVarmor
p1225
F24.0
sVhp
p1226
F550.0
sVhpregenperlevel
p1227
F0.55
sVattackspeedperlevel
p1228
F3.2
sVattackrange
p1229
F150.0
sVmovespeed
p1230
F345.0
sVattackdamageperlevel
p1231
F3.3
sVmpregenperlevel
p1232
F0.7
sVcritperlevel
p1233
F0.0
sVspellblockperlevel
p1234
F1.25
sVcrit
p1235
F0.0
sVmpregen
p1236
F8.0
sVspellblock
p1237
F32.1
sVhpregen
p1238
F8.25
sVhpperlevel
p1239
F85.0
ssg25
(dp1240
Vstats
p1241
g1219
sVname
p1242
VFiora
p1243
sVtitle
p1244
Vthe Grand Duelist
p1245
sVtags
p1246
(lp1247
VFighter
p1248
aVAssassin
p1249
asVkey
p1250
VFiora
p1251
sVid
p1252
I114
ssg39
S'Fiora'
p1253
sg41
g1247
sba(i__main__
Champion
p1254
(dp1255
g3
(dp1256
Varmorperlevel
p1257
F3.5
sVattackdamage
p1258
F58.46
sVmpperlevel
p1259
F45.0
sVattackspeedoffset
p1260
F0.0
sVmp
p1261
F245.6
sVarmor
p1262
F22.88
sVhp
p1263
F517.76
sVhpregenperlevel
p1264
F0.5
sVattackspeedperlevel
p1265
F1.0
sVattackrange
p1266
F525.0
sVmovespeed
p1267
F325.0
sVattackdamageperlevel
p1268
F2.41
sVmpregenperlevel
p1269
F1.0
sVcritperlevel
p1270
F0.0
sVspellblockperlevel
p1271
F0.0
sVcrit
p1272
F0.0
sVmpregen
p1273
F6.68
sVspellblock
p1274
F30.0
sVhpregen
p1275
F5.84
sVhpperlevel
p1276
F82.0
ssg25
(dp1277
Vstats
p1278
g1256
sVname
p1279
VJinx
p1280
sVtitle
p1281
Vthe Loose Cannon
p1282
sVtags
p1283
(lp1284
VMarksman
p1285
asVkey
p1286
VJinx
p1287
sVid
p1288
I222
ssg39
S'Jinx'
p1289
sg41
g1284
sba(i__main__
Champion
p1290
(dp1291
g3
(dp1292
Varmorperlevel
p1293
F3.5
sVattackdamage
p1294
F62.92
sVmpperlevel
p1295
F35.0
sVattackspeedoffset
p1296
F-0.1
sVmp
p1297
F231.8
sVarmor
p1298
F19.012
sVhp
p1299
F517.76
sVhpregenperlevel
p1300
F0.55
sVattackspeedperlevel
p1301
F2.8
sVattackrange
p1302
F550.0
sVmovespeed
p1303
F325.0
sVattackdamageperlevel
p1304
F2.91
sVmpregenperlevel
p1305
F0.4
sVcritperlevel
p1306
F0.0
sVspellblockperlevel
p1307
F0.0
sVcrit
p1308
F0.0
sVmpregen
p1309
F6.3
sVspellblock
p1310
F30.0
sVhpregen
p1311
F6.0
sVhpperlevel
p1312
F83.0
ssg25
(dp1313
Vstats
p1314
g1292
sVname
p1315
VKalista
p1316
sVtitle
p1317
Vthe Spear of Vengeance
p1318
sVtags
p1319
(lp1320
VMarksman
p1321
asVkey
p1322
VKalista
p1323
sVid
p1324
I429
ssg39
S'Kalista'
p1325
sg41
g1320
sba(i__main__
Champion
p1326
(dp1327
g3
(dp1328
Varmorperlevel
p1329
F3.4
sVattackdamage
p1330
F58.04
sVmpperlevel
p1331
F37.0
sVattackspeedoffset
p1332
F-0.05
sVmp
p1333
F317.2
sVarmor
p1334
F22.412
sVhp
p1335
F558.48
sVhpregenperlevel
p1336
F0.7
sVattackspeedperlevel
p1337
F3.1
sVattackrange
p1338
F175.0
sVmovespeed
p1339
F335.0
sVattackdamageperlevel
p1340
F3.0
sVmpregenperlevel
p1341
F0.8
sVcritperlevel
p1342
F0.0
sVspellblockperlevel
p1343
F1.25
sVcrit
p1344
F0.0
sVmpregen
p1345
F6.0
sVspellblock
p1346
F32.1
sVhpregen
p1347
F8.175
sVhpperlevel
p1348
F86.0
ssg25
(dp1349
Vstats
p1350
g1328
sVname
p1351
VFizz
p1352
sVtitle
p1353
Vthe Tidal Trickster
p1354
sVtags
p1355
(lp1356
VAssassin
p1357
aVFighter
p1358
asVkey
p1359
VFizz
p1360
sVid
p1361
I105
ssg39
S'Fizz'
p1362
sg41
g1356
sba(i__main__
Champion
p1363
(dp1364
g3
(dp1365
Varmorperlevel
p1366
F3.2
sVattackdamage
p1367
F58.852
sVmpperlevel
p1368
F67.0
sVattackspeedoffset
p1369
F-0.023
sVmp
p1370
F397.6
sVarmor
p1371
F23.376
sVhp
p1372
F564.04
sVhpregenperlevel
p1373
F0.5
sVattackspeedperlevel
p1374
F3.7
sVattackrange
p1375
F150.0
sVmovespeed
p1376
F340.0
sVattackdamageperlevel
p1377
F3.9
sVmpregenperlevel
p1378
F0.8
sVcritperlevel
p1379
F0.0
sVspellblockperlevel
p1380
F0.0
sVcrit
p1381
F0.0
sVmpregen
p1382
F6.0
sVspellblock
p1383
F30.0
sVhpregen
p1384
F7.79
sVhpperlevel
p1385
F78.0
ssg25
(dp1386
Vstats
p1387
g1365
sVname
p1388
VKassadin
p1389
sVtitle
p1390
Vthe Void Walker
p1391
sVtags
p1392
(lp1393
VAssassin
p1394
aVMage
p1395
asVkey
p1396
VKassadin
p1397
sVid
p1398
I38
ssg39
S'Kassadin'
p1399
sg41
g1393
sba(i__main__
Champion
p1400
(dp1401
g3
(dp1402
Varmorperlevel
p1403
F3.3
sVattackdamage
p1404
F50.04
sVmpperlevel
p1405
F45.0
sVattackspeedoffset
p1406
F-0.03
sVmp
p1407
F340.6
sVarmor
p1408
F20.544
sVhp
p1409
F482.36
sVhpregenperlevel
p1410
F0.55
sVattackspeedperlevel
p1411
F2.3
sVattackrange
p1412
F550.0
sVmovespeed
p1413
F325.0
sVattackdamageperlevel
p1414
F3.0
sVmpregenperlevel
p1415
F0.4
sVcritperlevel
p1416
F0.0
sVspellblockperlevel
p1417
F0.0
sVcrit
p1418
F0.0
sVmpregen
p1419
F11.5
sVspellblock
p1420
F30.0
sVhpregen
p1421
F5.42
sVhpperlevel
p1422
F77.0
ssg25
(dp1423
Vstats
p1424
g1402
sVname
p1425
VSona
p1426
sVtitle
p1427
VMaven of the Strings
p1428
sVtags
p1429
(lp1430
VSupport
p1431
aVMage
p1432
asVkey
p1433
VSona
p1434
sVid
p1435
I37
ssg39
S'Sona'
p1436
sg41
g1430
sba(i__main__
Champion
p1437
(dp1438
g3
(dp1439
Varmorperlevel
p1440
F3.75
sVattackdamage
p1441
F61.544
sVmpperlevel
p1442
F32.0
sVattackspeedoffset
p1443
F-0.06
sVmp
p1444
F338.8
sVarmor
p1445
F25.3
sVhp
p1446
F607.2
sVhpregenperlevel
p1447
F0.65
sVattackspeedperlevel
p1448
F3.2
sVattackrange
p1449
F125.0
sVmovespeed
p1450
F345.0
sVattackdamageperlevel
p1451
F3.3
sVmpregenperlevel
p1452
F0.65
sVcritperlevel
p1453
F0.0
sVspellblockperlevel
p1454
F1.25
sVcrit
p1455
F0.0
sVmpregen
p1456
F8.09
sVspellblock
p1457
F32.1
sVhpregen
p1458
F8.59
sVhpperlevel
p1459
F90.0
ssg25
(dp1460
Vstats
p1461
g1439
sVname
p1462
VIrelia
p1463
sVtitle
p1464
Vthe Will of the Blades
p1465
sVtags
p1466
(lp1467
VFighter
p1468
aVAssassin
p1469
asVkey
p1470
VIrelia
p1471
sVid
p1472
I39
ssg39
S'Irelia'
p1473
sg41
g1467
sba(i__main__
Champion
p1474
(dp1475
g3
(dp1476
Varmorperlevel
p1477
F4.0
sVattackdamage
p1478
F52.04
sVmpperlevel
p1479
F50.0
sVattackspeedoffset
p1480
F-0.05
sVmp
p1481
F324.0
sVarmor
p1482
F22.72
sVhp
p1483
F516.04
sVhpregenperlevel
p1484
F0.65
sVattackspeedperlevel
p1485
F2.11
sVattackrange
p1486
F525.0
sVmovespeed
p1487
F335.0
sVattackdamageperlevel
p1488
F3.0
sVmpregenperlevel
p1489
F0.8
sVcritperlevel
p1490
F0.0
sVspellblockperlevel
p1491
F0.0
sVcrit
p1492
F0.0
sVmpregen
p1493
F6.0
sVspellblock
p1494
F30.0
sVhpregen
p1495
F7.84
sVhpperlevel
p1496
F78.0
ssg25
(dp1497
Vstats
p1498
g1476
sVname
p1499
VViktor
p1500
sVtitle
p1501
Vthe Machine Herald
p1502
sVtags
p1503
(lp1504
VMage
p1505
asVkey
p1506
VViktor
p1507
sVid
p1508
I112
ssg39
S'Viktor'
p1509
sg41
g1504
sba(i__main__
Champion
p1510
(dp1511
g3
(dp1512
Varmorperlevel
p1513
F3.25
sVattackdamage
p1514
F54.0
sVmpperlevel
p1515
F35.0
sVattackspeedoffset
p1516
F0.0
sVmp
p1517
F300.0
sVarmor
p1518
F27.0
sVhp
p1519
F540.0
sVhpregenperlevel
p1520
F0.55
sVattackspeedperlevel
p1521
F2.5
sVattackrange
p1522
F500.0
sVmovespeed
p1523
F325.0
sVattackdamageperlevel
p1524
F1.7
sVmpregenperlevel
p1525
F0.4
sVcritperlevel
p1526
F0.0
sVspellblockperlevel
p1527
F0.0
sVcrit
p1528
F0.0
sVmpregen
p1529
F6.97
sVspellblock
p1530
F30.0
sVhpregen
p1531
F7.0
sVhpperlevel
p1532
F85.0
ssg25
(dp1533
Vstats
p1534
g1512
sVname
p1535
VKindred
p1536
sVtitle
p1537
VThe Eternal Hunters
p1538
sVtags
p1539
(lp1540
VMarksman
p1541
asVkey
p1542
VKindred
p1543
sVid
p1544
I203
ssg39
S'Kindred'
p1545
sg41
g1540
sba(i__main__
Champion
p1546
(dp1547
g3
(dp1548
Varmorperlevel
p1549
F4.0
sVattackdamage
p1550
F52.376
sVmpperlevel
p1551
F60.0
sVattackspeedoffset
p1552
F-0.034
sVmp
p1553
F370.8
sVarmor
p1554
F22.22
sVhp
p1555
F506.0
sVhpregenperlevel
p1556
F0.5
sVattackspeedperlevel
p1557
F1.68
sVattackrange
p1558
F550.0
sVmovespeed
p1559
F335.0
sVattackdamageperlevel
p1560
F3.2
sVmpregenperlevel
p1561
F0.75
sVcritperlevel
p1562
F0.0
sVspellblockperlevel
p1563
F0.0
sVcrit
p1564
F0.0
sVmpregen
p1565
F8.36
sVspellblock
p1566
F30.0
sVhpregen
p1567
F5.69
sVhpperlevel
p1568
F75.0
ssg25
(dp1569
Vstats
p1570
g1548
sVname
p1571
VCassiopeia
p1572
sVtitle
p1573
Vthe Serpent's Embrace
p1574
sVtags
p1575
(lp1576
VMage
p1577
asVkey
p1578
VCassiopeia
p1579
sVid
p1580
I69
ssg39
S'Cassiopeia'
p1581
sg41
g1576
sba(i__main__
Champion
p1582
(dp1583
g3
(dp1584
Varmorperlevel
p1585
F4.0
sVattackdamage
p1586
F63.544
sVmpperlevel
p1587
F43.0
sVattackspeedoffset
p1588
F-0.1
sVmp
p1589
F377.28
sVarmor
p1590
F28.72
sVhp
p1591
F572.2
sVhpregenperlevel
p1592
F0.85
sVattackspeedperlevel
p1593
F2.125
sVattackrange
p1594
F125.0
sVmovespeed
p1595
F335.0
sVattackdamageperlevel
p1596
F3.3
sVmpregenperlevel
p1597
F0.45
sVcritperlevel
p1598
F0.0
sVspellblockperlevel
p1599
F0.0
sVcrit
p1600
F0.0
sVmpregen
p1601
F7.205
sVspellblock
p1602
F30.0
sVhpregen
p1603
F8.675
sVhpperlevel
p1604
F90.0
ssg25
(dp1605
Vstats
p1606
g1584
sVname
p1607
VMaokai
p1608
sVtitle
p1609
Vthe Twisted Treant
p1610
sVtags
p1611
(lp1612
VTank
p1613
aVMage
p1614
asVkey
p1615
VMaokai
p1616
sVid
p1617
I57
ssg39
S'Maokai'
p1618
sg41
g1612
sba(i__main__
Champion
p1619
(dp1620
g3
(dp1621
Varmorperlevel
p1622
F0.0
sVattackdamage
p1623
F47.696
sVmpperlevel
p1624
F44.0
sVattackspeedoffset
p1625
F0.0
sVmp
p1626
F273.92
sVarmor
p1627
F16.0
sVhp
p1628
F560.52
sVhpregenperlevel
p1629
F0.55
sVattackspeedperlevel
p1630
F3.5
sVattackrange
p1631
F450.0
sVmovespeed
p1632
F335.0
sVattackdamageperlevel
p1633
F2.2
sVmpregenperlevel
p1634
F0.8
sVcritperlevel
p1635
F0.0
sVspellblockperlevel
p1636
F0.0
sVcrit
p1637
F0.0
sVmpregen
p1638
F6.0
sVspellblock
p1639
F30.0
sVhpregen
p1640
F6.92
sVhpperlevel
p1641
F93.0
ssg25
(dp1642
Vstats
p1643
g1621
sVname
p1644
VThresh
p1645
sVtitle
p1646
Vthe Chain Warden
p1647
sVtags
p1648
(lp1649
VSupport
p1650
aVFighter
p1651
asVkey
p1652
VThresh
p1653
sVid
p1654
I412
ssg39
S'Thresh'
p1655
sg41
g1649
sba(i__main__
Champion
p1656
(dp1657
g3
(dp1658
Varmorperlevel
p1659
F3.5
sVattackdamage
p1660
F51.0
sVmpperlevel
p1661
F40.0
sVattackspeedoffset
p1662
F-0.02
sVmp
p1663
F322.2
sVarmor
p1664
F26.88
sVhp
p1665
F574.24
sVhpregenperlevel
p1666
F0.75
sVattackspeedperlevel
p1667
F2.2
sVattackrange
p1668
F125.0
sVmovespeed
p1669
F335.0
sVattackdamageperlevel
p1670
F2.8
sVmpregenperlevel
p1671
F0.8
sVcritperlevel
p1672
F0.0
sVspellblockperlevel
p1673
F0.0
sVcrit
p1674
F0.0
sVmpregen
p1675
F6.0
sVspellblock
p1676
F30.0
sVhpregen
p1677
F8.26
sVhpperlevel
p1678
F93.0
ssg25
(dp1679
Vstats
p1680
g1658
sVname
p1681
VKayle
p1682
sVtitle
p1683
VThe Judicator
p1684
sVtags
p1685
(lp1686
VFighter
p1687
aVSupport
p1688
asVkey
p1689
VKayle
p1690
sVid
p1691
I10
ssg39
S'Kayle'
p1692
sg41
g1686
sba(i__main__
Champion
p1693
(dp1694
g3
(dp1695
Varmorperlevel
p1696
F4.0
sVattackdamage
p1697
F61.376
sVmpperlevel
p1698
F37.0
sVattackspeedoffset
p1699
F-0.0672
sVmp
p1700
F327.2
sVarmor
p1701
F26.72
sVhp
p1702
F599.6
sVhpregenperlevel
p1703
F0.75
sVattackspeedperlevel
p1704
F2.5
sVattackrange
p1705
F175.0
sVmovespeed
p1706
F345.0
sVattackdamageperlevel
p1707
F3.2
sVmpregenperlevel
p1708
F0.6
sVcritperlevel
p1709
F0.0
sVspellblockperlevel
p1710
F1.25
sVcrit
p1711
F0.0
sVmpregen
p1712
F6.5
sVspellblock
p1713
F32.1
sVhpregen
p1714
F7.0
sVhpperlevel
p1715
F95.0
ssg25
(dp1716
Vstats
p1717
g1695
sVname
p1718
VHecarim
p1719
sVtitle
p1720
Vthe Shadow of War
p1721
sVtags
p1722
(lp1723
VFighter
p1724
aVTank
p1725
asVkey
p1726
VHecarim
p1727
sVid
p1728
I120
ssg39
S'Hecarim'
p1729
sg41
g1723
sba(i__main__
Champion
p1730
(dp1731
g3
(dp1732
Varmorperlevel
p1733
F3.0
sVattackdamage
p1734
F55.208
sVmpperlevel
p1735
F40.0
sVattackspeedoffset
p1736
F-0.065
sVmp
p1737
F327.2
sVarmor
p1738
F24.04
sVhp
p1739
F572.8
sVhpregenperlevel
p1740
F0.75
sVattackspeedperlevel
p1741
F2.7
sVattackrange
p1742
F125.0
sVmovespeed
p1743
F350.0
sVattackdamageperlevel
p1744
F3.1
sVmpregenperlevel
p1745
F0.5
sVcritperlevel
p1746
F0.0
sVspellblockperlevel
p1747
F1.25
sVcrit
p1748
F0.0
sVmpregen
p1749
F7.59
sVspellblock
p1750
F32.1
sVhpregen
p1751
F7.51
sVhpperlevel
p1752
F85.0
ssg25
(dp1753
Vstats
p1754
g1732
sVname
p1755
VKha'Zix
p1756
sVtitle
p1757
Vthe Voidreaver
p1758
sVtags
p1759
(lp1760
VAssassin
p1761
aVFighter
p1762
asVkey
p1763
VKhazix
p1764
sVid
p1765
I121
ssg39
S"Kha'Zix"
p1766
sg41
g1760
sba(i__main__
Champion
p1767
(dp1768
g3
(dp1769
Varmorperlevel
p1770
F3.0
sVattackdamage
p1771
F59.98
sVmpperlevel
p1772
F42.0
sVattackspeedoffset
p1773
F-0.1
sVmp
p1774
F315.6
sVarmor
p1775
F26.04
sVhp
p1776
F597.24
sVhpregenperlevel
p1777
F0.9
sVattackspeedperlevel
p1778
F2.7
sVattackrange
p1779
F125.0
sVmovespeed
p1780
F350.0
sVattackdamageperlevel
p1781
F3.5
sVmpregenperlevel
p1782
F0.575
sVcritperlevel
p1783
F0.0
sVspellblockperlevel
p1784
F1.25
sVcrit
p1785
F0.0
sVmpregen
p1786
F7.465
sVspellblock
p1787
F32.1
sVhpregen
p1788
F8.51
sVhpperlevel
p1789
F93.0
ssg25
(dp1790
Vstats
p1791
g1769
sVname
p1792
VOlaf
p1793
sVtitle
p1794
Vthe Berserker
p1795
sVtags
p1796
(lp1797
VFighter
p1798
aVTank
p1799
asVkey
p1800
VOlaf
p1801
sVid
p1802
I2
ssg39
S'Olaf'
p1803
sg41
g1797
sba(i__main__
Champion
p1804
(dp1805
g3
(dp1806
Varmorperlevel
p1807
F3.3
sVattackdamage
p1808
F54.208
sVmpperlevel
p1809
F47.0
sVattackspeedoffset
p1810
F-0.04734
sVmp
p1811
F384.0
sVarmor
p1812
F21.544
sVhp
p1813
F524.4
sVhpregenperlevel
p1814
F0.6
sVattackspeedperlevel
p1815
F2.0
sVattackrange
p1816
F550.0
sVmovespeed
p1817
F325.0
sVattackdamageperlevel
p1818
F3.1
sVmpregenperlevel
p1819
F0.8
sVcritperlevel
p1820
F0.0
sVspellblockperlevel
p1821
F0.0
sVcrit
p1822
F0.0
sVmpregen
p1823
F6.0
sVspellblock
p1824
F30.0
sVhpregen
p1825
F6.255
sVhpperlevel
p1826
F80.0
ssg25
(dp1827
Vstats
p1828
g1806
sVname
p1829
VZiggs
p1830
sVtitle
p1831
Vthe Hexplosives Expert
p1832
sVtags
p1833
(lp1834
VMage
p1835
asVkey
p1836
VZiggs
p1837
sVid
p1838
I115
ssg39
S'Ziggs'
p1839
sg41
g1834
sba(i__main__
Champion
p1840
(dp1841
g3
(dp1842
Varmorperlevel
p1843
F3.4
sVattackdamage
p1844
F53.872
sVmpperlevel
p1845
F60.0
sVattackspeedoffset
p1846
F0.0
sVmp
p1847
F384.0
sVarmor
p1848
F24.712
sVhp
p1849
F511.04
sVhpregenperlevel
p1850
F0.6
sVattackspeedperlevel
p1851
F2.0
sVattackrange
p1852
F550.0
sVmovespeed
p1853
F330.0
sVattackdamageperlevel
p1854
F2.9
sVmpregenperlevel
p1855
F0.8
sVcritperlevel
p1856
F0.0
sVspellblockperlevel
p1857
F0.0
sVcrit
p1858
F0.0
sVmpregen
p1859
F6.0
sVspellblock
p1860
F30.0
sVhpregen
p1861
F6.505
sVhpperlevel
p1862
F78.0
ssg25
(dp1863
Vstats
p1864
g1842
sVname
p1865
VSyndra
p1866
sVtitle
p1867
Vthe Dark Sovereign
p1868
sVtags
p1869
(lp1870
VMage
p1871
aVSupport
p1872
asVkey
p1873
VSyndra
p1874
sVid
p1875
I134
ssg39
S'Syndra'
p1876
sg41
g1870
sba(i__main__
Champion
p1877
(dp1878
g3
(dp1879
Varmorperlevel
p1880
F3.5
sVattackdamage
p1881
F61.27
sVmpperlevel
p1882
F0.0
sVattackspeedoffset
p1883
F0.0
sVmp
p1884
F0.0
sVarmor
p1885
F26.88
sVhp
p1886
F582.52
sVhpregenperlevel
p1887
F0.75
sVattackspeedperlevel
p1888
F2.8
sVattackrange
p1889
F125.0
sVmovespeed
p1890
F345.0
sVattackdamageperlevel
p1891
F3.0
sVmpregenperlevel
p1892
F0.0
sVcritperlevel
p1893
F0.0
sVspellblockperlevel
p1894
F1.25
sVcrit
p1895
F0.0
sVmpregen
p1896
F0.0
sVspellblock
p1897
F32.1
sVhpregen
p1898
F7.76
sVhpperlevel
p1899
F89.0
ssg25
(dp1900
Vstats
p1901
g1879
sVname
p1902
VDr. Mundo
p1903
sVtitle
p1904
Vthe Madman of Zaun
p1905
sVtags
p1906
(lp1907
VFighter
p1908
aVTank
p1909
asVkey
p1910
VDrMundo
p1911
sVid
p1912
I36
ssg39
S'Dr. Mundo'
p1913
sg41
g1907
sba(i__main__
Champion
p1914
(dp1915
g3
(dp1916
Varmorperlevel
p1917
F3.8
sVattackdamage
p1918
F53.544
sVmpperlevel
p1919
F50.0
sVattackspeedoffset
p1920
F0.0
sVmp
p1921
F374.0
sVarmor
p1922
F20.384
sVhp
p1923
F522.44
sVhpregenperlevel
p1924
F0.55
sVattackspeedperlevel
p1925
F2.3
sVattackrange
p1926
F525.0
sVmovespeed
p1927
F335.0
sVattackdamageperlevel
p1928
F3.3
sVmpregenperlevel
p1929
F0.8
sVcritperlevel
p1930
F0.0
sVspellblockperlevel
p1931
F0.0
sVcrit
p1932
F0.0
sVmpregen
p1933
F8.5
sVspellblock
p1934
F30.0
sVhpregen
p1935
F5.62
sVhpperlevel
p1936
F83.0
ssg25
(dp1937
Vstats
p1938
g1916
sVname
p1939
VKarma
p1940
sVtitle
p1941
Vthe Enlightened One
p1942
sVtags
p1943
(lp1944
VMage
p1945
aVSupport
p1946
asVkey
p1947
VKarma
p1948
sVid
p1949
I43
ssg39
S'Karma'
p1950
sg41
g1944
sba(i__main__
Champion
p1951
(dp1952
g3
(dp1953
Varmorperlevel
p1954
F4.0
sVattackdamage
p1955
F50.41
sVmpperlevel
p1956
F50.0
sVattackspeedoffset
p1957
F0.08
sVmp
p1958
F334.0
sVarmor
p1959
F19.22
sVhp
p1960
F511.68
sVhpregenperlevel
p1961
F0.55
sVattackspeedperlevel
p1962
F1.36
sVattackrange
p1963
F575.0
sVmovespeed
p1964
F335.0
sVattackdamageperlevel
p1965
F2.625
sVmpregenperlevel
p1966
F0.8
sVcritperlevel
p1967
F0.0
sVspellblockperlevel
p1968
F0.0
sVcrit
p1969
F0.0
sVmpregen
p1970
F6.0
sVspellblock
p1971
F30.0
sVhpregen
p1972
F5.42
sVhpperlevel
p1973
F76.0
ssg25
(dp1974
Vstats
p1975
g1953
sVname
p1976
VAnnie
p1977
sVtitle
p1978
Vthe Dark Child
p1979
sVtags
p1980
(lp1981
VMage
p1982
asVkey
p1983
VAnnie
p1984
sVid
p1985
I1
ssg39
S'Annie'
p1986
sg41
g1981
sba(i__main__
Champion
p1987
(dp1988
g3
(dp1989
Varmorperlevel
p1990
F3.5
sVattackdamage
p1991
F58.376
sVmpperlevel
p1992
F0.0
sVattackspeedoffset
p1993
F-0.1
sVmp
p1994
F200.0
sVarmor
p1995
F26.38
sVhp
p1996
F587.8
sVhpregenperlevel
p1997
F0.65
sVattackspeedperlevel
p1998
F3.1
sVattackrange
p1999
F125.0
sVmovespeed
p2000
F350.0
sVattackdamageperlevel
p2001
F3.2
sVmpregenperlevel
p2002
F0.0
sVcritperlevel
p2003
F0.0
sVspellblockperlevel
p2004
F1.25
sVcrit
p2005
F0.0
sVmpregen
p2006
F50.0
sVspellblock
p2007
F32.1
sVhpregen
p2008
F8.34
sVhpperlevel
p2009
F85.0
ssg25
(dp2010
Vstats
p2011
g1989
sVname
p2012
VAkali
p2013
sVtitle
p2014
Vthe Fist of Shadow
p2015
sVtags
p2016
(lp2017
VAssassin
p2018
asVkey
p2019
VAkali
p2020
sVid
p2021
I84
ssg39
S'Akali'
p2022
sg41
g2017
sba(i__main__
Champion
p2023
(dp2024
g3
(dp2025
Varmorperlevel
p2026
F3.6
sVattackdamage
p2027
F60.04
sVmpperlevel
p2028
F40.0
sVattackspeedoffset
p2029
F0.0
sVmp
p2030
F302.2
sVarmor
p2031
F27.208
sVhp
p2032
F576.16
sVhpregenperlevel
p2033
F0.85
sVattackspeedperlevel
p2034
F2.9
sVattackrange
p2035
F125.0
sVmovespeed
p2036
F335.0
sVattackdamageperlevel
p2037
F3.0
sVmpregenperlevel
p2038
F0.8
sVcritperlevel
p2039
F0.0
sVspellblockperlevel
p2040
F1.25
sVcrit
p2041
F0.0
sVmpregen
p2042
F6.0
sVspellblock
p2043
F32.1
sVhpregen
p2044
F8.425
sVhpperlevel
p2045
F87.0
ssg25
(dp2046
Vstats
p2047
g2025
sVname
p2048
VLeona
p2049
sVtitle
p2050
Vthe Radiant Dawn
p2051
sVtags
p2052
(lp2053
VTank
p2054
aVSupport
p2055
asVkey
p2056
VLeona
p2057
sVid
p2058
I89
ssg39
S'Leona'
p2059
sg41
g2053
sba(i__main__
Champion
p2060
(dp2061
g3
(dp2062
Varmorperlevel
p2063
F3.4
sVattackdamage
p2064
F55.376
sVmpperlevel
p2065
F0.0
sVattackspeedoffset
p2066
F-0.05
sVmp
p2067
F100.0
sVarmor
p2068
F24.712
sVhp
p2069
F517.76
sVhpregenperlevel
p2070
F0.9
sVattackspeedperlevel
p2071
F3.2
sVattackrange
p2072
F175.0
sVmovespeed
p2073
F345.0
sVattackdamageperlevel
p2074
F3.2
sVmpregenperlevel
p2075
F0.0
sVcritperlevel
p2076
F0.0
sVspellblockperlevel
p2077
F0.0
sVcrit
p2078
F0.0
sVmpregen
p2079
F0.0
sVspellblock
p2080
F30.0
sVhpregen
p2081
F6.51
sVhpperlevel
p2082
F82.0
ssg25
(dp2083
Vstats
p2084
g2062
sVname
p2085
VYasuo
p2086
sVtitle
p2087
Vthe Unforgiven
p2088
sVtags
p2089
(lp2090
VFighter
p2091
aVAssassin
p2092
asVkey
p2093
VYasuo
p2094
sVid
p2095
I157
ssg39
S'Yasuo'
p2096
sg41
g2090
sba(i__main__
Champion
p2097
(dp2098
g3
(dp2099
Varmorperlevel
p2100
F3.75
sVattackdamage
p2101
F50.544
sVmpperlevel
p2102
F0.0
sVattackspeedoffset
p2103
F-0.0947
sVmp
p2104
F200.0
sVarmor
p2105
F24.3
sVhp
p2106
F535.72
sVhpregenperlevel
p2107
F0.65
sVattackspeedperlevel
p2108
F3.4
sVattackrange
p2109
F550.0
sVmovespeed
p2110
F335.0
sVattackdamageperlevel
p2111
F3.3
sVmpregenperlevel
p2112
F0.0
sVcritperlevel
p2113
F0.0
sVspellblockperlevel
p2114
F0.0
sVcrit
p2115
F0.0
sVmpregen
p2116
F50.0
sVspellblock
p2117
F30.0
sVhpregen
p2118
F5.59
sVhpperlevel
p2119
F79.0
ssg25
(dp2120
Vstats
p2121
g2099
sVname
p2122
VKennen
p2123
sVtitle
p2124
Vthe Heart of the Tempest
p2125
sVtags
p2126
(lp2127
VMage
p2128
aVMarksman
p2129
asVkey
p2130
VKennen
p2131
sVid
p2132
I85
ssg39
S'Kennen'
p2133
sg41
g2127
sba(i__main__
Champion
p2134
(dp2135
g3
(dp2136
Varmorperlevel
p2137
F3.5
sVattackdamage
p2138
F60.04
sVmpperlevel
p2139
F0.0
sVattackspeedoffset
p2140
F-0.08
sVmp
p2141
F5.0
sVarmor
p2142
F25.88
sVhp
p2143
F586.2
sVhpregenperlevel
p2144
F0.4
sVattackspeedperlevel
p2145
F2.85
sVattackrange
p2146
F125.0
sVmovespeed
p2147
F345.0
sVattackdamageperlevel
p2148
F3.0
sVmpregenperlevel
p2149
F0.0
sVcritperlevel
p2150
F0.0
sVspellblockperlevel
p2151
F1.25
sVcrit
p2152
F0.0
sVmpregen
p2153
F0.0
sVspellblock
p2154
F32.1
sVhpregen
p2155
F4.27
sVhpperlevel
p2156
F90.0
ssg25
(dp2157
Vstats
p2158
g2136
sVname
p2159
VRengar
p2160
sVtitle
p2161
Vthe Pridestalker
p2162
sVtags
p2163
(lp2164
VAssassin
p2165
aVFighter
p2166
asVkey
p2167
VRengar
p2168
sVid
p2169
I107
ssg39
S'Rengar'
p2170
sg41
g2164
sba(i__main__
Champion
p2171
(dp2172
g3
(dp2173
Varmorperlevel
p2174
F3.0
sVattackdamage
p2175
F55.04
sVmpperlevel
p2176
F52.0
sVattackspeedoffset
p2177
F0.0
sVmp
p2178
F392.4
sVarmor
p2179
F21.552
sVhp
p2180
F558.48
sVhpregenperlevel
p2181
F0.55
sVattackspeedperlevel
p2182
F2.112
sVattackrange
p2183
F550.0
sVmovespeed
p2184
F340.0
sVattackdamageperlevel
p2185
F3.0
sVmpregenperlevel
p2186
F1.0
sVcritperlevel
p2187
F0.0
sVspellblockperlevel
p2188
F0.0
sVcrit
p2189
F0.0
sVmpregen
p2190
F5.0
sVspellblock
p2191
F30.0
sVhpregen
p2192
F5.27
sVhpperlevel
p2193
F86.0
ssg25
(dp2194
Vstats
p2195
g2173
sVname
p2196
VRyze
p2197
sVtitle
p2198
Vthe Rogue Mage
p2199
sVtags
p2200
(lp2201
VMage
p2202
aVFighter
p2203
asVkey
p2204
VRyze
p2205
sVid
p2206
I13
ssg39
S'Ryze'
p2207
sg41
g2201
sba(i__main__
Champion
p2208
(dp2209
g3
(dp2210
Varmorperlevel
p2211
F4.0
sVattackdamage
p2212
F60.17
sVmpperlevel
p2213
F0.0
sVattackspeedoffset
p2214
F-0.04
sVmp
p2215
F200.0
sVarmor
p2216
F25.72
sVhp
p2217
F570.8
sVhpregenperlevel
p2218
F0.55
sVattackspeedperlevel
p2219
F3.4
sVattackrange
p2220
F125.0
sVmovespeed
p2221
F335.0
sVattackdamageperlevel
p2222
F3.375
sVmpregenperlevel
p2223
F0.0
sVcritperlevel
p2224
F0.0
sVspellblockperlevel
p2225
F1.25
sVcrit
p2226
F0.0
sVmpregen
p2227
F50.0
sVspellblock
p2228
F32.1
sVhpregen
p2229
F8.37
sVhpperlevel
p2230
F85.0
ssg25
(dp2231
Vstats
p2232
g2210
sVname
p2233
VShen
p2234
sVtitle
p2235
VEye of Twilight
p2236
sVtags
p2237
(lp2238
VTank
p2239
aVFighter
p2240
asVkey
p2241
VShen
p2242
sVid
p2243
I98
ssg39
S'Shen'
p2244
sg41
g2238
sba(i__main__
Champion
p2245
(dp2246
g3
(dp2247
Varmorperlevel
p2248
F3.5
sVattackdamage
p2249
F59.67
sVmpperlevel
p2250
F0.0
sVattackspeedoffset
p2251
F-0.02
sVmp
p2252
F0.0
sVarmor
p2253
F23.88
sVhp
p2254
F614.6
sVhpregenperlevel
p2255
F0.55
sVattackspeedperlevel
p2256
F1.6
sVattackrange
p2257
F125.0
sVmovespeed
p2258
F335.0
sVattackdamageperlevel
p2259
F3.375
sVmpregenperlevel
p2260
F0.0
sVcritperlevel
p2261
F0.0
sVspellblockperlevel
p2262
F1.25
sVcrit
p2263
F0.0
sVmpregen
p2264
F0.0
sVspellblock
p2265
F32.1
sVhpregen
p2266
F7.92
sVhpperlevel
p2267
F95.0
ssg25
(dp2268
Vstats
p2269
g2247
sVname
p2270
VZac
p2271
sVtitle
p2272
Vthe Secret Weapon
p2273
sVtags
p2274
(lp2275
VTank
p2276
aVFighter
p2277
asVkey
p2278
VZac
p2279
sVid
p2280
I154
ssg39
S'Zac'
p2281
sg41
g2275
sba(i__main__
Champion
p2282
(dp2283
g3
(dp2284
Varmorperlevel
p2285
F3.9
sVattackdamage
p2286
F55.572
sVmpperlevel
p2287
F31.0
sVattackspeedoffset
p2288
F-0.03
sVmp
p2289
F317.12
sVarmor
p2290
F27.652
sVhp
p2291
F579.16
sVhpregenperlevel
p2292
F0.65
sVattackspeedperlevel
p2293
F2.95
sVattackrange
p2294
F150.0
sVmovespeed
p2295
F355.0
sVattackdamageperlevel
p2296
F2.9
sVmpregenperlevel
p2297
F0.45
sVcritperlevel
p2298
F0.0
sVspellblockperlevel
p2299
F1.25
sVcrit
p2300
F0.0
sVmpregen
p2301
F7.355
sVspellblock
p2302
F32.1
sVhpregen
p2303
F7.84
sVhpperlevel
p2304
F87.0
ssg25
(dp2305
Vstats
p2306
g2284
sVname
p2307
VPantheon
p2308
sVtitle
p2309
Vthe Artisan of War
p2310
sVtags
p2311
(lp2312
VFighter
p2313
aVAssassin
p2314
asVkey
p2315
VPantheon
p2316
sVid
p2317
I80
ssg39
S'Pantheon'
p2318
sg41
g2312
sba(i__main__
Champion
p2319
(dp2320
g3
(dp2321
Varmorperlevel
p2322
F4.0
sVattackdamage
p2323
F52.04
sVmpperlevel
p2324
F47.0
sVattackspeedoffset
p2325
F0.0
sVmp
p2326
F374.0
sVarmor
p2327
F22.72
sVhp
p2328
F516.04
sVhpregenperlevel
p2329
F0.65
sVattackspeedperlevel
p2330
F2.11
sVattackrange
p2331
F500.0
sVmovespeed
p2332
F335.0
sVattackdamageperlevel
p2333
F3.0
sVmpregenperlevel
p2334
F0.8
sVcritperlevel
p2335
F0.0
sVspellblockperlevel
p2336
F0.0
sVcrit
p2337
F0.0
sVmpregen
p2338
F6.0
sVspellblock
p2339
F30.0
sVhpregen
p2340
F7.84
sVhpperlevel
p2341
F78.0
ssg25
(dp2342
Vstats
p2343
g2321
sVname
p2344
VSwain
p2345
sVtitle
p2346
Vthe Master Tactician
p2347
sVtags
p2348
(lp2349
VMage
p2350
aVFighter
p2351
asVkey
p2352
VSwain
p2353
sVid
p2354
I50
ssg39
S'Swain'
p2355
sg41
g2349
sba(i__main__
Champion
p2356
(dp2357
g3
(dp2358
Varmorperlevel
p2359
F4.0
sVattackdamage
p2360
F52.0
sVmpperlevel
p2361
F50.0
sVattackspeedoffset
p2362
F0.0
sVmp
p2363
F350.0
sVarmor
p2364
F25.0
sVhp
p2365
F535.0
sVhpregenperlevel
p2366
F0.55
sVattackspeedperlevel
p2367
F2.0
sVattackrange
p2368
F500.0
sVmovespeed
p2369
F330.0
sVattackdamageperlevel
p2370
F3.0
sVmpregenperlevel
p2371
F0.45
sVcritperlevel
p2372
F0.0
sVspellblockperlevel
p2373
F0.0
sVcrit
p2374
F0.0
sVmpregen
p2375
F6.0
sVspellblock
p2376
F30.0
sVhpregen
p2377
F5.4
sVhpperlevel
p2378
F89.0
ssg25
(dp2379
Vstats
p2380
g2358
sVname
p2381
VBard
p2382
sVtitle
p2383
Vthe Wandering Caretaker
p2384
sVtags
p2385
(lp2386
VSupport
p2387
aVMage
p2388
asVkey
p2389
VBard
p2390
sVid
p2391
I432
ssg39
S'Bard'
p2392
sg41
g2386
sba(i__main__
Champion
p2393
(dp2394
g3
(dp2395
Varmorperlevel
p2396
F3.0
sVattackdamage
p2397
F59.72
sVmpperlevel
p2398
F42.0
sVattackspeedoffset
p2399
F-0.08
sVmp
p2400
F325.6
sVarmor
p2401
F23.04
sVhp
p2402
F542.64
sVhpregenperlevel
p2403
F0.8
sVattackspeedperlevel
p2404
F1.3
sVattackrange
p2405
F150.0
sVmovespeed
p2406
F345.0
sVattackdamageperlevel
p2407
F4.0
sVmpregenperlevel
p2408
F0.6
sVcritperlevel
p2409
F0.0
sVspellblockperlevel
p2410
F1.25
sVcrit
p2411
F0.0
sVmpregen
p2412
F8.005
sVspellblock
p2413
F32.1
sVhpregen
p2414
F10.18
sVhpperlevel
p2415
F73.0
ssg25
(dp2416
Vstats
p2417
g2395
sVname
p2418
VSion
p2419
sVtitle
p2420
VThe Undead Juggernaut
p2421
sVtags
p2422
(lp2423
VTank
p2424
aVFighter
p2425
asVkey
p2426
VSion
p2427
sVid
p2428
I14
ssg39
S'Sion'
p2429
sg41
g2423
sba(i__main__
Champion
p2430
(dp2431
g3
(dp2432
Varmorperlevel
p2433
F3.4
sVattackdamage
p2434
F55.88
sVmpperlevel
p2435
F35.0
sVattackspeedoffset
p2436
F-0.05
sVmp
p2437
F231.8
sVarmor
p2438
F19.012
sVhp
p2439
F498.44
sVhpregenperlevel
p2440
F0.55
sVattackspeedperlevel
p2441
F4.0
sVattackrange
p2442
F550.0
sVmovespeed
p2443
F330.0
sVattackdamageperlevel
p2444
F1.66
sVmpregenperlevel
p2445
F0.4
sVcritperlevel
p2446
F0.0
sVspellblockperlevel
p2447
F0.0
sVcrit
p2448
F0.0
sVmpregen
p2449
F6.97
sVspellblock
p2450
F30.0
sVhpregen
p2451
F5.42
sVhpperlevel
p2452
F83.0
ssg25
(dp2453
Vstats
p2454
g2432
sVname
p2455
VVayne
p2456
sVtitle
p2457
Vthe Night Hunter
p2458
sVtags
p2459
(lp2460
VMarksman
p2461
aVAssassin
p2462
asVkey
p2463
VVayne
p2464
sVid
p2465
I67
ssg39
S'Vayne'
p2466
sg41
g2460
sba(i__main__
Champion
p2467
(dp2468
g3
(dp2469
Varmorperlevel
p2470
F3.5
sVattackdamage
p2471
F59.18
sVmpperlevel
p2472
F42.0
sVattackspeedoffset
p2473
F-0.02
sVmp
p2474
F325.6
sVarmor
p2475
F24.88
sVhp
p2476
F561.2
sVhpregenperlevel
p2477
F0.9
sVattackspeedperlevel
p2478
F3.48
sVattackrange
p2479
F125.0
sVmovespeed
p2480
F350.0
sVattackdamageperlevel
p2481
F3.5
sVmpregenperlevel
p2482
F0.5
sVcritperlevel
p2483
F0.0
sVspellblockperlevel
p2484
F1.25
sVcrit
p2485
F0.0
sVmpregen
p2486
F7.44
sVspellblock
p2487
F32.1
sVhpregen
p2488
F9.01
sVhpperlevel
p2489
F90.0
ssg25
(dp2490
Vstats
p2491
g2469
sVname
p2492
VNasus
p2493
sVtitle
p2494
Vthe Curator of the Sands
p2495
sVtags
p2496
(lp2497
VFighter
p2498
aVTank
p2499
asVkey
p2500
VNasus
p2501
sVid
p2502
I75
ssg39
S'Nasus'
p2503
sg41
g2497
sba(i__main__
Champion
p2504
(dp2505
g3
(dp2506
Varmorperlevel
p2507
F3.15
sVattackdamage
p2508
F49.954
sVmpperlevel
p2509
F38.0
sVattackspeedoffset
p2510
F-0.04
sVmp
p2511
F265.84
sVarmor
p2512
F20.542
sVhp
p2513
F521.76
sVhpregenperlevel
p2514
F0.6
sVattackspeedperlevel
p2515
F3.22
sVattackrange
p2516
F525.0
sVmovespeed
p2517
F330.0
sVattackdamageperlevel
p2518
F3.3
sVmpregenperlevel
p2519
F0.8
sVcritperlevel
p2520
F0.0
sVspellblockperlevel
p2521
F0.0
sVcrit
p2522
F0.0
sVmpregen
p2523
F6.0
sVspellblock
p2524
F30.0
sVhpregen
p2525
F5.505
sVhpperlevel
p2526
F82.0
ssg25
(dp2527
Vstats
p2528
g2506
sVname
p2529
VTwisted Fate
p2530
sVtitle
p2531
Vthe Card Master
p2532
sVtags
p2533
(lp2534
VMage
p2535
asVkey
p2536
VTwistedFate
p2537
sVid
p2538
I4
ssg39
S'Twisted Fate'
p2539
sg41
g2534
sba(i__main__
Champion
p2540
(dp2541
g3
(dp2542
Varmorperlevel
p2543
F3.5
sVattackdamage
p2544
F61.156
sVmpperlevel
p2545
F40.0
sVattackspeedoffset
p2546
F0.0
sVmp
p2547
F272.2
sVarmor
p2548
F28.88
sVhp
p2549
F574.4
sVhpregenperlevel
p2550
F0.85
sVattackspeedperlevel
p2551
F1.44
sVattackrange
p2552
F125.0
sVmovespeed
p2553
F345.0
sVattackdamageperlevel
p2554
F4.2
sVmpregenperlevel
p2555
F0.45
sVcritperlevel
p2556
F0.0
sVspellblockperlevel
p2557
F1.25
sVcrit
p2558
F0.0
sVmpregen
p2559
F7.205
sVspellblock
p2560
F32.1
sVhpregen
p2561
F8.925
sVhpperlevel
p2562
F80.0
ssg25
(dp2563
Vstats
p2564
g2542
sVname
p2565
VCho'Gath
p2566
sVtitle
p2567
Vthe Terror of the Void
p2568
sVtags
p2569
(lp2570
VTank
p2571
aVMage
p2572
asVkey
p2573
VChogath
p2574
sVid
p2575
I31
ssg39
S"Cho'Gath"
p2576
sg41
g2570
sba(i__main__
Champion
p2577
(dp2578
g3
(dp2579
Varmorperlevel
p2580
F4.0
sVattackdamage
p2581
F58.286
sVmpperlevel
p2582
F30.0
sVattackspeedoffset
p2583
F-0.05
sVmp
p2584
F270.4
sVarmor
p2585
F25.47
sVhp
p2586
F593.32
sVhpregenperlevel
p2587
F0.75
sVattackspeedperlevel
p2588
F2.67
sVattackrange
p2589
F125.0
sVmovespeed
p2590
F345.0
sVattackdamageperlevel
p2591
F3.2
sVmpregenperlevel
p2592
F0.45
sVcritperlevel
p2593
F0.0
sVspellblockperlevel
p2594
F1.25
sVcrit
p2595
F0.0
sVmpregen
p2596
F7.505
sVspellblock
p2597
F32.1
sVhpregen
p2598
F8.71
sVhpperlevel
p2599
F99.0
ssg25
(dp2600
Vstats
p2601
g2579
sVname
p2602
VUdyr
p2603
sVtitle
p2604
Vthe Spirit Walker
p2605
sVtags
p2606
(lp2607
VFighter
p2608
aVTank
p2609
asVkey
p2610
VUdyr
p2611
sVid
p2612
I77
ssg39
S'Udyr'
p2613
sg41
g2607
sba(i__main__
Champion
p2614
(dp2615
g3
(dp2616
Varmorperlevel
p2617
F3.8
sVattackdamage
p2618
F55.46
sVmpperlevel
p2619
F60.0
sVattackspeedoffset
p2620
F0.0
sVmp
p2621
F340.8
sVarmor
p2622
F25.384
sVhp
p2623
F547.48
sVhpregenperlevel
p2624
F0.6
sVattackspeedperlevel
p2625
F1.53
sVattackrange
p2626
F450.0
sVmovespeed
p2627
F335.0
sVattackdamageperlevel
p2628
F3.5
sVmpregenperlevel
p2629
F0.8
sVcritperlevel
p2630
F0.0
sVspellblockperlevel
p2631
F0.0
sVcrit
p2632
F0.0
sVmpregen
p2633
F8.5
sVspellblock
p2634
F30.0
sVhpregen
p2635
F5.705
sVhpperlevel
p2636
F86.0
ssg25
(dp2637
Vstats
p2638
g2616
sVname
p2639
VMorgana
p2640
sVtitle
p2641
VFallen Angel
p2642
sVtags
p2643
(lp2644
VMage
p2645
aVSupport
p2646
asVkey
p2647
VMorgana
p2648
sVid
p2649
I25
ssg39
S'Morgana'
p2650
sg41
g2644
sba(i__main__
Champion
p2651
(dp2652
g3
(dp2653
Varmorperlevel
p2654
F3.5
sVattackdamage
p2655
F59.544
sVmpperlevel
p2656
F30.0
sVattackspeedoffset
p2657
F-0.05
sVmp
p2658
F270.4
sVarmor
p2659
F26.38
sVhp
p2660
F584.48
sVhpregenperlevel
p2661
F0.65
sVattackspeedperlevel
p2662
F2.67
sVattackrange
p2663
F125.0
sVmovespeed
p2664
F345.0
sVattackdamageperlevel
p2665
F3.3
sVmpregenperlevel
p2666
F0.65
sVcritperlevel
p2667
F0.0
sVspellblockperlevel
p2668
F1.25
sVcrit
p2669
F0.0
sVmpregen
p2670
F8.09
sVspellblock
p2671
F32.1
sVhpregen
p2672
F8.09
sVhpperlevel
p2673
F86.0
ssg25
(dp2674
Vstats
p2675
g2653
sVname
p2676
VVolibear
p2677
sVtitle
p2678
Vthe Thunder's Roar
p2679
sVtags
p2680
(lp2681
VFighter
p2682
aVTank
p2683
asVkey
p2684
VVolibear
p2685
sVid
p2686
I106
ssg39
S'Volibear'
p2687
sg41
g2681
sba(i__main__
Champion
p2688
(dp2689
g3
(dp2690
Varmorperlevel
p2691
F3.5
sVattackdamage
p2692
F53.66
sVmpperlevel
p2693
F35.0
sVattackspeedoffset
p2694
F0.1
sVmp
p2695
F313.8
sVarmor
p2696
F22.88
sVhp
p2697
F524.4
sVhpregenperlevel
p2698
F0.55
sVattackspeedperlevel
p2699
F4.0
sVattackrange
p2700
F650.0
sVmovespeed
p2701
F325.0
sVattackdamageperlevel
p2702
F2.18
sVmpregenperlevel
p2703
F0.55
sVcritperlevel
p2704
F0.0
sVspellblockperlevel
p2705
F0.0
sVcrit
p2706
F0.0
sVmpregen
p2707
F7.42
sVspellblock
p2708
F30.0
sVhpregen
p2709
F5.67
sVhpperlevel
p2710
F80.0
ssg25
(dp2711
Vstats
p2712
g2690
sVname
p2713
VCaitlyn
p2714
sVtitle
p2715
Vthe Sheriff of Piltover
p2716
sVtags
p2717
(lp2718
VMarksman
p2719
asVkey
p2720
VCaitlyn
p2721
sVid
p2722
I51
ssg39
S'Caitlyn'
p2723
sg41
g2718
sba(i__main__
Champion
p2724
(dp2725
g3
(dp2726
Varmorperlevel
p2727
F4.0
sVattackdamage
p2728
F56.0
sVmpperlevel
p2729
F37.5
sVattackspeedoffset
p2730
F0.0
sVmp
p2731
F263.0
sVarmor
p2732
F30.0
sVhp
p2733
F582.24
sVhpregenperlevel
p2734
F0.95
sVattackspeedperlevel
p2735
F1.0
sVattackrange
p2736
F175.0
sVmovespeed
p2737
F340.0
sVattackdamageperlevel
p2738
F5.0
sVmpregenperlevel
p2739
F0.35
sVcritperlevel
p2740
F0.0
sVspellblockperlevel
p2741
F1.25
sVcrit
p2742
F0.0
sVmpregen
p2743
F6.585
sVspellblock
p2744
F32.1
sVhpregen
p2745
F9.845
sVhpperlevel
p2746
F100.0
ssg25
(dp2747
Vstats
p2748
g2726
sVname
p2749
VDarius
p2750
sVtitle
p2751
Vthe Hand of Noxus
p2752
sVtags
p2753
(lp2754
VFighter
p2755
aVTank
p2756
asVkey
p2757
VDarius
p2758
sVid
p2759
I122
ssg39
S'Darius'
p2760
sg41
g2754
sba(i__main__
Champion
p2761
(dp2762
g3
(dp2763
Varmorperlevel
p2764
F3.5
sVattackdamage
p2765
F59.208
sVmpperlevel
p2766
F35.0
sVattackspeedoffset
p2767
F-0.065
sVmp
p2768
F273.8
sVarmor
p2769
F26.88
sVhp
p2770
F582.8
sVhpregenperlevel
p2771
F0.75
sVattackspeedperlevel
p2772
F2.7
sVattackrange
p2773
F125.0
sVmovespeed
p2774
F345.0
sVattackdamageperlevel
p2775
F3.1
sVmpregenperlevel
p2776
F0.45
sVcritperlevel
p2777
F0.0
sVspellblockperlevel
p2778
F1.25
sVcrit
p2779
F0.0
sVmpregen
p2780
F6.755
sVspellblock
p2781
F32.1
sVhpregen
p2782
F8.26
sVhpperlevel
p2783
F85.0
ssg25
(dp2784
Vstats
p2785
g2763
sVname
p2786
VNocturne
p2787
sVtitle
p2788
Vthe Eternal Nightmare
p2789
sVtags
p2790
(lp2791
VAssassin
p2792
aVFighter
p2793
asVkey
p2794
VNocturne
p2795
sVid
p2796
I56
ssg39
S'Nocturne'
p2797
sg41
g2791
sba(i__main__
Champion
p2798
(dp2799
g3
(dp2800
Varmorperlevel
p2801
F3.8
sVattackdamage
p2802
F51.64
sVmpperlevel
p2803
F60.0
sVattackspeedoffset
p2804
F0.0
sVmp
p2805
F360.8
sVarmor
p2806
F19.134
sVhp
p2807
F499.28
sVhpregenperlevel
p2808
F0.5
sVattackspeedperlevel
p2809
F2.13
sVattackrange
p2810
F550.0
sVmovespeed
p2811
F335.0
sVattackdamageperlevel
p2812
F3.0
sVmpregenperlevel
p2813
F0.8
sVcritperlevel
p2814
F0.0
sVspellblockperlevel
p2815
F0.0
sVcrit
p2816
F0.0
sVmpregen
p2817
F8.5
sVspellblock
p2818
F30.0
sVhpregen
p2819
F5.44
sVhpperlevel
p2820
F77.0
ssg25
(dp2821
Vstats
p2822
g2800
sVname
p2823
VZilean
p2824
sVtitle
p2825
Vthe Chronokeeper
p2826
sVtags
p2827
(lp2828
VSupport
p2829
aVMage
p2830
asVkey
p2831
VZilean
p2832
sVid
p2833
I26
ssg39
S'Zilean'
p2834
sg41
g2828
sba(i__main__
Champion
p2835
(dp2836
g3
(dp2837
Varmorperlevel
p2838
F3.0
sVattackdamage
p2839
F52.0
sVmpperlevel
p2840
F42.0
sVattackspeedoffset
p2841
F-0.02
sVmp
p2842
F350.56
sVarmor
p2843
F19.04
sVhp
p2844
F524.4
sVhpregenperlevel
p2845
F0.55
sVattackspeedperlevel
p2846
F1.5
sVattackrange
p2847
F525.0
sVmovespeed
p2848
F325.0
sVattackdamageperlevel
p2849
F2.8
sVmpregenperlevel
p2850
F0.8
sVcritperlevel
p2851
F0.0
sVspellblockperlevel
p2852
F0.0
sVcrit
p2853
F0.0
sVmpregen
p2854
F6.0
sVspellblock
p2855
F30.0
sVhpregen
p2856
F6.92
sVhpperlevel
p2857
F80.0
ssg25
(dp2858
Vstats
p2859
g2837
sVname
p2860
VAzir
p2861
sVtitle
p2862
Vthe Emperor of the Sands
p2863
sVtags
p2864
(lp2865
VMage
p2866
aVMarksman
p2867
asVkey
p2868
VAzir
p2869
sVid
p2870
I268
ssg39
S'Azir'
p2871
sg41
g2865
sba(i__main__
Champion
p2872
(dp2873
g3
(dp2874
Varmorperlevel
p2875
F3.5
sVattackdamage
p2876
F61.036
sVmpperlevel
p2877
F0.0
sVattackspeedoffset
p2878
F-0.03
sVmp
p2879
F100.0
sVarmor
p2880
F25.88
sVhp
p2881
F584.4
sVhpregenperlevel
p2882
F0.6
sVattackspeedperlevel
p2883
F1.85
sVattackrange
p2884
F125.0
sVmovespeed
p2885
F345.0
sVattackdamageperlevel
p2886
F3.2
sVmpregenperlevel
p2887
F0.0
sVcritperlevel
p2888
F0.0
sVspellblockperlevel
p2889
F1.25
sVcrit
p2890
F0.0
sVmpregen
p2891
F0.0
sVspellblock
p2892
F32.1
sVhpregen
p2893
F8.005
sVhpperlevel
p2894
F80.0
ssg25
(dp2895
Vstats
p2896
g2874
sVname
p2897
VRumble
p2898
sVtitle
p2899
Vthe Mechanized Menace
p2900
sVtags
p2901
(lp2902
VFighter
p2903
aVMage
p2904
asVkey
p2905
VRumble
p2906
sVid
p2907
I68
ssg39
S'Rumble'
p2908
sg41
g2902
sba(i__main__
Champion
p2909
(dp2910
g3
(dp2911
Varmorperlevel
p2912
F3.8
sVattackdamage
p2913
F57.156
sVmpperlevel
p2914
F40.0
sVattackspeedoffset
p2915
F0.0
sVmp
p2916
F272.2
sVarmor
p2917
F29.384
sVhp
p2918
F601.28
sVhpregenperlevel
p2919
F0.85
sVattackspeedperlevel
p2920
F2.1
sVattackrange
p2921
F125.0
sVmovespeed
p2922
F335.0
sVattackdamageperlevel
p2923
F4.5
sVmpregenperlevel
p2924
F0.45
sVcritperlevel
p2925
F0.0
sVspellblockperlevel
p2926
F1.25
sVcrit
p2927
F0.0
sVmpregen
p2928
F7.205
sVspellblock
p2929
F32.1
sVhpregen
p2930
F8.925
sVhpperlevel
p2931
F90.0
ssg25
(dp2932
Vstats
p2933
g2911
sVname
p2934
VSkarner
p2935
sVtitle
p2936
Vthe Crystal Vanguard
p2937
sVtags
p2938
(lp2939
VFighter
p2940
aVTank
p2941
asVkey
p2942
VSkarner
p2943
sVid
p2944
I72
ssg39
S'Skarner'
p2945
sg41
g2939
sba(i__main__
Champion
p2946
(dp2947
g3
(dp2948
Varmorperlevel
p2949
F3.75
sVattackdamage
p2950
F47.54
sVmpperlevel
p2951
F40.0
sVattackspeedoffset
p2952
F-0.0947
sVmp
p2953
F267.2
sVarmor
p2954
F24.3
sVhp
p2955
F515.76
sVhpregenperlevel
p2956
F0.65
sVattackspeedperlevel
p2957
F3.38
sVattackrange
p2958
F500.0
sVmovespeed
p2959
F330.0
sVattackdamageperlevel
p2960
F3.0
sVmpregenperlevel
p2961
F0.45
sVcritperlevel
p2962
F0.0
sVspellblockperlevel
p2963
F0.0
sVcrit
p2964
F0.0
sVmpregen
p2965
F7.205
sVspellblock
p2966
F30.0
sVhpregen
p2967
F5.74
sVhpperlevel
p2968
F82.0
ssg25
(dp2969
Vstats
p2970
g2948
sVname
p2971
VTeemo
p2972
sVtitle
p2973
Vthe Swift Scout
p2974
sVtags
p2975
(lp2976
VMarksman
p2977
aVAssassin
p2978
asVkey
p2979
VTeemo
p2980
sVid
p2981
I17
ssg39
S'Teemo'
p2982
sg41
g2976
sba(i__main__
Champion
p2983
(dp2984
g3
(dp2985
Varmorperlevel
p2986
F3.3
sVattackdamage
p2987
F52.048
sVmpperlevel
p2988
F55.0
sVattackspeedoffset
p2989
F-0.03
sVmp
p2990
F312.4
sVarmor
p2991
F24.544
sVhp
p2992
F586.52
sVhpregenperlevel
p2993
F0.6
sVattackspeedperlevel
p2994
F2.9
sVattackrange
p2995
F425.0
sVmovespeed
p2996
F335.0
sVattackdamageperlevel
p2997
F3.6
sVmpregenperlevel
p2998
F0.65
sVcritperlevel
p2999
F0.0
sVspellblockperlevel
p3000
F0.0
sVcrit
p3001
F0.0
sVmpregen
p3002
F8.59
sVspellblock
p3003
F30.0
sVhpregen
p3004
F6.505
sVhpperlevel
p3005
F89.0
ssg25
(dp3006
Vstats
p3007
g2985
sVname
p3008
VUrgot
p3009
sVtitle
p3010
Vthe Headsman's Pride
p3011
sVtags
p3012
(lp3013
VMarksman
p3014
aVFighter
p3015
asVkey
p3016
VUrgot
p3017
sVid
p3018
I6
ssg39
S'Urgot'
p3019
sg41
g3013
sba(i__main__
Champion
p3020
(dp3021
g3
(dp3022
Varmorperlevel
p3023
F3.8
sVattackdamage
p3024
F53.384
sVmpperlevel
p3025
F40.0
sVattackspeedoffset
p3026
F-0.02
sVmp
p3027
F287.2
sVarmor
p3028
F23.544
sVhp
p3029
F613.12
sVhpregenperlevel
p3030
F0.85
sVattackspeedperlevel
p3031
F2.18
sVattackrange
p3032
F125.0
sVmovespeed
p3033
F335.0
sVattackdamageperlevel
p3034
F3.8
sVmpregenperlevel
p3035
F0.525
sVcritperlevel
p3036
F0.0
sVspellblockperlevel
p3037
F1.25
sVcrit
p3038
F0.0
sVmpregen
p3039
F7.38
sVspellblock
p3040
F32.1
sVhpregen
p3041
F8.875
sVhpperlevel
p3042
F84.0
ssg25
(dp3043
Vstats
p3044
g3022
sVname
p3045
VAmumu
p3046
sVtitle
p3047
Vthe Sad Mummy
p3048
sVtags
p3049
(lp3050
VTank
p3051
aVMage
p3052
asVkey
p3053
VAmumu
p3054
sVid
p3055
I32
ssg39
S'Amumu'
p3056
sg41
g3050
sba(i__main__
Champion
p3057
(dp3058
g3
(dp3059
Varmorperlevel
p3060
F3.5
sVattackdamage
p3061
F61.97
sVmpperlevel
p3062
F47.0
sVattackspeedoffset
p3063
F-0.02
sVmp
p3064
F369.0
sVarmor
p3065
F26.88
sVhp
p3066
F577.8
sVhpregenperlevel
p3067
F0.75
sVattackspeedperlevel
p3068
F1.2
sVattackrange
p3069
F125.0
sVmovespeed
p3070
F335.0
sVattackdamageperlevel
p3071
F3.375
sVmpregenperlevel
p3072
F0.8
sVcritperlevel
p3073
F0.0
sVspellblockperlevel
p3074
F1.25
sVcrit
p3075
F0.0
sVmpregen
p3076
F6.0
sVspellblock
p3077
F32.1
sVhpregen
p3078
F8.71
sVhpperlevel
p3079
F85.0
ssg25
(dp3080
Vstats
p3081
g3059
sVname
p3082
VGalio
p3083
sVtitle
p3084
Vthe Sentinel's Sorrow
p3085
sVtags
p3086
(lp3087
VTank
p3088
aVMage
p3089
asVkey
p3090
VGalio
p3091
sVid
p3092
I3
ssg39
S'Galio'
p3093
sg41
g3087
sba(i__main__
Champion
p3094
(dp3095
g3
(dp3096
Varmorperlevel
p3097
F3.0
sVattackdamage
p3098
F55.536
sVmpperlevel
p3099
F40.0
sVattackspeedoffset
p3100
F0.0
sVmp
p3101
F307.2
sVarmor
p3102
F19.04
sVhp
p3103
F476.0
sVhpregenperlevel
p3104
F1.75
sVattackspeedperlevel
p3105
F1.36
sVattackrange
p3106
F550.0
sVmovespeed
p3107
F340.0
sVattackdamageperlevel
p3108
F2.7
sVmpregenperlevel
p3109
F0.8
sVcritperlevel
p3110
F0.0
sVspellblockperlevel
p3111
F0.0
sVcrit
p3112
F0.0
sVmpregen
p3113
F6.0
sVspellblock
p3114
F30.0
sVhpregen
p3115
F11.005
sVhpperlevel
p3116
F75.0
ssg25
(dp3117
Vstats
p3118
g3096
sVname
p3119
VHeimerdinger
p3120
sVtitle
p3121
Vthe Revered Inventor
p3122
sVtags
p3123
(lp3124
VMage
p3125
aVSupport
p3126
asVkey
p3127
VHeimerdinger
p3128
sVid
p3129
I74
ssg39
S'Heimerdinger'
p3130
sg41
g3124
sba(i__main__
Champion
p3131
(dp3132
g3
(dp3133
Varmorperlevel
p3134
F3.4
sVattackdamage
p3135
F56.508
sVmpperlevel
p3136
F32.0
sVattackspeedoffset
p3137
F-0.05
sVmp
p3138
F280.0
sVarmor
p3139
F21.212
sVhp
p3140
F527.72
sVhpregenperlevel
p3141
F0.55
sVattackspeedperlevel
p3142
F3.33
sVattackrange
p3143
F600.0
sVmovespeed
p3144
F325.0
sVattackdamageperlevel
p3145
F2.26
sVmpregenperlevel
p3146
F0.4
sVcritperlevel
p3147
F0.0
sVspellblockperlevel
p3148
F0.0
sVcrit
p3149
F0.0
sVmpregen
p3150
F6.97
sVspellblock
p3151
F30.0
sVhpregen
p3152
F5.42
sVhpperlevel
p3153
F79.0
ssg25
(dp3154
Vstats
p3155
g3133
sVname
p3156
VAshe
p3157
sVtitle
p3158
Vthe Frost Archer
p3159
sVtags
p3160
(lp3161
VMarksman
p3162
aVSupport
p3163
asVkey
p3164
VAshe
p3165
sVid
p3166
I22
ssg39
S'Ashe'
p3167
sg41
g3161
sba(i__main__
Champion
p3168
(dp3169
g3
(dp3170
Varmorperlevel
p3171
F3.5
sVattackdamage
p3172
F54.937875658
sVmpperlevel
p3173
F42.0
sVattackspeedoffset
p3174
F0.0
sVmp
p3175
F375.6
sVarmor
p3176
F21.88
sVhp
p3177
F507.68
sVhpregenperlevel
p3178
F0.55
sVattackspeedperlevel
p3179
F1.36
sVattackrange
p3180
F525.0
sVmovespeed
p3181
F340.0
sVattackdamageperlevel
p3182
F3.14159265359
sVmpregenperlevel
p3183
F0.8
sVcritperlevel
p3184
F0.0
sVspellblockperlevel
p3185
F0.0
sVcrit
p3186
F0.0
sVmpregen
p3187
F6.0
sVspellblock
p3188
F30.0
sVhpregen
p3189
F5.42
sVhpperlevel
p3190
F76.0
ssg25
(dp3191
Vstats
p3192
g3170
sVname
p3193
VVel'Koz
p3194
sVtitle
p3195
Vthe Eye of the Void
p3196
sVtags
p3197
(lp3198
VMage
p3199
asVkey
p3200
VVelkoz
p3201
sVid
p3202
I161
ssg39
S"Vel'Koz"
p3203
sg41
g3198
sba(i__main__
Champion
p3204
(dp3205
g3
(dp3206
Varmorperlevel
p3207
F3.5
sVattackdamage
p3208
F62.32
sVmpperlevel
p3209
F45.0
sVattackspeedoffset
p3210
F0.02
sVmp
p3211
F290.6
sVarmor
p3212
F27.88
sVhp
p3213
F542.76
sVhpregenperlevel
p3214
F0.55
sVattackspeedperlevel
p3215
F1.81
sVattackrange
p3216
F125.0
sVmovespeed
p3217
F345.0
sVattackdamageperlevel
p3218
F3.375
sVmpregenperlevel
p3219
F0.55
sVcritperlevel
p3220
F0.0
sVspellblockperlevel
p3221
F1.25
sVcrit
p3222
F0.0
sVmpregen
p3223
F7.52
sVspellblock
p3224
F32.1
sVhpregen
p3225
F8.02
sVhpperlevel
p3226
F82.0
ssg25
(dp3227
Vstats
p3228
g3206
sVname
p3229
VSinged
p3230
sVtitle
p3231
Vthe Mad Chemist
p3232
sVtags
p3233
(lp3234
VTank
p3235
aVFighter
p3236
asVkey
p3237
VSinged
p3238
sVid
p3239
I27
ssg39
S'Singed'
p3240
sg41
g3234
sba(i__main__
Champion
p3241
(dp3242
g3
(dp3243
Varmorperlevel
p3244
F3.4
sVattackdamage
p3245
F54.66
sVmpperlevel
p3246
F33.0
sVattackspeedoffset
p3247
F-0.05
sVmp
p3248
F360.48
sVarmor
p3249
F23.212
sVhp
p3250
F537.76
sVhpregenperlevel
p3251
F0.55
sVattackspeedperlevel
p3252
F3.0
sVattackrange
p3253
F575.0
sVmovespeed
p3254
F330.0
sVattackdamageperlevel
p3255
F2.41
sVmpregenperlevel
p3256
F0.8
sVcritperlevel
p3257
F0.0
sVspellblockperlevel
p3258
F0.0
sVcrit
p3259
F0.0
sVmpregen
p3260
F7.34
sVspellblock
p3261
F30.0
sVhpregen
p3262
F5.42
sVhpperlevel
p3263
F82.0
ssg25
(dp3264
Vstats
p3265
g3243
sVname
p3266
VVarus
p3267
sVtitle
p3268
Vthe Arrow of Retribution
p3269
sVtags
p3270
(lp3271
VMarksman
p3272
aVMage
p3273
asVkey
p3274
VVarus
p3275
sVid
p3276
I110
ssg39
S'Varus'
p3277
sg41
g3271
sba(i__main__
Champion
p3278
(dp3279
g3
(dp3280
Varmorperlevel
p3281
F3.0
sVattackdamage
p3282
F55.46
sVmpperlevel
p3283
F40.0
sVattackspeedoffset
p3284
F-0.08
sVmp
p3285
F287.2
sVarmor
p3286
F23.04
sVhp
p3287
F525.08
sVhpregenperlevel
p3288
F0.6
sVattackspeedperlevel
p3289
F3.38
sVattackrange
p3290
F550.0
sVmovespeed
p3291
F330.0
sVattackdamageperlevel
p3292
F2.41
sVmpregenperlevel
p3293
F0.45
sVcritperlevel
p3294
F0.0
sVspellblockperlevel
p3295
F0.0
sVcrit
p3296
F0.0
sVmpregen
p3297
F7.255
sVspellblock
p3298
F30.0
sVhpregen
p3299
F6.005
sVhpperlevel
p3300
F81.0
ssg25
(dp3301
Vstats
p3302
g3280
sVname
p3303
VTwitch
p3304
sVtitle
p3305
Vthe Plague Rat
p3306
sVtags
p3307
(lp3308
VMarksman
p3309
aVAssassin
p3310
asVkey
p3311
VTwitch
p3312
sVid
p3313
I29
ssg39
S'Twitch'
p3314
sg41
g3308
sba(i__main__
Champion
p3315
(dp3316
g3
(dp3317
Varmorperlevel
p3318
F3.0
sVattackdamage
p3319
F57.88
sVmpperlevel
p3320
F0.0
sVattackspeedoffset
p3321
F0.0
sVmp
p3322
F0.0
sVarmor
p3323
F27.536
sVhp
p3324
F616.28
sVhpregenperlevel
p3325
F0.5
sVattackspeedperlevel
p3326
F2.9
sVattackrange
p3327
F175.0
sVmovespeed
p3328
F340.0
sVattackdamageperlevel
p3329
F4.5
sVmpregenperlevel
p3330
F0.0
sVcritperlevel
p3331
F0.0
sVspellblockperlevel
p3332
F1.25
sVcrit
p3333
F0.0
sVmpregen
p3334
F0.0
sVspellblock
p3335
F32.1
sVhpregen
p3336
F7.84
sVhpperlevel
p3337
F84.25
ssg25
(dp3338
Vstats
p3339
g3317
sVname
p3340
VGaren
p3341
sVtitle
p3342
VThe Might of Demacia
p3343
sVtags
p3344
(lp3345
VFighter
p3346
aVTank
p3347
asVkey
p3348
VGaren
p3349
sVid
p3350
I86
ssg39
S'Garen'
p3351
sg41
g3345
sba(i__main__
Champion
p3352
(dp3353
g3
(dp3354
Varmorperlevel
p3355
F3.6
sVattackdamage
p3356
F53.04
sVmpperlevel
p3357
F40.0
sVattackspeedoffset
p3358
F0.0
sVmp
p3359
F297.2
sVarmor
p3360
F26.048
sVhp
p3361
F589.2
sVhpregenperlevel
p3362
F0.85
sVattackspeedperlevel
p3363
F2.25
sVattackrange
p3364
F150.0
sVmovespeed
p3365
F345.0
sVattackdamageperlevel
p3366
F3.0
sVmpregenperlevel
p3367
F0.8
sVcritperlevel
p3368
F0.0
sVspellblockperlevel
p3369
F1.25
sVcrit
p3370
F0.0
sVmpregen
p3371
F6.0
sVspellblock
p3372
F32.1
sVhpregen
p3373
F7.425
sVhpperlevel
p3374
F90.0
ssg25
(dp3375
Vstats
p3376
g3354
sVname
p3377
VDiana
p3378
sVtitle
p3379
VScorn of the Moon
p3380
sVtags
p3381
(lp3382
VFighter
p3383
aVMage
p3384
asVkey
p3385
VDiana
p3386
sVid
p3387
I131
ssg39
S'Diana'
p3388
sg41
g3382
sba(i__main__
Champion
p3389
(dp3390
g3
(dp3391
Varmorperlevel
p3392
F3.0
sVattackdamage
p3393
F60.04
sVmpperlevel
p3394
F42.0
sVattackspeedoffset
p3395
F-0.08
sVmp
p3396
F250.56
sVarmor
p3397
F24.04
sVhp
p3398
F598.56
sVhpregenperlevel
p3399
F0.65
sVattackspeedperlevel
p3400
F2.0
sVattackrange
p3401
F125.0
sVmovespeed
p3402
F355.0
sVattackdamageperlevel
p3403
F3.0
sVmpregenperlevel
p3404
F0.45
sVcritperlevel
p3405
F0.0
sVspellblockperlevel
p3406
F1.25
sVcrit
p3407
F0.0
sVmpregen
p3408
F7.255
sVspellblock
p3409
F32.1
sVhpregen
p3410
F7.59
sVhpperlevel
p3411
F92.0
ssg25
(dp3412
Vstats
p3413
g3391
sVname
p3414
VMaster Yi
p3415
sVtitle
p3416
Vthe Wuju Bladesman
p3417
sVtags
p3418
(lp3419
VAssassin
p3420
aVFighter
p3421
asVkey
p3422
VMasterYi
p3423
sVid
p3424
I11
ssg39
S'Master Yi'
p3425
sg41
g3419
sba(i__main__
Champion
p3426
(dp3427
g3
(dp3428
Varmorperlevel
p3429
F3.35
sVattackdamage
p3430
F50.54
sVmpperlevel
p3431
F50.0
sVattackspeedoffset
p3432
F0.0
sVmp
p3433
F324.0
sVarmor
p3434
F22.128
sVhp
p3435
F529.4
sVhpregenperlevel
p3436
F0.6
sVattackspeedperlevel
p3437
F1.75
sVattackrange
p3438
F550.0
sVmovespeed
p3439
F330.0
sVattackdamageperlevel
p3440
F3.0
sVmpregenperlevel
p3441
F0.8
sVcritperlevel
p3442
F0.0
sVspellblockperlevel
p3443
F0.0
sVcrit
p3444
F0.0
sVmpregen
p3445
F6.0
sVspellblock
p3446
F30.0
sVhpregen
p3447
F5.705
sVhpperlevel
p3448
F80.0
ssg25
(dp3449
Vstats
p3450
g3428
sVname
p3451
VElise
p3452
sVtitle
p3453
Vthe Spider Queen
p3454
sVtags
p3455
(lp3456
VMage
p3457
aVFighter
p3458
asVkey
p3459
VElise
p3460
sVid
p3461
I60
ssg39
S'Elise'
p3462
sg41
g3456
sba(i__main__
Champion
p3463
(dp3464
g3
(dp3465
Varmorperlevel
p3466
F3.5
sVattackdamage
p3467
F61.1116
sVmpperlevel
p3468
F38.0
sVattackspeedoffset
p3469
F0.0
sVmp
p3470
F278.84
sVarmor
p3471
F24.38
sVhp
p3472
F613.36
sVhpregenperlevel
p3473
F0.85
sVattackspeedperlevel
p3474
F2.125
sVattackrange
p3475
F125.0
sVmovespeed
p3476
F330.0
sVattackdamageperlevel
p3477
F3.62
sVmpregenperlevel
p3478
F0.8
sVcritperlevel
p3479
F0.0
sVspellblockperlevel
p3480
F1.25
sVcrit
p3481
F0.0
sVmpregen
p3482
F8.5
sVspellblock
p3483
F32.1
sVhpregen
p3484
F8.675
sVhpperlevel
p3485
F106.0
ssg25
(dp3486
Vstats
p3487
g3465
sVname
p3488
VAlistar
p3489
sVtitle
p3490
Vthe Minotaur
p3491
sVtags
p3492
(lp3493
VTank
p3494
aVSupport
p3495
asVkey
p3496
VAlistar
p3497
sVid
p3498
I12
ssg39
S'Alistar'
p3499
sg41
g3493
sba(i__main__
Champion
p3500
(dp3501
g3
(dp3502
Varmorperlevel
p3503
F3.5
sVattackdamage
p3504
F58.0
sVmpperlevel
p3505
F0.0
sVattackspeedoffset
p3506
F-0.05
sVmp
p3507
F0.0
sVarmor
p3508
F26.88
sVhp
p3509
F510.0
sVhpregenperlevel
p3510
F0.55
sVattackspeedperlevel
p3511
F2.74
sVattackrange
p3512
F125.0
sVmovespeed
p3513
F345.0
sVattackdamageperlevel
p3514
F3.2
sVmpregenperlevel
p3515
F0.0
sVcritperlevel
p3516
F0.0
sVspellblockperlevel
p3517
F1.25
sVcrit
p3518
F0.0
sVmpregen
p3519
F0.0
sVspellblock
p3520
F32.1
sVhpregen
p3521
F4.5
sVhpperlevel
p3522
F83.0
ssg25
(dp3523
Vstats
p3524
g3502
sVname
p3525
VKatarina
p3526
sVtitle
p3527
Vthe Sinister Blade
p3528
sVtags
p3529
(lp3530
VAssassin
p3531
aVMage
p3532
asVkey
p3533
VKatarina
p3534
sVid
p3535
I55
ssg39
S'Katarina'
p3536
sg41
g3530
sba(i__main__
Champion
p3537
(dp3538
g3
(dp3539
Varmorperlevel
p3540
F3.0
sVattackdamage
p3541
F59.0
sVmpperlevel
p3542
F50.0
sVattackspeedoffset
p3543
F0.0
sVmp
p3544
F280.0
sVarmor
p3545
F27.0
sVhp
p3546
F580.0
sVhpregenperlevel
p3547
F0.9
sVattackspeedperlevel
p3548
F3.3
sVattackrange
p3549
F125.0
sVmovespeed
p3550
F340.0
sVattackdamageperlevel
p3551
F3.0
sVmpregenperlevel
p3552
F0.8
sVcritperlevel
p3553
F0.0
sVspellblockperlevel
p3554
F1.25
sVcrit
p3555
F0.0
sVmpregen
p3556
F6.0
sVspellblock
p3557
F32.0
sVhpregen
p3558
F9.0
sVhpperlevel
p3559
F80.0
ssg25
(dp3560
Vstats
p3561
g3539
sVname
p3562
VEkko
p3563
sVtitle
p3564
Vthe Boy Who Shattered Time
p3565
sVtags
p3566
(lp3567
VAssassin
p3568
aVFighter
p3569
asVkey
p3570
VEkko
p3571
sVid
p3572
I245
ssg39
S'Ekko'
p3573
sg41
g3567
sba(i__main__
Champion
p3574
(dp3575
g3
(dp3576
Varmorperlevel
p3577
F3.75
sVattackdamage
p3578
F61.0
sVmpperlevel
p3579
F0.0
sVattackspeedoffset
p3580
F0.04
sVmp
p3581
F0.0
sVarmor
p3582
F20.0
sVhp
p3583
F525.0
sVhpregenperlevel
p3584
F0.3
sVattackspeedperlevel
p3585
F2.2
sVattackrange
p3586
F200.0
sVmovespeed
p3587
F325.0
sVattackdamageperlevel
p3588
F5.0
sVmpregenperlevel
p3589
F0.0
sVcritperlevel
p3590
F0.0
sVspellblockperlevel
p3591
F1.25
sVcrit
p3592
F0.0
sVmpregen
p3593
F0.0
sVspellblock
p3594
F32.1
sVhpregen
p3595
F4.0
sVhpperlevel
p3596
F73.0
ssg25
(dp3597
Vstats
p3598
g3576
sVname
p3599
VMordekaiser
p3600
sVtitle
p3601
Vthe Iron Revenant
p3602
sVtags
p3603
(lp3604
VFighter
p3605
aVMage
p3606
asVkey
p3607
VMordekaiser
p3608
sVid
p3609
I82
ssg39
S'Mordekaiser'
p3610
sg41
g3604
sba(i__main__
Champion
p3611
(dp3612
g3
(dp3613
Varmorperlevel
p3614
F3.5
sVattackdamage
p3615
F54.46
sVmpperlevel
p3616
F40.0
sVattackspeedoffset
p3617
F0.0
sVmp
p3618
F322.2
sVarmor
p3619
F19.88
sVhp
p3620
F517.76
sVhpregenperlevel
p3621
F0.55
sVattackspeedperlevel
p3622
F1.5
sVattackrange
p3623
F500.0
sVmovespeed
p3624
F325.0
sVattackdamageperlevel
p3625
F2.41
sVmpregenperlevel
p3626
F0.7
sVcritperlevel
p3627
F0.0
sVspellblockperlevel
p3628
F0.0
sVcrit
p3629
F0.0
sVmpregen
p3630
F8.675
sVspellblock
p3631
F30.0
sVhpregen
p3632
F5.92
sVhpperlevel
p3633
F82.0
ssg25
(dp3634
Vstats
p3635
g3613
sVname
p3636
VKog'Maw
p3637
sVtitle
p3638
Vthe Mouth of the Abyss
p3639
sVtags
p3640
(lp3641
VMarksman
p3642
aVMage
p3643
asVkey
p3644
VKogMaw
p3645
sVid
p3646
I96
ssg39
S"Kog'Maw"
p3647
sg41
g3641
sba(i__main__
Champion
p3648
(dp3649
g3
(dp3650
Varmorperlevel
p3651
F3.8
sVattackdamage
p3652
F60.376
sVmpperlevel
p3653
F45.0
sVattackspeedoffset
p3654
F-0.04
sVmp
p3655
F105.6
sVarmor
p3656
F24.384
sVhp
p3657
F537.8
sVhpregenperlevel
p3658
F0.5
sVattackspeedperlevel
p3659
F3.0
sVattackrange
p3660
F150.0
sVmovespeed
p3661
F345.0
sVattackdamageperlevel
p3662
F3.2
sVmpregenperlevel
p3663
F0.0
sVcritperlevel
p3664
F0.0
sVspellblockperlevel
p3665
F1.25
sVcrit
p3666
F0.0
sVmpregen
p3667
F0.0
sVspellblock
p3668
F32.1
sVhpregen
p3669
F6.59
sVhpperlevel
p3670
F85.0
ssg25
(dp3671
Vstats
p3672
g3650
sVname
p3673
VAatrox
p3674
sVtitle
p3675
Vthe Darkin Blade
p3676
sVtags
p3677
(lp3678
VFighter
p3679
aVTank
p3680
asVkey
p3681
VAatrox
p3682
sVid
p3683
I266
ssg39
S'Aatrox'
p3684
sg41
g3678
sba(i__main__
Champion
p3685
(dp3686
g3
(dp3687
Varmorperlevel
p3688
F3.3
sVattackdamage
p3689
F55.8
sVmpperlevel
p3690
F39.0
sVattackspeedoffset
p3691
F-0.08
sVmp
p3692
F360.56
sVarmor
p3693
F25.544
sVhp
p3694
F557.76
sVhpregenperlevel
p3695
F0.7
sVattackspeedperlevel
p3696
F2.7
sVattackrange
p3697
F550.0
sVmovespeed
p3698
F330.0
sVattackdamageperlevel
p3699
F2.91
sVmpregenperlevel
p3700
F0.65
sVcritperlevel
p3701
F0.0
sVspellblockperlevel
p3702
F0.0
sVcrit
p3703
F0.0
sVmpregen
p3704
F8.04
sVspellblock
p3705
F30.0
sVhpregen
p3706
F6.175
sVhpperlevel
p3707
F82.0
ssg25
(dp3708
Vstats
p3709
g3687
sVname
p3710
VDraven
p3711
sVtitle
p3712
Vthe Glorious Executioner
p3713
sVtags
p3714
(lp3715
VMarksman
p3716
asVkey
p3717
VDraven
p3718
sVid
p3719
I119
ssg39
S'Draven'
p3720
sg41
g3715
sba(i__main__
Champion
p3721
(dp3722
g3
(dp3723
Varmorperlevel
p3724
F3.5
sVattackdamage
p3725
F56.0
sVmpperlevel
p3726
F40.0
sVattackspeedoffset
p3727
F0.0
sVmp
p3728
F325.0
sVarmor
p3729
F27.0
sVhp
p3730
F610.0
sVhpregenperlevel
p3731
F0.55
sVattackspeedperlevel
p3732
F2.5
sVattackrange
p3733
F200.0
sVmovespeed
p3734
F335.0
sVattackdamageperlevel
p3735
F3.2
sVmpregenperlevel
p3736
F1.0
sVcritperlevel
p3737
F0.0
sVspellblockperlevel
p3738
F1.25
sVcrit
p3739
F0.0
sVmpregen
p3740
F8.0
sVspellblock
p3741
F32.1
sVhpregen
p3742
F6.5
sVhpperlevel
p3743
F95.0
ssg25
(dp3744
Vstats
p3745
g3723
sVname
p3746
VTahm Kench
p3747
sVtitle
p3748
Vthe River King
p3749
sVtags
p3750
(lp3751
VSupport
p3752
aVTank
p3753
asVkey
p3754
VTahmKench
p3755
sVid
p3756
I223
ssg39
S'Tahm Kench'
p3757
sg41
g3751
sba(i__main__
Champion
p3758
(dp3759
g3
(dp3760
Varmorperlevel
p3761
F3.5
sVattackdamage
p3762
F48.36
sVmpperlevel
p3763
F56.0
sVattackspeedoffset
p3764
F0.0
sVmp
p3765
F400.12
sVarmor
p3766
F20.88
sVhp
p3767
F524.4
sVhpregenperlevel
p3768
F0.6
sVattackspeedperlevel
p3769
F2.11
sVattackrange
p3770
F480.0
sVmovespeed
p3771
F335.0
sVattackdamageperlevel
p3772
F2.625
sVmpregenperlevel
p3773
F0.8
sVcritperlevel
p3774
F0.0
sVspellblockperlevel
p3775
F0.0
sVcrit
p3776
F0.0
sVmpregen
p3777
F6.0
sVspellblock
p3778
F30.0
sVhpregen
p3779
F5.605
sVhpperlevel
p3780
F80.0
ssg25
(dp3781
Vstats
p3782
g3760
sVname
p3783
VFiddlesticks
p3784
sVtitle
p3785
Vthe Harbinger of Doom
p3786
sVtags
p3787
(lp3788
VMage
p3789
aVSupport
p3790
asVkey
p3791
VFiddleSticks
p3792
sVid
p3793
I9
ssg39
S'Fiddlesticks'
p3794
sg41
g3788
sba(i__main__
Champion
p3795
(dp3796
g3
(dp3797
Varmorperlevel
p3798
F3.5
sVattackdamage
p3799
F55.208
sVmpperlevel
p3800
F37.0
sVattackspeedoffset
p3801
F-0.065
sVmp
p3802
F377.2
sVarmor
p3803
F26.88
sVhp
p3804
F582.8
sVhpregenperlevel
p3805
F0.75
sVattackspeedperlevel
p3806
F2.7
sVattackrange
p3807
F125.0
sVmovespeed
p3808
F350.0
sVattackdamageperlevel
p3809
F3.1
sVmpregenperlevel
p3810
F0.5
sVcritperlevel
p3811
F0.0
sVspellblockperlevel
p3812
F1.25
sVcrit
p3813
F0.0
sVmpregen
p3814
F7.59
sVspellblock
p3815
F32.1
sVhpregen
p3816
F8.51
sVhpperlevel
p3817
F85.0
ssg25
(dp3818
Vstats
p3819
g3797
sVname
p3820
VTalon
p3821
sVtitle
p3822
Vthe Blade's Shadow
p3823
sVtags
p3824
(lp3825
VAssassin
p3826
aVFighter
p3827
asVkey
p3828
VTalon
p3829
sVid
p3830
I91
ssg39
S'Talon'
p3831
sg41
g3825
sba(i__main__
Champion
p3832
(dp3833
g3
(dp3834
Varmorperlevel
p3835
F3.5
sVattackdamage
p3836
F57.544
sVmpperlevel
p3837
F35.0
sVattackspeedoffset
p3838
F-0.07
sVmp
p3839
F273.8
sVarmor
p3840
F25.88
sVhp
p3841
F591.16
sVhpregenperlevel
p3842
F0.7
sVattackspeedperlevel
p3843
F2.6
sVattackrange
p3844
F175.0
sVmovespeed
p3845
F345.0
sVattackdamageperlevel
p3846
F3.3
sVmpregenperlevel
p3847
F0.45
sVcritperlevel
p3848
F0.0
sVspellblockperlevel
p3849
F1.25
sVcrit
p3850
F0.0
sVmpregen
p3851
F7.255
sVspellblock
p3852
F32.1
sVhpregen
p3853
F8.175
sVhpperlevel
p3854
F87.0
ssg25
(dp3855
Vstats
p3856
g3834
sVname
p3857
VXin Zhao
p3858
sVtitle
p3859
Vthe Seneschal of Demacia
p3860
sVtags
p3861
(lp3862
VFighter
p3863
aVAssassin
p3864
asVkey
p3865
VXinZhao
p3866
sVid
p3867
I5
ssg39
S'Xin Zhao'
p3868
sg41
g3862
sba(i__main__
Champion
p3869
(dp3870
g3
(dp3871
Varmorperlevel
p3872
F3.7
sVattackdamage
p3873
F61.176
sVmpperlevel
p3874
F0.0
sVattackspeedoffset
p3875
F-0.04
sVmp
p3876
F200.0
sVarmor
p3877
F24.216
sVhp
p3878
F570.8
sVhpregenperlevel
p3879
F0.7
sVattackspeedperlevel
p3880
F3.0
sVattackrange
p3881
F125.0
sVmovespeed
p3882
F350.0
sVattackdamageperlevel
p3883
F3.2
sVmpregenperlevel
p3884
F0.0
sVcritperlevel
p3885
F0.0
sVspellblockperlevel
p3886
F1.25
sVcrit
p3887
F0.0
sVmpregen
p3888
F50.0
sVspellblock
p3889
F32.1
sVhpregen
p3890
F7.425
sVhpperlevel
p3891
F85.0
ssg25
(dp3892
Vstats
p3893
g3871
sVname
p3894
VLee Sin
p3895
sVtitle
p3896
Vthe Blind Monk
p3897
sVtags
p3898
(lp3899
VFighter
p3900
aVAssassin
p3901
asVkey
p3902
VLeeSin
p3903
sVid
p3904
I64
ssg39
S'Lee Sin'
p3905
sg41
g3899
sba(i__main__
Champion
p3906
(dp3907
g3
(dp3908
Varmorperlevel
p3909
F3.7
sVattackdamage
p3910
F57.88
sVmpperlevel
p3911
F56.0
sVattackspeedoffset
p3912
F0.0
sVmp
p3913
F349.08
sVarmor
p3914
F25.876
sVhp
p3915
F619.2
sVhpregenperlevel
p3916
F0.5
sVattackspeedperlevel
p3917
F2.02
sVattackrange
p3918
F125.0
sVmovespeed
p3919
F340.0
sVattackdamageperlevel
p3920
F3.5
sVmpregenperlevel
p3921
F0.8
sVcritperlevel
p3922
F0.0
sVspellblockperlevel
p3923
F1.25
sVcrit
p3924
F0.0
sVmpregen
p3925
F8.5
sVspellblock
p3926
F32.1
sVhpregen
p3927
F7.94
sVhpperlevel
p3928
F90.0
ssg25
(dp3929
Vstats
p3930
g3908
sVname
p3931
VTaric
p3932
sVtitle
p3933
Vthe Gem Knight
p3934
sVtags
p3935
(lp3936
VSupport
p3937
aVFighter
p3938
asVkey
p3939
VTaric
p3940
sVid
p3941
I44
ssg39
S'Taric'
p3942
sg41
g3936
sba(i__main__
Champion
p3943
(dp3944
g3
(dp3945
Varmorperlevel
p3946
F3.5
sVattackdamage
p3947
F54.7
sVmpperlevel
p3948
F45.0
sVattackspeedoffset
p3949
F0.0
sVmp
p3950
F325.6
sVarmor
p3951
F21.88
sVhp
p3952
F514.4
sVhpregenperlevel
p3953
F0.55
sVattackspeedperlevel
p3954
F1.36
sVattackrange
p3955
F550.0
sVmovespeed
p3956
F340.0
sVattackdamageperlevel
p3957
F3.0
sVmpregenperlevel
p3958
F0.8
sVcritperlevel
p3959
F0.0
sVspellblockperlevel
p3960
F0.0
sVcrit
p3961
F0.0
sVmpregen
p3962
F6.0
sVspellblock
p3963
F30.0
sVhpregen
p3964
F5.42
sVhpperlevel
p3965
F80.0
ssg25
(dp3966
Vstats
p3967
g3945
sVname
p3968
VMalzahar
p3969
sVtitle
p3970
Vthe Prophet of the Void
p3971
sVtags
p3972
(lp3973
VMage
p3974
aVAssassin
p3975
asVkey
p3976
VMalzahar
p3977
sVid
p3978
I90
ssg39
S'Malzahar'
p3979
sg41
g3973
sba(i__main__
Champion
p3980
(dp3981
g3
(dp3982
Varmorperlevel
p3983
F3.7
sVattackdamage
p3984
F50.536
sVmpperlevel
p3985
F50.0
sVattackspeedoffset
p3986
F0.0
sVmp
p3987
F304.0
sVarmor
p3988
F20.216
sVhp
p3989
F506.12
sVhpregenperlevel
p3990
F0.55
sVattackspeedperlevel
p3991
F1.36
sVattackrange
p3992
F550.0
sVmovespeed
p3993
F325.0
sVattackdamageperlevel
p3994
F2.7
sVmpregenperlevel
p3995
F0.4
sVcritperlevel
p3996
F0.0
sVspellblockperlevel
p3997
F0.0
sVcrit
p3998
F0.0
sVmpregen
p3999
F5.67
sVspellblock
p4000
F30.0
sVhpregen
p4001
F6.92
sVhpperlevel
p4002
F84.0
ssg25
(dp4003
Vstats
p4004
g3982
sVname
p4005
VLissandra
p4006
sVtitle
p4007
Vthe Ice Witch
p4008
sVtags
p4009
(lp4010
VMage
p4011
asVkey
p4012
VLissandra
p4013
sVid
p4014
I127
ssg39
S'Lissandra'
p4015
sg41
g4010
sba(i__main__
Champion
p4016
(dp4017
g3
(dp4018
Varmorperlevel
p4019
F3.0
sVattackdamage
p4020
F56.96
sVmpperlevel
p4021
F32.0
sVattackspeedoffset
p4022
F-0.04734
sVmp
p4023
F246.76
sVarmor
p4024
F22.0
sVhp
p4025
F542.76
sVhpregenperlevel
p4026
F0.65
sVattackspeedperlevel
p4027
F1.5
sVattackrange
p4028
F550.0
sVmovespeed
p4029
F325.0
sVattackdamageperlevel
p4030
F2.41
sVmpregenperlevel
p4031
F0.45
sVcritperlevel
p4032
F0.0
sVspellblockperlevel
p4033
F0.0
sVcrit
p4034
F0.0
sVmpregen
p4035
F7.205
sVspellblock
p4036
F30.0
sVhpregen
p4037
F6.19
sVhpperlevel
p4038
F82.0
ssg25
(dp4039
Vstats
p4040
g4018
sVname
p4041
VTristana
p4042
sVtitle
p4043
Vthe Yordle Gunner
p4044
sVtags
p4045
(lp4046
VMarksman
p4047
aVAssassin
p4048
asVkey
p4049
VTristana
p4050
sVid
p4051
I18
ssg39
S'Tristana'
p4052
sg41
g4046
sba(i__main__
Champion
p4053
(dp4054
g3
(dp4055
Varmorperlevel
p4056
F3.75
sVattackdamage
p4057
F55.628
sVmpperlevel
p4058
F0.0
sVattackspeedoffset
p4059
F0.0
sVmp
p4060
F100.0
sVarmor
p4061
F28.3
sVhp
p4062
F570.0
sVhpregenperlevel
p4063
F0.65
sVattackspeedperlevel
p4064
F2.0
sVattackrange
p4065
F175.0
sVmovespeed
p4066
F335.0
sVattackdamageperlevel
p4067
F3.35
sVmpregenperlevel
p4068
F0.0
sVcritperlevel
p4069
F0.0
sVspellblockperlevel
p4070
F1.25
sVcrit
p4071
F0.0
sVmpregen
p4072
F0.0
sVspellblock
p4073
F32.1
sVhpregen
p4074
F7.34
sVhpperlevel
p4075
F90.0
ssg25
(dp4076
Vstats
p4077
g4055
sVname
p4078
VRek'Sai
p4079
sVtitle
p4080
Vthe Void Burrower
p4081
sVtags
p4082
(lp4083
VFighter
p4084
asVkey
p4085
VRekSai
p4086
sVid
p4087
I421
ssg39
S"Rek'Sai"
p4088
sg41
g4083
sba(i__main__
Champion
p4089
(dp4090
g3
(dp4091
Varmorperlevel
p4092
F3.5
sVattackdamage
p4093
F48.04
sVmpperlevel
p4094
F0.0
sVattackspeedoffset
p4095
F-0.05
sVmp
p4096
F0.0
sVarmor
p4097
F21.88
sVhp
p4098
F542.8
sVhpregenperlevel
p4099
F0.6
sVattackspeedperlevel
p4100
F2.0
sVattackrange
p4101
F450.0
sVmovespeed
p4102
F335.0
sVattackdamageperlevel
p4103
F3.0
sVmpregenperlevel
p4104
F0.0
sVcritperlevel
p4105
F0.0
sVspellblockperlevel
p4106
F0.0
sVcrit
p4107
F0.0
sVmpregen
p4108
F0.0
sVspellblock
p4109
F30.0
sVhpregen
p4110
F7.005
sVhpperlevel
p4111
F85.0
ssg25
(dp4112
Vstats
p4113
g4091
sVname
p4114
VVladimir
p4115
sVtitle
p4116
Vthe Crimson Reaper
p4117
sVtags
p4118
(lp4119
VMage
p4120
aVTank
p4121
asVkey
p4122
VVladimir
p4123
sVid
p4124
I8
ssg39
S'Vladimir'
p4125
sg41
g4119
sba(i__main__
Champion
p4126
(dp4127
g3
(dp4128
Varmorperlevel
p4129
F3.6
sVattackdamage
p4130
F55.712
sVmpperlevel
p4131
F40.0
sVattackspeedoffset
p4132
F-0.05
sVmp
p4133
F302.2
sVarmor
p4134
F29.0
sVhp
p4135
F571.2
sVhpregenperlevel
p4136
F0.7
sVattackspeedperlevel
p4137
F2.5
sVattackrange
p4138
F175.0
sVmovespeed
p4139
F340.0
sVattackdamageperlevel
p4140
F3.4
sVmpregenperlevel
p4141
F0.45
sVcritperlevel
p4142
F0.0
sVspellblockperlevel
p4143
F1.25
sVcrit
p4144
F0.0
sVmpregen
p4145
F6.755
sVspellblock
p4146
F32.1
sVhpregen
p4147
F8.175
sVhpperlevel
p4148
F90.0
ssg25
(dp4149
Vstats
p4150
g4128
sVname
p4151
VJarvan IV
p4152
sVtitle
p4153
Vthe Exemplar of Demacia
p4154
sVtags
p4155
(lp4156
VTank
p4157
aVFighter
p4158
asVkey
p4159
VJarvanIV
p4160
sVid
p4161
I59
ssg39
S'Jarvan IV'
p4162
sg41
g4156
sba(i__main__
Champion
p4163
(dp4164
g3
(dp4165
Varmorperlevel
p4166
F4.0
sVattackdamage
p4167
F51.208
sVmpperlevel
p4168
F43.0
sVattackspeedoffset
p4169
F-0.03
sVmp
p4170
F377.24
sVarmor
p4171
F19.72
sVhp
p4172
F489.32
sVhpregenperlevel
p4173
F0.55
sVattackspeedperlevel
p4174
F2.61
sVattackrange
p4175
F550.0
sVmovespeed
p4176
F335.0
sVattackdamageperlevel
p4177
F3.1
sVmpregenperlevel
p4178
F0.4
sVcritperlevel
p4179
F0.0
sVspellblockperlevel
p4180
F0.0
sVcrit
p4181
F0.0
sVmpregen
p4182
F11.5
sVspellblock
p4183
F30.0
sVhpregen
p4184
F5.42
sVhpperlevel
p4185
F74.0
ssg25
(dp4186
Vstats
p4187
g4165
sVname
p4188
VNami
p4189
sVtitle
p4190
Vthe Tidecaller
p4191
sVtags
p4192
(lp4193
VSupport
p4194
aVMage
p4195
asVkey
p4196
VNami
p4197
sVid
p4198
I267
ssg39
S'Nami'
p4199
sg41
g4193
sba(i__main__
Champion
p4200
(dp4201
g3
(dp4202
Varmorperlevel
p4203
F3.8
sVattackdamage
p4204
F50.04
sVmpperlevel
p4205
F60.0
sVattackspeedoffset
p4206
F0.0
sVmp
p4207
F350.8
sVarmor
p4208
F23.384
sVhp
p4209
F529.04
sVhpregenperlevel
p4210
F0.5
sVattackspeedperlevel
p4211
F2.14
sVattackrange
p4212
F550.0
sVmovespeed
p4213
F325.0
sVattackdamageperlevel
p4214
F3.0
sVmpregenperlevel
p4215
F0.4
sVcritperlevel
p4216
F0.0
sVspellblockperlevel
p4217
F0.0
sVcrit
p4218
F0.0
sVmpregen
p4219
F11.5
sVspellblock
p4220
F30.0
sVhpregen
p4221
F2.5
sVhpperlevel
p4222
F78.0
ssg25
(dp4223
Vstats
p4224
g4202
sVname
p4225
VSoraka
p4226
sVtitle
p4227
Vthe Starchild
p4228
sVtags
p4229
(lp4230
VSupport
p4231
aVMage
p4232
asVkey
p4233
VSoraka
p4234
sVid
p4235
I16
ssg39
S'Soraka'
p4236
sg41
g4230
sba(i__main__
Champion
p4237
(dp4238
g3
(dp4239
Varmorperlevel
p4240
F3.75
sVattackdamage
p4241
F50.71
sVmpperlevel
p4242
F52.0
sVattackspeedoffset
p4243
F0.0
sVmp
p4244
F392.4
sVarmor
p4245
F22.55
sVhp
p4246
F492.76
sVhpregenperlevel
p4247
F0.55
sVattackspeedperlevel
p4248
F2.24
sVattackrange
p4249
F525.0
sVmovespeed
p4250
F340.0
sVattackdamageperlevel
p4251
F2.625
sVmpregenperlevel
p4252
F0.8
sVcritperlevel
p4253
F0.0
sVspellblockperlevel
p4254
F0.0
sVcrit
p4255
F0.0
sVmpregen
p4256
F6.0
sVspellblock
p4257
F30.0
sVhpregen
p4258
F5.42
sVhpperlevel
p4259
F82.0
ssg25
(dp4260
Vstats
p4261
g4239
sVname
p4262
VVeigar
p4263
sVtitle
p4264
Vthe Tiny Master of Evil
p4265
sVtags
p4266
(lp4267
VMage
p4268
asVkey
p4269
VVeigar
p4270
sVid
p4271
I45
ssg39
S'Veigar'
p4272
sg41
g4267
sba(i__main__
Champion
p4273
(dp4274
g3
(dp4275
Varmorperlevel
p4276
F3.8
sVattackdamage
p4277
F51.956
sVmpperlevel
p4278
F64.0
sVattackspeedoffset
p4279
F0.0
sVmp
p4280
F409.52
sVarmor
p4281
F19.384
sVhp
p4282
F487.04
sVhpregenperlevel
p4283
F0.55
sVattackspeedperlevel
p4284
F2.61
sVattackrange
p4285
F475.0
sVmovespeed
p4286
F335.0
sVattackdamageperlevel
p4287
F2.95
sVmpregenperlevel
p4288
F0.4
sVcritperlevel
p4289
F0.0
sVspellblockperlevel
p4290
F0.0
sVcrit
p4291
F0.0
sVmpregen
p4292
F11.5
sVspellblock
p4293
F30.0
sVhpregen
p4294
F5.42
sVhpperlevel
p4295
F78.0
ssg25
(dp4296
Vstats
p4297
g4275
sVname
p4298
VJanna
p4299
sVtitle
p4300
Vthe Storm's Fury
p4301
sVtags
p4302
(lp4303
VSupport
p4304
aVMage
p4305
asVkey
p4306
VJanna
p4307
sVid
p4308
I40
ssg39
S'Janna'
p4309
sg41
g4303
sba(i__main__
Champion
p4310
(dp4311
g3
(dp4312
Varmorperlevel
p4313
F3.75
sVattackdamage
p4314
F57.544
sVmpperlevel
p4315
F47.0
sVattackspeedoffset
p4316
F0.02
sVmp
p4317
F334.0
sVarmor
p4318
F26.46
sVhp
p4319
F576.48
sVhpregenperlevel
p4320
F0.55
sVattackspeedperlevel
p4321
F1.0
sVattackrange
p4322
F175.0
sVmovespeed
p4323
F325.0
sVattackdamageperlevel
p4324
F3.3
sVmpregenperlevel
p4325
F0.7
sVcritperlevel
p4326
F0.0
sVspellblockperlevel
p4327
F1.25
sVcrit
p4328
F0.0
sVmpregen
p4329
F8.625
sVspellblock
p4330
F32.1
sVhpregen
p4331
F8.37
sVhpperlevel
p4332
F86.0
ssg25
(dp4333
Vstats
p4334
g4312
sVname
p4335
VNautilus
p4336
sVtitle
p4337
Vthe Titan of the Depths
p4338
sVtags
p4339
(lp4340
VTank
p4341
aVFighter
p4342
asVkey
p4343
VNautilus
p4344
sVid
p4345
I111
ssg39
S'Nautilus'
p4346
sg41
g4340
sba(i__main__
Champion
p4347
(dp4348
g3
(dp4349
Varmorperlevel
p4350
F3.8
sVattackdamage
p4351
F53.88
sVmpperlevel
p4352
F42.0
sVattackspeedoffset
p4353
F0.0
sVmp
p4354
F315.6
sVarmor
p4355
F26.5
sVhp
p4356
F531.2
sVhpregenperlevel
p4357
F0.55
sVattackspeedperlevel
p4358
F3.6
sVattackrange
p4359
F125.0
sVmovespeed
p4360
F340.0
sVattackdamageperlevel
p4361
F3.5
sVmpregenperlevel
p4362
F0.6
sVcritperlevel
p4363
F0.0
sVspellblockperlevel
p4364
F1.25
sVcrit
p4365
F0.0
sVmpregen
p4366
F8.105
sVspellblock
p4367
F32.1
sVhpregen
p4368
F9.82
sVhpperlevel
p4369
F90.0
ssg25
(dp4370
Vstats
p4371
g4349
sVname
p4372
VEvelynn
p4373
sVtitle
p4374
Vthe Widowmaker
p4375
sVtags
p4376
(lp4377
VAssassin
p4378
aVMage
p4379
asVkey
p4380
VEvelynn
p4381
sVid
p4382
I28
ssg39
S'Evelynn'
p4383
sg41
g4377
sba(i__main__
Champion
p4384
(dp4385
g3
(dp4386
Varmorperlevel
p4387
F3.6
sVattackdamage
p4388
F61.38
sVmpperlevel
p4389
F47.0
sVattackspeedoffset
p4390
F-0.04
sVmp
p4391
F400.0
sVarmor
p4392
F26.048
sVhp
p4393
F583.52
sVhpregenperlevel
p4394
F0.5
sVattackspeedperlevel
p4395
F2.05
sVattackrange
p4396
F125.0
sVmovespeed
p4397
F330.0
sVattackdamageperlevel
p4398
F3.5
sVmpregenperlevel
p4399
F0.8
sVcritperlevel
p4400
F0.0
sVspellblockperlevel
p4401
F1.25
sVcrit
p4402
F0.0
sVmpregen
p4403
F6.0
sVspellblock
p4404
F32.1
sVhpregen
p4405
F5.5
sVhpperlevel
p4406
F89.0
ssg25
(dp4407
Vstats
p4408
g4386
sVname
p4409
VGragas
p4410
sVtitle
p4411
Vthe Rabble Rouser
p4412
sVtags
p4413
(lp4414
VFighter
p4415
aVMage
p4416
asVkey
p4417
VGragas
p4418
sVid
p4419
I79
ssg39
S'Gragas'
p4420
sg41
g4414
sba(i__main__
Champion
p4421
(dp4422
g3
(dp4423
Varmorperlevel
p4424
F3.5
sVattackdamage
p4425
F54.712
sVmpperlevel
p4426
F0.0
sVattackspeedoffset
p4427
F-0.03
sVmp
p4428
F200.0
sVarmor
p4429
F26.88
sVhp
p4430
F579.4
sVhpregenperlevel
p4431
F0.65
sVattackspeedperlevel
p4432
F2.1
sVattackrange
p4433
F125.0
sVmovespeed
p4434
F345.0
sVattackdamageperlevel
p4435
F3.4
sVmpregenperlevel
p4436
F0.0
sVcritperlevel
p4437
F0.0
sVspellblockperlevel
p4438
F1.25
sVcrit
p4439
F0.0
sVmpregen
p4440
F50.0
sVspellblock
p4441
F32.1
sVhpregen
p4442
F7.09
sVhpperlevel
p4443
F80.0
ssg25
(dp4444
Vstats
p4445
g4423
sVname
p4446
VZed
p4447
sVtitle
p4448
Vthe Master of Shadows
p4449
sVtags
p4450
(lp4451
VAssassin
p4452
aVFighter
p4453
asVkey
p4454
VZed
p4455
sVid
p4456
I238
ssg39
S'Zed'
p4457
sg41
g4451
sba(i__main__
Champion
p4458
(dp4459
g3
(dp4460
Varmorperlevel
p4461
F3.5
sVattackdamage
p4462
F55.88
sVmpperlevel
p4463
F45.0
sVattackspeedoffset
p4464
F-0.03
sVmp
p4465
F295.6
sVarmor
p4466
F25.88
sVhp
p4467
F582.8
sVhpregenperlevel
p4468
F0.9
sVattackspeedperlevel
p4469
F2.5
sVattackrange
p4470
F125.0
sVmovespeed
p4471
F345.0
sVattackdamageperlevel
p4472
F3.5
sVmpregenperlevel
p4473
F0.65
sVcritperlevel
p4474
F0.0
sVspellblockperlevel
p4475
F1.25
sVcrit
p4476
F0.0
sVmpregen
p4477
F8.09
sVspellblock
p4478
F32.1
sVhpregen
p4479
F9.01
sVhpperlevel
p4480
F85.0
ssg25
(dp4481
Vstats
p4482
g4460
sVname
p4483
VVi
p4484
sVtitle
p4485
Vthe Piltover Enforcer
p4486
sVtags
p4487
(lp4488
VFighter
p4489
aVAssassin
p4490
asVkey
p4491
VVi
p4492
sVid
p4493
I254
ssg39
S'Vi'
p4494
sg41
g4488
sba(i__main__
Champion
p4495
(dp4496
g3
(dp4497
Varmorperlevel
p4498
F3.7
sVattackdamage
p4499
F46.368
sVmpperlevel
p4500
F55.0
sVattackspeedoffset
p4501
F0.0
sVmp
p4502
F292.4
sVarmor
p4503
F19.216
sVhp
p4504
F552.76
sVhpregenperlevel
p4505
F0.6
sVattackspeedperlevel
p4506
F2.25
sVattackrange
p4507
F550.0
sVmovespeed
p4508
F325.0
sVattackdamageperlevel
p4509
F2.6
sVmpregenperlevel
p4510
F0.6
sVcritperlevel
p4511
F0.0
sVspellblockperlevel
p4512
F0.0
sVcrit
p4513
F0.0
sVmpregen
p4514
F11.0
sVspellblock
p4515
F30.0
sVhpregen
p4516
F6.005
sVhpperlevel
p4517
F74.0
ssg25
(dp4518
Vstats
p4519
g4497
sVname
p4520
VLulu
p4521
sVtitle
p4522
Vthe Fae Sorceress
p4523
sVtags
p4524
(lp4525
VSupport
p4526
aVMage
p4527
asVkey
p4528
VLulu
p4529
sVid
p4530
I117
ssg39
S'Lulu'
p4531
sg41
g4525
sba(i__main__
Champion
p4532
(dp4533
g3
(dp4534
Varmorperlevel
p4535
F3.5
sVattackdamage
p4536
F53.04
sVmpperlevel
p4537
F50.0
sVattackspeedoffset
p4538
F-0.065
sVmp
p4539
F334.0
sVarmor
p4540
F20.88
sVhp
p4541
F514.4
sVhpregenperlevel
p4542
F0.6
sVattackspeedperlevel
p4543
F2.0
sVattackrange
p4544
F550.0
sVmovespeed
p4545
F330.0
sVattackdamageperlevel
p4546
F3.0
sVmpregenperlevel
p4547
F0.8
sVcritperlevel
p4548
F0.0
sVspellblockperlevel
p4549
F0.0
sVcrit
p4550
F0.0
sVmpregen
p4551
F6.0
sVspellblock
p4552
F30.0
sVhpregen
p4553
F6.505
sVhpperlevel
p4554
F80.0
ssg25
(dp4555
Vstats
p4556
g4534
sVname
p4557
VAhri
p4558
sVtitle
p4559
Vthe Nine-Tailed Fox
p4560
sVtags
p4561
(lp4562
VMage
p4563
aVAssassin
p4564
asVkey
p4565
VAhri
p4566
sVid
p4567
I103
ssg39
S'Ahri'
p4568
sg41
g4562
sba(i__main__
Champion
p4569
(dp4570
g3
(dp4571
Varmorperlevel
p4572
F3.5
sVattackdamage
p4573
F56.46
sVmpperlevel
p4574
F35.0
sVattackspeedoffset
p4575
F-0.065
sVmp
p4576
F268.8
sVarmor
p4577
F23.38
sVhp
p4578
F532.8
sVhpregenperlevel
p4579
F0.55
sVattackspeedperlevel
p4580
F3.1
sVattackrange
p4581
F525.0
sVmovespeed
p4582
F335.0
sVattackdamageperlevel
p4583
F2.41
sVmpregenperlevel
p4584
F0.4
sVcritperlevel
p4585
F0.0
sVspellblockperlevel
p4586
F0.0
sVcrit
p4587
F0.0
sVmpregen
p4588
F6.97
sVspellblock
p4589
F30.0
sVhpregen
p4590
F5.42
sVhpperlevel
p4591
F85.0
ssg25
(dp4592
Vstats
p4593
g4571
sVname
p4594
VQuinn
p4595
sVtitle
p4596
VDemacia's Wings
p4597
sVtags
p4598
(lp4599
VMarksman
p4600
aVFighter
p4601
asVkey
p4602
VQuinn
p4603
sVid
p4604
I133
ssg39
S'Quinn'
p4605
sg41
g4599
sba(i__main__
Champion
p4606
(dp4607
g3
(dp4608
Varmorperlevel
p4609
F3.5
sVattackdamage
p4610
F54.88
sVmpperlevel
p4611
F50.0
sVattackspeedoffset
p4612
F0.0
sVmp
p4613
F334.0
sVarmor
p4614
F21.88
sVhp
p4615
F516.0
sVhpregenperlevel
p4616
F0.55
sVattackspeedperlevel
p4617
F1.4
sVattackrange
p4618
F525.0
sVmovespeed
p4619
F335.0
sVattackdamageperlevel
p4620
F3.5
sVmpregenperlevel
p4621
F0.8
sVcritperlevel
p4622
F0.0
sVspellblockperlevel
p4623
F0.0
sVcrit
p4624
F0.0
sVmpregen
p4625
F6.0
sVspellblock
p4626
F30.0
sVhpregen
p4627
F7.42
sVhpperlevel
p4628
F75.0
ssg25
(dp4629
Vstats
p4630
g4608
sVname
p4631
VLeBlanc
p4632
sVtitle
p4633
Vthe Deceiver
p4634
sVtags
p4635
(lp4636
VAssassin
p4637
aVMage
p4638
asVkey
p4639
VLeblanc
p4640
sVid
p4641
I7
ssg39
S'LeBlanc'
p4642
sg41
g4636
sba(i__main__
Champion
p4643
(dp4644
g3
(dp4645
Varmorperlevel
p4646
F3.5
sVattackdamage
p4647
F55.66
sVmpperlevel
p4648
F42.0
sVattackspeedoffset
p4649
F0.0
sVmp
p4650
F360.6
sVarmor
p4651
F21.88
sVhp
p4652
F484.4
sVhpregenperlevel
p4653
F0.55
sVattackspeedperlevel
p4654
F2.8
sVattackrange
p4655
F550.0
sVmovespeed
p4656
F325.0
sVattackdamageperlevel
p4657
F2.41
sVmpregenperlevel
p4658
F0.65
sVcritperlevel
p4659
F0.0
sVspellblockperlevel
p4660
F0.0
sVcrit
p4661
F0.0
sVmpregen
p4662
F8.09
sVspellblock
p4663
F30.0
sVhpregen
p4664
F6.42
sVhpperlevel
p4665
F80.0
ssg25
(dp4666
Vstats
p4667
g4645
sVname
p4668
VEzreal
p4669
sVtitle
p4670
Vthe Prodigal Explorer
p4671
sVtags
p4672
(lp4673
VMarksman
p4674
aVMage
p4675
asVkey
p4676
VEzreal
p4677
sVid
p4678
I81
ssg39
S'Ezreal'
p4679
sg41
g4673
sba.