(lp0
S'Teemo'
p1
aS'Soraka'
p2
aS'Draven'
p3
aS'Zed'
p4
aS'Olaf'
p5
aS'Lissandra'
p6
aS'Miss Fortune'
p7
aS'Gangplank'
p8
aS'Warwick'
p9
aS'Sona'
p10
aS'Kalista'
p11
aS'Zac'
p12
aS'Ekko'
p13
aS'LeBlanc'
p14
aS'Jax'
p15
aS'Gnar'
p16
aS'Jinx'
p17
aS'Lulu'
p18
aS'Morgana'
p19
aS'Gragas'
p20
aS'Lee Sin'
p21
aS'Janna'
p22
aS'Lux'
p23
ag1
aS'Ashe'
p24
aS'Jayce'
p25
ag22
ag7
ag4
aS'Diana'
p26
aS'Jarvan IV'
p27
ag7
ag22
aS'Ahri'
p28
aS'Malphite'
p29
ag5
aS'Corki'
p30
aS'Bard'
p31
aS'Kassadin'
p32
aS"Kha'Zix"
p33
aS"Rek'Sai"
p34
ag29
ag10
aS'Vayne'
p35
ag8
ag34
ag5
ag18
aS'Blitzcrank'
p36
ag35
aS'Illaoi'
p37
aS'Lucian'
p38
aS'Taric'
p39
ag21
aS'Fizz'
p40
ag35
aS'Riven'
p41
ag33
aS'Heimerdinger'
p42
aS'Alistar'
p43
aS'Kindred'
p44
ag41
aS'Nautilus'
p45
ag18
ag3
aS'Graves'
p46
ag10
ag32
ag35
aS'Shyvana'
p47
ag18
ag16
aS'Nunu'
p48
ag43
ag38
ag24
ag31
ag34
aS'Nasus'
p49
ag8
ag23
ag17
ag21
ag41
aS'Braum'
p50
aS'Hecarim'
p51
aS'Thresh'
p52
aS'Annie'
p53
aS'Rengar'
p54
ag24
ag38
aS'Twisted Fate'
p55
aS'Renekton'
p56
ag19
ag34
aS'Dr. Mundo'
p57
aS'Nidalee'
p58
ag38
ag19
ag26
aS'Wukong'
p59
aS'Rammus'
p60
ag43
ag38
aS'Kayle'
p61
aS'Trundle'
p62
ag57
aS'Brand'
p63
aS'Caitlyn'
p64
ag57
ag30
aS'Ryze'
p65
ag19
aS'Yasuo'
p66
ag38
aS'Anivia'
p67
ag45
aS'Maokai'
p68
ag38
ag40
aS'Fiora'
p69
aS'Elise'
p70
ag31
aS'Orianna'
p71
ag34
aS'Ezreal'
p72
aS'Leona'
p73
aS'Kennen'
p74
ag70
ag41
ag11
ag45
ag13
ag44
ag17
ag41
ag52
aS'Xerath'
p75
aS'Rumble'
p76
ag52
ag55
aS'Tristana'
p77
ag13
ag21
ag67
ag8
ag38
ag22
ag45
ag70
ag17
ag14
ag56
ag52
ag56
ag21
ag55
ag38
ag52
ag17
aS'Cassiopeia'
p78
ag21
aS'Darius'
p79
ag54
ag64
aS'Irelia'
p80
ag55
ag2
ag52
ag46
ag55
ag51
aS'Poppy'
p81
ag44
ag8
ag51
ag72
ag52
ag63
ag69
ag45
ag64
ag66
ag18
ag24
ag31
ag12
ag57
ag46
ag51
ag43
ag26
ag66
ag58
ag8
ag18
ag27
ag11
ag69
ag22
ag35
ag21
aS"Kog'Maw"
p82
ag57
ag77
ag12
ag13
ag36
ag77
ag28
ag79
ag22
ag48
ag69
ag24
ag63
ag57
ag31
ag34
ag52
ag38
ag44
ag65
aS'Karthus'
p83
ag3
ag8
ag12
aS'Shen'
p84
ag21
ag79
ag64
ag22
ag83
ag35
ag20
ag2
ag16
aS'Azir'
p85
ag2
ag41
ag77
ag12
ag63
ag35
ag28
ag2
ag51
ag29
ag52
ag67
ag70
ag35
ag41
ag66
ag46
ag63
ag52
ag70
ag34
ag55
ag66
ag50
ag77
ag34
ag38
ag29
ag22
ag13
ag52
ag58
ag11
ag26
ag54
ag53
ag80
aS'Tahm Kench'
p86
ag46
ag74
ag30
ag25
ag64
ag12
ag22
ag32
ag72
ag21
ag15
ag45
ag44
ag26
ag22
aS'Vladimir'
p87
ag72
ag71
ag35
aS"Vel'Koz"
p88
ag69
ag48
ag2
ag38
ag58
ag14
ag79
ag18
aS'Amumu'
p89
ag64
ag2
ag17
ag21
ag85
ag84
ag38
ag87
ag8
ag36
ag21
ag65
ag38
ag13
ag17
ag5
aS'Vi'
p90
ag22
ag90
ag24
aS'Syndra'
p91
ag43
ag56
ag34
ag31
ag13
ag77
aS'Malzahar'
p92
ag58
ag14
ag77
ag52
ag76
ag51
ag17
ag52
ag18
ag59
ag52
ag41
ag77
ag58
ag65
ag62
ag18
ag35
ag44
ag22
ag19
ag84
ag61
ag38
ag2
ag63
ag79
ag77
ag21
ag23
ag56
ag34
ag40
ag38
ag22
ag60
ag14
ag1
aS'Quinn'
p93
ag27
ag55
ag77
ag52
ag70
ag5
aS'Twitch'
p94
ag32
ag21
ag25
ag14
ag86
ag80
ag58
ag18
ag17
ag35
ag22
ag66
ag15
ag12
ag41
ag71
ag12
aS'Nami'
p95
aS'Sivir'
p96
ag6
ag58
ag11
ag79
ag86
aS'Zilean'
p97
ag54
ag46
ag15
ag10
ag44
ag73
ag46
ag78
ag29
ag90
ag36
ag75
ag56
ag46
ag55
ag34
ag18
ag11
ag36
ag66
ag63
ag11
ag90
ag71
ag44
ag25
ag64
ag65
ag31
ag52
ag44
ag67
ag5
ag30
ag76
ag21
ag2
ag19
ag35
ag17
ag61
ag27
ag25
ag54
ag57
ag35
ag52
ag65
ag70
ag54
ag84
ag69
ag35
ag46
ag44
ag87
ag52
aS'Varus'
p98
ag38
ag66
ag24
ag58
ag18
ag52
ag26
ag90
ag96
ag22
ag74
ag2
ag67
ag12
ag93
ag3
aS'Udyr'
p99
ag7
ag13
ag43
ag79
ag29
ag17
ag14
ag2
ag44
ag38
ag21
ag22
ag56
aS'Ziggs'
p100
ag58
ag41
ag55
ag2
ag17
ag11
ag69
ag34
ag19
ag66
ag38
ag56
ag2
aS'Akali'
p101
ag46
ag80
ag19
ag39
ag17
aS'Veigar'
p102
ag60
ag52
ag34
ag28
ag64
ag41
ag17
aS'Karma'
p103
ag66
ag57
ag31
ag55
ag11
ag56
ag34
ag22
ag63
ag84
ag34
ag24
ag56
ag96
ag50
ag102
ag34
ag22
ag86
ag70
ag4
ag35
ag21
ag2
ag41
aS"Cho'Gath"
p104
ag11
ag18
ag64
ag74
aS'Volibear'
p105
ag57
ag41
ag50
ag30
ag8
ag33
ag102
ag17
ag43
ag56
ag12
ag65
ag21
ag11
ag52
ag74
ag33
aS'Pantheon'
p106
ag63
ag99
ag24
ag79
ag31
ag30
ag21
ag106
ag94
ag10
ag63
ag58
ag21
ag4
ag38
ag62
ag2
ag34
ag52
ag25
ag32
ag1
ag51
ag52
ag38
ag66
ag27
ag87
ag21
ag35
ag14
ag69
ag36
ag85
ag2
aS'Evelynn'
p107
ag41
ag72
ag86
ag5
ag26
ag34
ag24
ag38
ag63
ag11
ag34
ag80
ag38
ag34
ag32
ag56
ag52
ag11
ag21
ag103
ag74
ag31
ag86
ag67
ag34
ag17
ag80
ag38
ag21
ag29
ag55
ag43
ag86
ag38
ag87
ag63
ag51
ag4
ag77
ag10
aS'Nocturne'
p108
ag68
ag51
ag43
aS'Talon'
p109
ag21
ag30
ag38
ag42
ag97
ag55
ag33
ag53
ag3
ag79
ag31
ag12
ag11
ag16
ag107
ag14
ag45
ag21
ag2
ag18
ag66
ag38
ag95
ag21
ag35
ag29
aS'Viktor'
p110
ag11
ag58
ag41
ag63
ag19
ag21
ag19
ag11
ag10
ag56
ag15
ag12
ag26
ag43
ag77
ag69
ag52
ag14
ag21
ag64
ag53
ag12
ag38
ag57
ag66
ag8
ag77
ag86
aS'Sion'
p111
ag43
ag21
ag17
ag50
ag8
ag53
ag74
ag14
ag70
ag16
ag98
ag23
ag56
ag13
ag43
ag17
ag34
ag80
ag38
ag110
ag50
ag65
ag11
ag53
ag34
ag31
ag38
ag72
ag25
ag61
ag49
ag58
ag86
ag63
ag25
ag77
ag86
ag18
ag74
ag46
ag36
ag108
ag3
ag88
ag79
ag32
ag44
ag86
ag28
ag57
ag35
ag69
ag15
ag67
ag66
ag22
ag21
ag96
ag53
ag53
ag35
ag69
ag44
ag31
ag17
ag28
ag50
ag21
ag35
ag44
ag74
ag38
ag50
ag66
ag17
ag54
ag90
ag4
ag2
ag52
ag27
ag41
ag14
aS'Mordekaiser'
p112
ag52
ag41
ag90
ag110
ag82
ag18
ag21
ag31
ag51
ag11
ag38
ag51
ag52
ag100
ag21
ag38
ag54
ag18
ag36
ag13
ag65
ag72
ag15
ag34
ag31
ag35
ag55
ag54
ag31
ag33
ag11
ag21
ag32
ag10
ag69
ag57
ag72
ag95
ag39
ag100
aS'Skarner'
p113
ag13
ag80
ag46
ag88
ag29
ag71
ag44
ag31
ag12
ag56
ag36
ag27
ag46
ag85
ag11
ag4
ag21
ag29
ag52
ag4
ag36
ag80
ag24
ag13
ag53
ag17
ag21
ag73
ag79
ag54
ag87
ag11
ag56
ag63
ag52
ag51
ag27
ag11
ag65
ag69
ag80
ag35
ag36
ag70
ag44
ag14
ag8
ag46
ag2
ag17
ag85
ag5
ag20
ag2
ag44
ag41
ag24
ag103
ag75
ag34
ag14
ag2
ag30
ag41
ag52
ag85
ag18
ag34
ag17
ag102
ag17
ag54
ag52
ag29
ag2
ag17
ag56
ag18
ag34
ag4
ag70
ag74
ag14
ag56
ag55
ag38
ag43
ag54
ag19
ag27
ag41
ag63
ag52
ag65
ag38
ag15
ag58
ag70
ag95
ag77
ag4
ag80
ag52
ag18
ag58
ag51
ag3
ag54
ag71
ag8
ag50
ag98
ag38
ag21
ag4
ag95
ag29
ag44
ag16
ag70
ag54
ag40
ag85
ag86
ag11
aS'Tryndamere'
p114
ag21
ag76
ag72
ag70
ag32
ag22
ag5
ag17
ag32
ag86
ag84
ag22
ag61
ag72
ag65
ag57
ag25
ag14
ag106
ag66
ag36
ag55
ag106
ag19
ag17
ag90
ag56
ag31
ag77
ag26
ag20
ag6
ag64
aS'Aatrox'
p115
ag50
ag27
ag72
ag17
ag70
ag41
ag86
ag36
ag15
ag58
ag55
ag38
ag46
ag2
ag66
ag81
ag91
ag55
ag22
ag15
ag34
ag7
ag57
ag56
ag73
ag14
ag72
ag58
ag8
ag19
ag35
ag53
ag43
ag3
ag101
ag58
ag4
ag52
ag32
ag7
ag13
ag56
ag11
aS'Shaco'
p116
ag56
aS'Zyra'
p117
ag66
ag52
ag86
ag88
ag21
ag77
ag6
ag43
ag15
ag60
ag35
ag70
ag96
aS'Singed'
p118
ag22
ag32
ag52
ag110
ag41
ag82
ag86
ag34
ag43
ag80
ag55
ag38
ag69
ag6
ag35
ag63
ag58
ag41
ag53
ag19
ag35
ag20
ag16
ag57
ag77
ag97
ag4
ag12
ag53
ag63
ag11
ag31
ag69
ag4
ag21
ag82
ag52
ag72
ag38
ag12
ag22
ag69
ag14
ag31
ag21
ag11
ag84
ag66
ag20
ag22
ag77
ag18
ag67
ag22
ag64
ag80
ag34
ag41
ag2
ag17
ag32
ag34
ag10
ag58
ag7
ag66
aS'Katarina'
p119
ag11
ag44
ag5
ag43
ag63
ag18
ag51
ag43
ag41
ag30
ag48
ag6
ag69
ag55
ag63
ag15
ag44
ag35
ag11
ag12
ag36
ag83
ag4
ag99
ag38
ag13
ag57
ag29
ag77
ag4
ag36
ag18
ag70
ag50
ag28
ag44
ag34
ag11
ag26
ag35
ag34
ag41
ag22
ag5
ag71
ag38
ag57
ag39
ag18
ag38
ag54
ag37
ag52
ag13
ag35
ag51
ag22
ag21
ag52
ag77
ag18
ag54
ag29
ag3
ag71
ag69
ag58
ag18
ag30
ag21
ag91
ag69
ag45
ag21
ag53
ag46
ag13
ag100
ag71
ag72
ag29
ag51
ag50
ag38
ag19
ag78
ag33
ag18
ag46
ag75
ag58
ag41
ag43
ag78
ag17
ag21
ag31
ag66
ag27
ag64
ag82
ag81
ag52
ag57
ag3
ag52
ag23
ag76
ag77
ag58
ag85
ag22
ag70
ag18
ag64
ag58
ag13
ag66
ag36
ag61
ag66
ag11
ag21
ag5
aS'Xin Zhao'
p120
ag77
ag52
ag28
ag105
ag38
ag118
ag71
ag18
ag25
ag23
ag58
ag52
ag96
ag41
ag22
ag70
ag25
ag23
ag90
ag16
ag11
ag73
ag14
ag8
ag77
ag88
ag1
ag34
ag43
ag94
ag58
ag35
ag14
ag15
ag23
ag38
ag52
ag70
ag11
ag54
ag52
ag58
ag32
ag17
ag36
ag48
ag14
ag41
ag117
ag53
ag38
ag5
ag21
ag43
ag63
ag72
ag54
ag1
ag57
ag79
ag13
ag70
ag79
ag77
ag43
ag63
ag18
ag50
ag74
ag105
ag35
ag29
ag72
ag36
ag34
ag55
ag23
ag45
ag27
ag11
ag56
ag35
ag63
ag86
ag41
ag14
ag21
ag66
ag72
ag41
ag50
ag5
ag77
ag41
ag20
ag52
ag52
ag18
ag70
ag11
ag74
ag58
ag35
ag66
ag52
ag56
ag51
ag77
ag86
ag66
ag79
ag35
ag63
ag7
ag60
ag2
ag29
ag70
ag67
ag96
ag45
ag55
ag21
ag64
ag65
ag19
ag65
ag107
ag64
ag50
ag74
ag7
ag26
aS'Fiddlesticks'
p121
ag21
ag19
ag71
ag72
ag31
ag21
ag61
ag34
ag28
ag18
ag2
ag35
ag4
ag62
ag12
ag38
ag29
ag43
ag54
ag46
ag103
ag93
ag77
ag21
ag2
ag14
ag5
ag2
ag66
ag85
ag12
ag64
ag22
ag91
ag38
ag57
ag80
ag86
ag14
ag63
ag17
ag107
ag18
ag53
ag27
ag82
ag69
ag11
ag27
ag19
ag41
ag58
ag21
ag85
ag13
ag22
ag64
ag80
ag50
ag55
ag7
ag51
ag16
ag13
ag31
ag58
ag46
ag30
ag36
ag54
ag8
ag80
ag52
ag58
ag38
ag13
aS'Urgot'
p122
ag34
ag44
ag2
ag18
ag5
ag71
ag45
ag35
ag70
ag4
ag8
ag13
ag70
ag19
ag96
ag55
ag70
ag38
ag51
ag50
ag43
ag94
ag4
ag54
ag93
ag3
ag65
ag15
ag43
ag34
ag37
ag35
ag44
ag61
ag18
ag22
ag58
ag21
ag32
ag35
ag21
ag86
ag91
ag50
ag38
ag97
ag77
ag26
ag27
ag41
ag5
ag17
ag84
ag14
ag21
ag11
ag80
ag43
ag55
ag21
ag26
ag93
ag21
ag52
ag77
ag22
ag40
ag114
ag46
ag54
ag27
ag2
ag72
ag56
ag110
ag51
ag55
ag44
ag38
ag88
ag5
ag64
ag55
ag52
ag70
ag57
ag84
ag35
ag31
ag6
ag52
ag64
ag106
ag32
ag12
ag52
ag28
ag54
ag56
ag38
ag6
ag21
ag35
ag4
ag39
ag21
ag77
ag14
ag31
ag79
ag14
ag69
ag17
ag31
ag21
ag52
ag64
ag107
ag87
ag66
ag30
ag31
ag4
ag29
ag34
ag13
ag56
ag34
ag86
ag72
ag66
ag74
ag21
ag15
ag82
ag19
ag64
ag90
ag2
ag86
ag70
ag53
ag77
ag29
ag52
ag46
ag13
ag55
ag30
ag50
ag34
ag44
ag63
ag36
ag32
ag79
ag65
ag34
ag38
ag22
ag58
ag51
ag18
ag17
ag19
ag56
ag92
ag38
ag52
ag85
ag44
ag76
ag109
ag43
ag46
ag55
ag11
ag56
ag19
ag58
ag40
ag21
ag64
ag79
ag31
ag10
ag56
ag38
ag30
ag92
ag11
ag23
ag21
ag45
ag80
ag44
ag30
ag10
ag13
ag29
ag52
ag70
ag18
ag17
ag29
ag35
ag10
ag80
ag59
ag4
ag102
ag90
ag52
ag84
ag64
ag2
ag34
ag80
ag85
ag96
ag12
ag80
ag63
ag64
ag14
ag6
ag35
ag84
ag69
ag58
ag87
ag46
ag10
ag54
ag23
ag44
ag50
ag94
ag8
ag29
ag107
ag110
ag2
ag80
ag64
ag55
ag57
ag70
ag30
ag63
ag15
ag13
ag38
ag90
ag50
ag21
ag43
ag35
ag28
ag76
ag21
ag19
ag55
ag35
ag42
ag7
ag79
ag76
ag21
ag74
ag3
ag41
ag55
ag34
ag63
ag26
ag38
ag19
ag34
ag41
ag41
ag60
ag29
ag22
ag30
ag55
ag70
ag86
ag5
ag64
ag49
ag88
ag95
ag21
ag77
ag10
ag21
ag94
ag56
ag30
ag66
ag86
ag21
ag115
ag64
ag18
ag27
ag51
ag53
ag38
ag31
ag86
ag72
ag74
ag13
ag22
ag24
ag13
ag54
ag18
ag21
ag7
ag43
ag87
ag91
ag29
ag17
ag18
ag52
ag21
ag1
ag22
ag51
ag27
ag96
ag44
ag35
ag67
ag22
ag41
ag71
ag94
ag70
ag69
ag19
ag43
ag46
ag21
ag61
ag56
ag8
ag95
ag38
ag71
ag70
ag34
ag106
ag38
ag22
ag30
ag2
ag80
ag58
ag38
ag63
ag34
ag18
ag55
ag3
ag52
ag55
ag7
ag51
ag45
ag58
ag8
ag38
ag52
ag33
ag85
ag38
ag34
ag86
ag72
ag57
ag36
ag70
ag32
ag77
ag69
ag98
ag90
ag35
ag22
ag65
ag29
ag77
ag50
ag51
ag66
ag84
ag55
ag46
ag73
ag27
ag55
ag80
ag64
ag21
ag43
ag36
ag77
ag13
ag20
ag69
ag35
ag55
ag20
ag52
ag69
ag62
ag65
ag70
ag11
ag2
ag110
ag38
ag120
ag41
ag10
ag10
ag58
ag21
ag26
ag17
ag22
ag35
ag57
ag18
ag65
ag13
ag41
ag46
ag15
ag63
ag50
ag79
ag7
ag70
ag71
ag38
ag76
ag60
ag2
ag67
ag72
ag80
ag54
ag66
ag36
ag38
ag80
ag12
ag97
ag22
ag79
ag52
ag77
ag21
ag28
ag17
ag65
ag22
ag44
ag42
ag55
ag36
ag25
ag38
ag21
ag43
ag77
ag79
ag106
ag53
ag20
ag57
ag31
ag28
ag11
ag11
ag15
ag19
ag44
ag18
ag65
ag21
ag64
ag19
ag56
ag63
ag56
ag38
ag39
ag15
ag38
ag58
ag15
ag105
ag73
ag35
ag15
ag21
ag19
ag32
ag20
ag17
ag66
ag36
ag51
ag17
ag107
ag109
ag15
ag36
ag57
ag46
ag40
ag36
ag58
ag21
ag38
ag52
ag8
ag41
ag58
ag43
ag7
ag87
ag66
ag13
ag56
ag43
ag63
ag38
ag21
ag6
ag15
ag110
ag33
ag19
ag41
ag72
ag19
ag80
ag12
ag52
ag35
ag96
ag70
ag51
ag32
ag36
ag12
ag17
ag69
ag13
ag22
ag64
ag26
ag22
ag21
ag54
ag60
ag22
ag109
ag80
ag35
ag80
ag52
ag77
ag55
ag12
ag17
ag70
ag53
ag69
ag52
ag68
ag21
ag3
ag55
ag19
ag45
ag94
ag12
ag35
ag66
ag72
ag43
ag13
ag41
ag34
ag102
ag41
ag13
ag52
ag77
ag17
ag57
ag65
ag19
ag21
ag38
ag52
ag58
ag8
ag87
ag22
ag25
ag21
ag3
ag97
ag69
ag38
ag45
ag12
ag66
ag6
ag46
ag31
ag44
ag32
ag38
ag4
ag19
ag1
ag120
ag55
ag90
ag38
ag22
ag54
ag93
ag26
ag56
ag57
ag84
ag67
ag52
ag35
ag27
ag104
ag57
ag52
ag72
ag85
ag41
ag25
ag22
ag46
ag69
ag17
ag34
ag24
ag55
ag5
ag84
ag38
ag18
ag69
ag58
ag2
ag80
ag95
ag65
ag34
ag38
ag38
ag22
ag79
ag57
ag63
ag77
ag55
ag56
ag95
ag21
ag116
ag40
ag15
ag52
ag30
ag53
ag58
ag36
ag96
ag105
ag66
ag70
ag65
ag31
ag35
ag57
ag21
ag17
ag63
ag50
ag77
ag117
ag16
ag37
ag26
ag70
ag79
ag18
ag52
ag72
ag24
ag52
ag80
ag33
ag40
ag86
ag15
ag44
ag21
ag82
ag44
ag52
ag90
ag110
ag87
ag26
ag41
ag11
ag58
ag73
ag22
ag34
ag51
ag72
ag102
ag4
ag10
ag99
ag38
ag42
ag75
ag41
ag50
ag34
ag7
ag41
ag86
ag23
ag52
ag24
ag11
ag72
ag51
ag44
ag4
ag52
ag110
ag56
ag24
ag20
ag69
ag102
ag52
ag11
ag90
ag62
ag13
ag87
ag11
ag67
ag21
ag56
ag36
ag77
ag25
ag70
ag43
ag55
ag84
ag66
ag32
ag58
ag94
ag70
ag31
ag32
ag94
ag56
ag98
ag58
ag35
ag56
ag43
ag57
ag16
ag61
aS'Sejuani'
p123
ag1
ag18
ag38
ag63
ag38
ag41
ag34
ag63
ag55
ag84
ag65
ag95
ag58
ag77
ag77
ag110
ag44
ag106
ag74
ag41
ag50
ag24
ag87
ag34
ag6
ag84
ag44
ag69
ag64
ag58
ag23
ag50
ag74
ag24
ag46
ag22
ag92
ag57
ag65
ag54
ag57
ag36
ag30
ag55
ag44
ag40
ag64
ag19
ag84
ag79
ag1
ag27
ag31
ag122
ag5
ag36
ag38
ag32
ag120
ag21
ag56
ag53
ag63
ag46
ag26
ag5
ag77
ag48
ag19
ag103
ag41
ag86
ag64
ag21
ag66
ag57
ag38
ag58
ag22
ag40
ag70
ag65
ag77
ag36
ag34
ag41
ag77
ag55
ag43
ag64
ag95
ag40
ag51
ag26
ag79
ag44
ag7
ag50
ag53
ag94
ag31
ag44
ag71
ag84
ag58
ag14
ag17
ag36
ag15
ag77
ag65
ag27
ag52
ag68
ag32
ag11
ag16
ag108
ag52
ag58
ag57
ag38
ag76
ag103
ag50
ag5
ag55
ag34
ag35
ag14
ag19
ag16
ag38
ag86
ag56
ag2
ag4
ag70
ag77
ag21
ag26
ag38
ag76
ag22
ag60
ag38
ag5
ag31
ag23
ag18
ag77
ag103
ag91
ag34
ag18
ag80
ag22
ag48
ag17
ag65
ag44
ag11
ag83
ag50
ag31
ag14
ag30
ag20
ag8
ag11
ag58
ag53
ag86
ag51
ag11
ag69
ag62
ag21
ag56
ag38
ag63
ag53
ag66
ag34
ag59
ag112
ag53
ag40
ag97
a.