(lp0
VBOTTOM
p1
aVBOTTOM
p2
aVJUNGLE
p3
aVMIDDLE
p4
aVTOP
p5
aVJUNGLE
p6
aVBOTTOM
p7
aVBOTTOM
p8
aVMIDDLE
p9
aVTOP
p10
aVMIDDLE
p11
aVBOTTOM
p12
aVTOP
p13
aVJUNGLE
p14
aVBOTTOM
p15
aVJUNGLE
p16
aVTOP
p17
aVBOTTOM
p18
aVMIDDLE
p19
aVBOTTOM
p20
aVJUNGLE
p21
aVBOTTOM
p22
aVTOP
p23
aVBOTTOM
p24
aVMIDDLE
p25
aVBOTTOM
p26
aVJUNGLE
p27
aVMIDDLE
p28
aVBOTTOM
p29
aVTOP
p30
aVJUNGLE
p31
aVTOP
p32
aVMIDDLE
p33
aVJUNGLE
p34
aVJUNGLE
p35
aVBOTTOM
p36
aVJUNGLE
p37
aVJUNGLE
p38
aVJUNGLE
p39
aVJUNGLE
p40
aVJUNGLE
p41
aVBOTTOM
p42
aVTOP
p43
aVBOTTOM
p44
aVMIDDLE
p45
aVJUNGLE
p46
aVBOTTOM
p47
aVMIDDLE
p48
aVTOP
p49
aVBOTTOM
p50
aVTOP
p51
aVBOTTOM
p52
aVBOTTOM
p53
aVMIDDLE
p54
aVMIDDLE
p55
aVBOTTOM
p56
aVMIDDLE
p57
aVJUNGLE
p58
aVJUNGLE
p59
aVBOTTOM
p60
aVMIDDLE
p61
aVBOTTOM
p62
aVJUNGLE
p63
aVBOTTOM
p64
aVTOP
p65
aVJUNGLE
p66
aVBOTTOM
p67
aVBOTTOM
p68
aVMIDDLE
p69
aVTOP
p70
aVTOP
p71
aVBOTTOM
p72
aVJUNGLE
p73
aVMIDDLE
p74
aVBOTTOM
p75
aVTOP
p76
aVBOTTOM
p77
aVBOTTOM
p78
aVMIDDLE
p79
aVJUNGLE
p80
aVBOTTOM
p81
aVBOTTOM
p82
aVTOP
p83
aVJUNGLE
p84
aVMIDDLE
p85
aVJUNGLE
p86
aVTOP
p87
aVBOTTOM
p88
aVBOTTOM
p89
aVMIDDLE
p90
aVJUNGLE
p91
aVTOP
p92
aVMIDDLE
p93
aVBOTTOM
p94
aVBOTTOM
p95
aVBOTTOM
p96
aVMIDDLE
p97
aVTOP
p98
aVJUNGLE
p99
aVBOTTOM
p100
aVBOTTOM
p101
aVTOP
p102
aVJUNGLE
p103
aVMIDDLE
p104
aVBOTTOM
p105
aVTOP
p106
aVBOTTOM
p107
aVBOTTOM
p108
aVJUNGLE
p109
aVMIDDLE
p110
aVBOTTOM
p111
aVTOP
p112
aVJUNGLE
p113
aVMIDDLE
p114
aVBOTTOM
p115
aVJUNGLE
p116
aVTOP
p117
aVMIDDLE
p118
aVBOTTOM
p119
aVBOTTOM
p120
aVJUNGLE
p121
aVTOP
p122
aVBOTTOM
p123
aVMIDDLE
p124
aVBOTTOM
p125
aVBOTTOM
p126
aVBOTTOM
p127
aVJUNGLE
p128
aVJUNGLE
p129
aVMIDDLE
p130
aVTOP
p131
aVJUNGLE
p132
aVBOTTOM
p133
aVMIDDLE
p134
aVBOTTOM
p135
aVTOP
p136
aVBOTTOM
p137
aVMIDDLE
p138
aVBOTTOM
p139
aVJUNGLE
p140
aVBOTTOM
p141
aVBOTTOM
p142
aVJUNGLE
p143
aVMIDDLE
p144
aVTOP
p145
aVMIDDLE
p146
aVTOP
p147
aVJUNGLE
p148
aVBOTTOM
p149
aVBOTTOM
p150
aVBOTTOM
p151
aVBOTTOM
p152
aVJUNGLE
p153
aVTOP
p154
aVMIDDLE
p155
aVMIDDLE
p156
aVTOP
p157
aVBOTTOM
p158
aVBOTTOM
p159
aVJUNGLE
p160
aVBOTTOM
p161
aVJUNGLE
p162
aVBOTTOM
p163
aVTOP
p164
aVMIDDLE
p165
aVMIDDLE
p166
aVBOTTOM
p167
aVJUNGLE
p168
aVTOP
p169
aVBOTTOM
p170
aVBOTTOM
p171
aVJUNGLE
p172
aVMIDDLE
p173
aVJUNGLE
p174
aVBOTTOM
p175
aVTOP
p176
aVBOTTOM
p177
aVMIDDLE
p178
aVJUNGLE
p179
aVBOTTOM
p180
aVBOTTOM
p181
aVMIDDLE
p182
aVTOP
p183
aVBOTTOM
p184
aVJUNGLE
p185
aVTOP
p186
aVMIDDLE
p187
aVBOTTOM
p188
aVJUNGLE
p189
aVBOTTOM
p190
aVMIDDLE
p191
aVBOTTOM
p192
aVBOTTOM
p193
aVJUNGLE
p194
aVTOP
p195
aVTOP
p196
aVJUNGLE
p197
aVBOTTOM
p198
aVBOTTOM
p199
aVMIDDLE
p200
aVJUNGLE
p201
aVBOTTOM
p202
aVMIDDLE
p203
aVBOTTOM
p204
aVTOP
p205
aVTOP
p206
aVJUNGLE
p207
aVBOTTOM
p208
aVBOTTOM
p209
aVMIDDLE
p210
aVMIDDLE
p211
aVMIDDLE
p212
aVMIDDLE
p213
aVMIDDLE
p214
aVMIDDLE
p215
aVJUNGLE
p216
aVBOTTOM
p217
aVJUNGLE
p218
aVMIDDLE
p219
aVTOP
p220
aVBOTTOM
p221
aVJUNGLE
p222
aVBOTTOM
p223
aVMIDDLE
p224
aVTOP
p225
aVBOTTOM
p226
aVMIDDLE
p227
aVBOTTOM
p228
aVJUNGLE
p229
aVBOTTOM
p230
aVTOP
p231
aVTOP
p232
aVBOTTOM
p233
aVMIDDLE
p234
aVBOTTOM
p235
aVJUNGLE
p236
aVBOTTOM
p237
aVJUNGLE
p238
aVJUNGLE
p239
aVJUNGLE
p240
aVBOTTOM
p241
aVMIDDLE
p242
aVJUNGLE
p243
aVBOTTOM
p244
aVBOTTOM
p245
aVTOP
p246
aVMIDDLE
p247
aVJUNGLE
p248
aVBOTTOM
p249
aVJUNGLE
p250
aVTOP
p251
aVJUNGLE
p252
aVJUNGLE
p253
aVMIDDLE
p254
aVTOP
p255
aVJUNGLE
p256
aVMIDDLE
p257
aVJUNGLE
p258
aVBOTTOM
p259
aVBOTTOM
p260
aVTOP
p261
aVJUNGLE
p262
aVTOP
p263
aVBOTTOM
p264
aVBOTTOM
p265
aVMIDDLE
p266
aVBOTTOM
p267
aVBOTTOM
p268
aVJUNGLE
p269
aVTOP
p270
aVJUNGLE
p271
aVJUNGLE
p272
aVBOTTOM
p273
aVTOP
p274
aVBOTTOM
p275
aVMIDDLE
p276
aVTOP
p277
aVBOTTOM
p278
aVMIDDLE
p279
aVBOTTOM
p280
aVJUNGLE
p281
aVTOP
p282
aVMIDDLE
p283
aVBOTTOM
p284
aVMIDDLE
p285
aVBOTTOM
p286
aVJUNGLE
p287
aVMIDDLE
p288
aVTOP
p289
aVBOTTOM
p290
aVBOTTOM
p291
aVBOTTOM
p292
aVMIDDLE
p293
aVJUNGLE
p294
aVBOTTOM
p295
aVTOP
p296
aVBOTTOM
p297
aVJUNGLE
p298
aVBOTTOM
p299
aVMIDDLE
p300
aVTOP
p301
aVBOTTOM
p302
aVJUNGLE
p303
aVMIDDLE
p304
aVTOP
p305
aVBOTTOM
p306
aVJUNGLE
p307
aVBOTTOM
p308
aVTOP
p309
aVMIDDLE
p310
aVBOTTOM
p311
aVBOTTOM
p312
aVTOP
p313
aVJUNGLE
p314
aVMIDDLE
p315
aVBOTTOM
p316
aVBOTTOM
p317
aVBOTTOM
p318
aVMIDDLE
p319
aVJUNGLE
p320
aVTOP
p321
aVBOTTOM
p322
aVJUNGLE
p323
aVTOP
p324
aVMIDDLE
p325
aVBOTTOM
p326
aVJUNGLE
p327
aVBOTTOM
p328
aVTOP
p329
aVMIDDLE
p330
aVBOTTOM
p331
aVBOTTOM
p332
aVTOP
p333
aVBOTTOM
p334
aVMIDDLE
p335
aVJUNGLE
p336
aVBOTTOM
p337
aVBOTTOM
p338
aVMIDDLE
p339
aVTOP
p340
aVJUNGLE
p341
aVMIDDLE
p342
aVTOP
p343
aVBOTTOM
p344
aVJUNGLE
p345
aVBOTTOM
p346
aVMIDDLE
p347
aVJUNGLE
p348
aVBOTTOM
p349
aVBOTTOM
p350
aVTOP
p351
aVJUNGLE
p352
aVMIDDLE
p353
aVTOP
p354
aVBOTTOM
p355
aVBOTTOM
p356
aVBOTTOM
p357
aVTOP
p358
aVJUNGLE
p359
aVBOTTOM
p360
aVMIDDLE
p361
aVMIDDLE
p362
aVBOTTOM
p363
aVJUNGLE
p364
aVBOTTOM
p365
aVTOP
p366
aVJUNGLE
p367
aVTOP
p368
aVBOTTOM
p369
aVMIDDLE
p370
aVBOTTOM
p371
aVMIDDLE
p372
aVBOTTOM
p373
aVBOTTOM
p374
aVJUNGLE
p375
aVTOP
p376
aVBOTTOM
p377
aVJUNGLE
p378
aVBOTTOM
p379
aVMIDDLE
p380
aVTOP
p381
aVBOTTOM
p382
aVTOP
p383
aVJUNGLE
p384
aVBOTTOM
p385
aVMIDDLE
p386
aVJUNGLE
p387
aVTOP
p388
aVMIDDLE
p389
aVBOTTOM
p390
aVBOTTOM
p391
aVTOP
p392
aVMIDDLE
p393
aVBOTTOM
p394
aVBOTTOM
p395
aVJUNGLE
p396
aVTOP
p397
aVBOTTOM
p398
aVBOTTOM
p399
aVJUNGLE
p400
aVMIDDLE
p401
aVBOTTOM
p402
aVTOP
p403
aVMIDDLE
p404
aVJUNGLE
p405
aVBOTTOM
p406
aVTOP
p407
aVBOTTOM
p408
aVMIDDLE
p409
aVJUNGLE
p410
aVBOTTOM
p411
aVJUNGLE
p412
aVBOTTOM
p413
aVJUNGLE
p414
aVMIDDLE
p415
aVBOTTOM
p416
aVBOTTOM
p417
aVMIDDLE
p418
aVTOP
p419
aVBOTTOM
p420
aVJUNGLE
p421
aVBOTTOM
p422
aVMIDDLE
p423
aVBOTTOM
p424
aVJUNGLE
p425
aVTOP
p426
aVBOTTOM
p427
aVTOP
p428
aVJUNGLE
p429
aVBOTTOM
p430
aVMIDDLE
p431
aVTOP
p432
aVBOTTOM
p433
aVMIDDLE
p434
aVJUNGLE
p435
aVBOTTOM
p436
aVJUNGLE
p437
aVBOTTOM
p438
aVBOTTOM
p439
aVTOP
p440
aVMIDDLE
p441
aVBOTTOM
p442
aVJUNGLE
p443
aVBOTTOM
p444
aVMIDDLE
p445
aVTOP
p446
aVMIDDLE
p447
aVBOTTOM
p448
aVTOP
p449
aVJUNGLE
p450
aVBOTTOM
p451
aVBOTTOM
p452
aVBOTTOM
p453
aVTOP
p454
aVBOTTOM
p455
aVMIDDLE
p456
aVJUNGLE
p457
aVJUNGLE
p458
aVBOTTOM
p459
aVBOTTOM
p460
aVMIDDLE
p461
aVJUNGLE
p462
aVTOP
p463
aVBOTTOM
p464
aVBOTTOM
p465
aVJUNGLE
p466
aVBOTTOM
p467
aVJUNGLE
p468
aVBOTTOM
p469
aVTOP
p470
aVMIDDLE
p471
aVTOP
p472
aVMIDDLE
p473
aVBOTTOM
p474
aVBOTTOM
p475
aVJUNGLE
p476
aVBOTTOM
p477
aVBOTTOM
p478
aVJUNGLE
p479
aVMIDDLE
p480
aVTOP
p481
aVBOTTOM
p482
aVTOP
p483
aVBOTTOM
p484
aVJUNGLE
p485
aVMIDDLE
p486
aVBOTTOM
p487
aVMIDDLE
p488
aVBOTTOM
p489
aVJUNGLE
p490
aVTOP
p491
aVJUNGLE
p492
aVTOP
p493
aVMIDDLE
p494
aVBOTTOM
p495
aVBOTTOM
p496
aVTOP
p497
aVBOTTOM
p498
aVJUNGLE
p499
aVBOTTOM
p500
aVMIDDLE
p501
aVBOTTOM
p502
aVMIDDLE
p503
aVJUNGLE
p504
aVBOTTOM
p505
aVTOP
p506
aVTOP
p507
aVBOTTOM
p508
aVMIDDLE
p509
aVBOTTOM
p510
aVJUNGLE
p511
aVJUNGLE
p512
aVMIDDLE
p513
aVTOP
p514
aVBOTTOM
p515
aVBOTTOM
p516
aVJUNGLE
p517
aVMIDDLE
p518
aVTOP
p519
aVBOTTOM
p520
aVBOTTOM
p521
aVJUNGLE
p522
aVBOTTOM
p523
aVBOTTOM
p524
aVMIDDLE
p525
aVJUNGLE
p526
aVMIDDLE
p527
aVBOTTOM
p528
aVTOP
p529
aVJUNGLE
p530
aVBOTTOM
p531
aVJUNGLE
p532
aVBOTTOM
p533
aVTOP
p534
aVBOTTOM
p535
aVMIDDLE
p536
aVBOTTOM
p537
aVJUNGLE
p538
aVBOTTOM
p539
aVMIDDLE
p540
aVTOP
p541
aVBOTTOM
p542
aVMIDDLE
p543
aVBOTTOM
p544
aVTOP
p545
aVJUNGLE
p546
aVJUNGLE
p547
aVTOP
p548
aVJUNGLE
p549
aVBOTTOM
p550
aVBOTTOM
p551
aVJUNGLE
p552
aVBOTTOM
p553
aVTOP
p554
aVBOTTOM
p555
aVMIDDLE
p556
aVMIDDLE
p557
aVTOP
p558
aVBOTTOM
p559
aVJUNGLE
p560
aVBOTTOM
p561
aVJUNGLE
p562
aVBOTTOM
p563
aVTOP
p564
aVMIDDLE
p565
aVBOTTOM
p566
aVMIDDLE
p567
aVBOTTOM
p568
aVJUNGLE
p569
aVTOP
p570
aVBOTTOM
p571
aVBOTTOM
p572
aVBOTTOM
p573
aVMIDDLE
p574
aVTOP
p575
aVJUNGLE
p576
aVMIDDLE
p577
aVTOP
p578
aVBOTTOM
p579
aVMIDDLE
p580
aVBOTTOM
p581
aVJUNGLE
p582
aVMIDDLE
p583
aVBOTTOM
p584
aVTOP
p585
aVBOTTOM
p586
aVMIDDLE
p587
aVTOP
p588
aVBOTTOM
p589
aVJUNGLE
p590
aVBOTTOM
p591
aVMIDDLE
p592
aVBOTTOM
p593
aVJUNGLE
p594
aVTOP
p595
aVJUNGLE
p596
aVBOTTOM
p597
aVBOTTOM
p598
aVJUNGLE
p599
aVMIDDLE
p600
aVTOP
p601
aVMIDDLE
p602
aVBOTTOM
p603
aVJUNGLE
p604
aVBOTTOM
p605
aVTOP
p606
aVTOP
p607
aVJUNGLE
p608
aVMIDDLE
p609
aVBOTTOM
p610
aVBOTTOM
p611
aVJUNGLE
p612
aVMIDDLE
p613
aVBOTTOM
p614
aVBOTTOM
p615
aVTOP
p616
aVMIDDLE
p617
aVBOTTOM
p618
aVJUNGLE
p619
aVTOP
p620
aVBOTTOM
p621
aVJUNGLE
p622
aVMIDDLE
p623
aVBOTTOM
p624
aVBOTTOM
p625
aVTOP
p626
aVTOP
p627
aVBOTTOM
p628
aVJUNGLE
p629
aVMIDDLE
p630
aVBOTTOM
p631
aVJUNGLE
p632
aVTOP
p633
aVBOTTOM
p634
aVMIDDLE
p635
aVBOTTOM
p636
aVMIDDLE
p637
aVBOTTOM
p638
aVTOP
p639
aVJUNGLE
p640
aVBOTTOM
p641
aVBOTTOM
p642
aVMIDDLE
p643
aVBOTTOM
p644
aVTOP
p645
aVMIDDLE
p646
aVMIDDLE
p647
aVJUNGLE
p648
aVBOTTOM
p649
aVBOTTOM
p650
aVTOP
p651
aVJUNGLE
p652
aVBOTTOM
p653
aVMIDDLE
p654
aVBOTTOM
p655
aVTOP
p656
aVTOP
p657
aVMIDDLE
p658
aVJUNGLE
p659
aVBOTTOM
p660
aVBOTTOM
p661
aVJUNGLE
p662
aVBOTTOM
p663
aVTOP
p664
aVBOTTOM
p665
aVMIDDLE
p666
aVJUNGLE
p667
aVMIDDLE
p668
aVBOTTOM
p669
aVBOTTOM
p670
aVJUNGLE
p671
aVBOTTOM
p672
aVBOTTOM
p673
aVMIDDLE
p674
aVTOP
p675
aVJUNGLE
p676
aVBOTTOM
p677
aVBOTTOM
p678
aVJUNGLE
p679
aVTOP
p680
aVMIDDLE
p681
aVTOP
p682
aVBOTTOM
p683
aVBOTTOM
p684
aVMIDDLE
p685
aVJUNGLE
p686
aVBOTTOM
p687
aVTOP
p688
aVBOTTOM
p689
aVJUNGLE
p690
aVMIDDLE
p691
aVJUNGLE
p692
aVMIDDLE
p693
aVJUNGLE
p694
aVBOTTOM
p695
aVBOTTOM
p696
aVJUNGLE
p697
aVTOP
p698
aVMIDDLE
p699
aVBOTTOM
p700
aVBOTTOM
p701
aVTOP
p702
aVMIDDLE
p703
aVBOTTOM
p704
aVJUNGLE
p705
aVBOTTOM
p706
aVMIDDLE
p707
aVJUNGLE
p708
aVTOP
p709
aVBOTTOM
p710
aVBOTTOM
p711
aVBOTTOM
p712
aVJUNGLE
p713
aVBOTTOM
p714
aVMIDDLE
p715
aVTOP
p716
aVBOTTOM
p717
aVTOP
p718
aVBOTTOM
p719
aVJUNGLE
p720
aVMIDDLE
p721
aVBOTTOM
p722
aVBOTTOM
p723
aVJUNGLE
p724
aVMIDDLE
p725
aVTOP
p726
aVJUNGLE
p727
aVJUNGLE
p728
aVMIDDLE
p729
aVJUNGLE
p730
aVJUNGLE
p731
aVJUNGLE
p732
aVJUNGLE
p733
aVJUNGLE
p734
aVJUNGLE
p735
aVMIDDLE
p736
aVBOTTOM
p737
aVTOP
p738
aVJUNGLE
p739
aVBOTTOM
p740
aVMIDDLE
p741
aVTOP
p742
aVMIDDLE
p743
aVBOTTOM
p744
aVJUNGLE
p745
aVBOTTOM
p746
aVMIDDLE
p747
aVBOTTOM
p748
aVBOTTOM
p749
aVJUNGLE
p750
aVTOP
p751
aVMIDDLE
p752
aVBOTTOM
p753
aVTOP
p754
aVBOTTOM
p755
aVJUNGLE
p756
aVBOTTOM
p757
aVMIDDLE
p758
aVJUNGLE
p759
aVTOP
p760
aVBOTTOM
p761
aVBOTTOM
p762
aVJUNGLE
p763
aVBOTTOM
p764
aVMIDDLE
p765
aVTOP
p766
aVBOTTOM
p767
aVTOP
p768
aVJUNGLE
p769
aVMIDDLE
p770
aVBOTTOM
p771
aVBOTTOM
p772
aVJUNGLE
p773
aVMIDDLE
p774
aVBOTTOM
p775
aVTOP
p776
aVMIDDLE
p777
aVBOTTOM
p778
aVJUNGLE
p779
aVTOP
p780
aVBOTTOM
p781
aVBOTTOM
p782
aVBOTTOM
p783
aVMIDDLE
p784
aVTOP
p785
aVJUNGLE
p786
aVTOP
p787
aVMIDDLE
p788
aVJUNGLE
p789
aVBOTTOM
p790
aVBOTTOM
p791
aVMIDDLE
p792
aVJUNGLE
p793
aVBOTTOM
p794
aVBOTTOM
p795
aVTOP
p796
aVTOP
p797
aVJUNGLE
p798
aVMIDDLE
p799
aVBOTTOM
p800
aVBOTTOM
p801
aVMIDDLE
p802
aVJUNGLE
p803
aVBOTTOM
p804
aVTOP
p805
aVBOTTOM
p806
aVMIDDLE
p807
aVJUNGLE
p808
aVBOTTOM
p809
aVTOP
p810
aVBOTTOM
p811
aVMIDDLE
p812
aVJUNGLE
p813
aVBOTTOM
p814
aVTOP
p815
aVBOTTOM
p816
aVJUNGLE
p817
aVBOTTOM
p818
aVBOTTOM
p819
aVMIDDLE
p820
aVTOP
p821
aVJUNGLE
p822
aVTOP
p823
aVBOTTOM
p824
aVBOTTOM
p825
aVMIDDLE
p826
aVBOTTOM
p827
aVMIDDLE
p828
aVTOP
p829
aVJUNGLE
p830
aVBOTTOM
p831
aVJUNGLE
p832
aVBOTTOM
p833
aVMIDDLE
p834
aVTOP
p835
aVBOTTOM
p836
aVBOTTOM
p837
aVBOTTOM
p838
aVTOP
p839
aVTOP
p840
aVMIDDLE
p841
aVMIDDLE
p842
aVJUNGLE
p843
aVTOP
p844
aVBOTTOM
p845
aVBOTTOM
p846
aVMIDDLE
p847
aVTOP
p848
aVBOTTOM
p849
aVBOTTOM
p850
aVJUNGLE
p851
aVTOP
p852
aVBOTTOM
p853
aVBOTTOM
p854
aVJUNGLE
p855
aVMIDDLE
p856
aVBOTTOM
p857
aVTOP
p858
aVMIDDLE
p859
aVJUNGLE
p860
aVBOTTOM
p861
aVJUNGLE
p862
aVTOP
p863
aVBOTTOM
p864
aVMIDDLE
p865
aVBOTTOM
p866
aVBOTTOM
p867
aVJUNGLE
p868
aVMIDDLE
p869
aVTOP
p870
aVBOTTOM
p871
aVBOTTOM
p872
aVMIDDLE
p873
aVBOTTOM
p874
aVJUNGLE
p875
aVTOP
p876
aVJUNGLE
p877
aVTOP
p878
aVBOTTOM
p879
aVBOTTOM
p880
aVMIDDLE
p881
aVTOP
p882
aVJUNGLE
p883
aVBOTTOM
p884
aVMIDDLE
p885
aVBOTTOM
p886
aVJUNGLE
p887
aVMIDDLE
p888
aVBOTTOM
p889
aVBOTTOM
p890
aVTOP
p891
aVBOTTOM
p892
aVMIDDLE
p893
aVBOTTOM
p894
aVTOP
p895
aVJUNGLE
p896
aVBOTTOM
p897
aVTOP
p898
aVJUNGLE
p899
aVBOTTOM
p900
aVMIDDLE
p901
aVTOP
p902
aVBOTTOM
p903
aVBOTTOM
p904
aVMIDDLE
p905
aVJUNGLE
p906
aVJUNGLE
p907
aVBOTTOM
p908
aVTOP
p909
aVBOTTOM
p910
aVMIDDLE
p911
aVJUNGLE
p912
aVTOP
p913
aVMIDDLE
p914
aVBOTTOM
p915
aVBOTTOM
p916
aVJUNGLE
p917
aVTOP
p918
aVBOTTOM
p919
aVMIDDLE
p920
aVBOTTOM
p921
aVJUNGLE
p922
aVBOTTOM
p923
aVMIDDLE
p924
aVBOTTOM
p925
aVTOP
p926
aVMIDDLE
p927
aVBOTTOM
p928
aVJUNGLE
p929
aVTOP
p930
aVBOTTOM
p931
aVBOTTOM
p932
aVBOTTOM
p933
aVMIDDLE
p934
aVTOP
p935
aVJUNGLE
p936
aVTOP
p937
aVMIDDLE
p938
aVBOTTOM
p939
aVBOTTOM
p940
aVJUNGLE
p941
aVMIDDLE
p942
aVJUNGLE
p943
aVBOTTOM
p944
aVBOTTOM
p945
aVTOP
p946
aVTOP
p947
aVBOTTOM
p948
aVJUNGLE
p949
aVBOTTOM
p950
aVMIDDLE
p951
aVBOTTOM
p952
aVMIDDLE
p953
aVJUNGLE
p954
aVTOP
p955
aVBOTTOM
p956
aVJUNGLE
p957
aVBOTTOM
p958
aVMIDDLE
p959
aVBOTTOM
p960
aVTOP
p961
aVJUNGLE
p962
aVMIDDLE
p963
aVTOP
p964
aVBOTTOM
p965
aVBOTTOM
p966
aVTOP
p967
aVBOTTOM
p968
aVMIDDLE
p969
aVBOTTOM
p970
aVJUNGLE
p971
aVBOTTOM
p972
aVMIDDLE
p973
aVJUNGLE
p974
aVBOTTOM
p975
aVTOP
p976
aVBOTTOM
p977
aVJUNGLE
p978
aVBOTTOM
p979
aVTOP
p980
aVMIDDLE
p981
aVTOP
p982
aVBOTTOM
p983
aVJUNGLE
p984
aVMIDDLE
p985
aVBOTTOM
p986
aVJUNGLE
p987
aVTOP
p988
aVMIDDLE
p989
aVBOTTOM
p990
aVBOTTOM
p991
aVBOTTOM
p992
aVMIDDLE
p993
aVJUNGLE
p994
aVTOP
p995
aVBOTTOM
p996
aVBOTTOM
p997
aVTOP
p998
aVJUNGLE
p999
aVBOTTOM
p1000
aVMIDDLE
p1001
aVJUNGLE
p1002
aVBOTTOM
p1003
aVBOTTOM
p1004
aVTOP
p1005
aVMIDDLE
p1006
aVMIDDLE
p1007
aVJUNGLE
p1008
aVTOP
p1009
aVBOTTOM
p1010
aVBOTTOM
p1011
aVBOTTOM
p1012
aVTOP
p1013
aVBOTTOM
p1014
aVMIDDLE
p1015
aVJUNGLE
p1016
aVBOTTOM
p1017
aVMIDDLE
p1018
aVBOTTOM
p1019
aVJUNGLE
p1020
aVTOP
p1021
aVTOP
p1022
aVBOTTOM
p1023
aVJUNGLE
p1024
aVBOTTOM
p1025
aVMIDDLE
p1026
aVTOP
p1027
aVBOTTOM
p1028
aVJUNGLE
p1029
aVMIDDLE
p1030
aVBOTTOM
p1031
aVMIDDLE
p1032
aVJUNGLE
p1033
aVTOP
p1034
aVBOTTOM
p1035
aVBOTTOM
p1036
aVJUNGLE
p1037
aVBOTTOM
p1038
aVBOTTOM
p1039
aVTOP
p1040
aVMIDDLE
p1041
aVTOP
p1042
aVBOTTOM
p1043
aVBOTTOM
p1044
aVMIDDLE
p1045
aVJUNGLE
p1046
aVMIDDLE
p1047
aVBOTTOM
p1048
aVBOTTOM
p1049
aVTOP
p1050
aVJUNGLE
p1051
aVBOTTOM
p1052
aVMIDDLE
p1053
aVBOTTOM
p1054
aVTOP
p1055
aVJUNGLE
p1056
aVTOP
p1057
aVBOTTOM
p1058
aVMIDDLE
p1059
aVBOTTOM
p1060
aVJUNGLE
p1061
aVBOTTOM
p1062
aVMIDDLE
p1063
aVTOP
p1064
aVJUNGLE
p1065
aVBOTTOM
p1066
aVTOP
p1067
aVBOTTOM
p1068
aVBOTTOM
p1069
aVMIDDLE
p1070
aVJUNGLE
p1071
aVJUNGLE
p1072
aVMIDDLE
p1073
aVTOP
p1074
aVBOTTOM
p1075
aVBOTTOM
p1076
aVBOTTOM
p1077
aVTOP
p1078
aVJUNGLE
p1079
aVMIDDLE
p1080
aVBOTTOM
p1081
aVTOP
p1082
aVJUNGLE
p1083
aVBOTTOM
p1084
aVBOTTOM
p1085
aVMIDDLE
p1086
aVJUNGLE
p1087
aVBOTTOM
p1088
aVJUNGLE
p1089
aVMIDDLE
p1090
aVTOP
p1091
aVJUNGLE
p1092
aVBOTTOM
p1093
aVTOP
p1094
aVMIDDLE
p1095
aVBOTTOM
p1096
aVMIDDLE
p1097
aVBOTTOM
p1098
aVBOTTOM
p1099
aVJUNGLE
p1100
aVTOP
p1101
aVMIDDLE
p1102
aVTOP
p1103
aVBOTTOM
p1104
aVBOTTOM
p1105
aVJUNGLE
p1106
aVMIDDLE
p1107
aVJUNGLE
p1108
aVBOTTOM
p1109
aVBOTTOM
p1110
aVTOP
p1111
aVTOP
p1112
aVBOTTOM
p1113
aVBOTTOM
p1114
aVMIDDLE
p1115
aVJUNGLE
p1116
aVMIDDLE
p1117
aVBOTTOM
p1118
aVJUNGLE
p1119
aVTOP
p1120
aVJUNGLE
p1121
aVTOP
p1122
aVBOTTOM
p1123
aVBOTTOM
p1124
aVMIDDLE
p1125
aVJUNGLE
p1126
aVMIDDLE
p1127
aVJUNGLE
p1128
aVBOTTOM
p1129
aVBOTTOM
p1130
aVTOP
p1131
aVJUNGLE
p1132
aVBOTTOM
p1133
aVMIDDLE
p1134
aVBOTTOM
p1135
aVTOP
p1136
aVJUNGLE
p1137
aVMIDDLE
p1138
aVJUNGLE
p1139
aVTOP
p1140
aVBOTTOM
p1141
aVJUNGLE
p1142
aVBOTTOM
p1143
aVBOTTOM
p1144
aVTOP
p1145
aVMIDDLE
p1146
aVTOP
p1147
aVBOTTOM
p1148
aVBOTTOM
p1149
aVJUNGLE
p1150
aVMIDDLE
p1151
aVJUNGLE
p1152
aVTOP
p1153
aVBOTTOM
p1154
aVMIDDLE
p1155
aVBOTTOM
p1156
aVBOTTOM
p1157
aVBOTTOM
p1158
aVMIDDLE
p1159
aVTOP
p1160
aVJUNGLE
p1161
aVJUNGLE
p1162
aVMIDDLE
p1163
aVTOP
p1164
aVBOTTOM
p1165
aVBOTTOM
p1166
aVJUNGLE
p1167
aVJUNGLE
p1168
aVMIDDLE
p1169
aVBOTTOM
p1170
aVBOTTOM
p1171
aVMIDDLE
p1172
aVBOTTOM
p1173
aVTOP
p1174
aVBOTTOM
p1175
aVJUNGLE
p1176
aVBOTTOM
p1177
aVBOTTOM
p1178
aVMIDDLE
p1179
aVTOP
p1180
aVJUNGLE
p1181
aVTOP
p1182
aVBOTTOM
p1183
aVMIDDLE
p1184
aVBOTTOM
p1185
aVJUNGLE
p1186
aVBOTTOM
p1187
aVBOTTOM
p1188
aVMIDDLE
p1189
aVJUNGLE
p1190
aVTOP
p1191
aVBOTTOM
p1192
aVBOTTOM
p1193
aVJUNGLE
p1194
aVTOP
p1195
aVMIDDLE
p1196
aVBOTTOM
p1197
aVBOTTOM
p1198
aVJUNGLE
p1199
aVMIDDLE
p1200
aVTOP
p1201
aVJUNGLE
p1202
aVBOTTOM
p1203
aVMIDDLE
p1204
aVTOP
p1205
aVBOTTOM
p1206
aVMIDDLE
p1207
aVBOTTOM
p1208
aVJUNGLE
p1209
aVTOP
p1210
aVBOTTOM
p1211
aVBOTTOM
p1212
aVJUNGLE
p1213
aVTOP
p1214
aVMIDDLE
p1215
aVBOTTOM
p1216
aVBOTTOM
p1217
aVTOP
p1218
aVMIDDLE
p1219
aVJUNGLE
p1220
aVBOTTOM
p1221
aVJUNGLE
p1222
aVTOP
p1223
aVBOTTOM
p1224
aVMIDDLE
p1225
aVBOTTOM
p1226
aVMIDDLE
p1227
aVBOTTOM
p1228
aVBOTTOM
p1229
aVJUNGLE
p1230
aVJUNGLE
p1231
aVBOTTOM
p1232
aVBOTTOM
p1233
aVTOP
p1234
aVMIDDLE
p1235
aVJUNGLE
p1236
aVBOTTOM
p1237
aVJUNGLE
p1238
aVMIDDLE
p1239
aVTOP
p1240
aVBOTTOM
p1241
aVBOTTOM
p1242
aVMIDDLE
p1243
aVTOP
p1244
aVBOTTOM
p1245
aVJUNGLE
p1246
aVBOTTOM
p1247
aVJUNGLE
p1248
aVMIDDLE
p1249
aVTOP
p1250
aVBOTTOM
p1251
aVTOP
p1252
aVBOTTOM
p1253
aVMIDDLE
p1254
aVBOTTOM
p1255
aVJUNGLE
p1256
aVTOP
p1257
aVMIDDLE
p1258
aVBOTTOM
p1259
aVBOTTOM
p1260
aVJUNGLE
p1261
aVBOTTOM
p1262
aVMIDDLE
p1263
aVJUNGLE
p1264
aVBOTTOM
p1265
aVTOP
p1266
aVBOTTOM
p1267
aVJUNGLE
p1268
aVTOP
p1269
aVMIDDLE
p1270
aVBOTTOM
p1271
aVBOTTOM
p1272
aVJUNGLE
p1273
aVTOP
p1274
aVBOTTOM
p1275
aVMIDDLE
p1276
aVBOTTOM
p1277
aVBOTTOM
p1278
aVTOP
p1279
aVMIDDLE
p1280
aVJUNGLE
p1281
aVMIDDLE
p1282
aVTOP
p1283
aVJUNGLE
p1284
aVBOTTOM
p1285
aVBOTTOM
p1286
aVJUNGLE
p1287
aVBOTTOM
p1288
aVTOP
p1289
aVMIDDLE
p1290
aVBOTTOM
p1291
aVMIDDLE
p1292
aVBOTTOM
p1293
aVBOTTOM
p1294
aVJUNGLE
p1295
aVTOP
p1296
aVBOTTOM
p1297
aVMIDDLE
p1298
aVTOP
p1299
aVBOTTOM
p1300
aVJUNGLE
p1301
aVJUNGLE
p1302
aVBOTTOM
p1303
aVMIDDLE
p1304
aVTOP
p1305
aVBOTTOM
p1306
aVJUNGLE
p1307
aVTOP
p1308
aVBOTTOM
p1309
aVBOTTOM
p1310
aVMIDDLE
p1311
aVBOTTOM
p1312
aVTOP
p1313
aVBOTTOM
p1314
aVMIDDLE
p1315
aVJUNGLE
p1316
aVMIDDLE
p1317
aVBOTTOM
p1318
aVJUNGLE
p1319
aVTOP
p1320
aVBOTTOM
p1321
aVMIDDLE
p1322
aVBOTTOM
p1323
aVTOP
p1324
aVBOTTOM
p1325
aVJUNGLE
p1326
aVJUNGLE
p1327
aVBOTTOM
p1328
aVTOP
p1329
aVMIDDLE
p1330
aVBOTTOM
p1331
aVBOTTOM
p1332
aVTOP
p1333
aVJUNGLE
p1334
aVMIDDLE
p1335
aVBOTTOM
p1336
aVJUNGLE
p1337
aVBOTTOM
p1338
aVTOP
p1339
aVMIDDLE
p1340
aVBOTTOM
p1341
aVMIDDLE
p1342
aVTOP
p1343
aVBOTTOM
p1344
aVJUNGLE
p1345
aVBOTTOM
p1346
aVBOTTOM
p1347
aVJUNGLE
p1348
aVBOTTOM
p1349
aVTOP
p1350
aVMIDDLE
p1351
aVTOP
p1352
aVBOTTOM
p1353
aVBOTTOM
p1354
aVJUNGLE
p1355
aVMIDDLE
p1356
aVBOTTOM
p1357
aVMIDDLE
p1358
aVTOP
p1359
aVJUNGLE
p1360
aVBOTTOM
p1361
aVBOTTOM
p1362
aVJUNGLE
p1363
aVTOP
p1364
aVMIDDLE
p1365
aVBOTTOM
p1366
aVJUNGLE
p1367
aVMIDDLE
p1368
aVBOTTOM
p1369
aVBOTTOM
p1370
aVTOP
p1371
aVJUNGLE
p1372
aVTOP
p1373
aVBOTTOM
p1374
aVBOTTOM
p1375
aVMIDDLE
p1376
aVBOTTOM
p1377
aVJUNGLE
p1378
aVTOP
p1379
aVBOTTOM
p1380
aVMIDDLE
p1381
aVTOP
p1382
aVJUNGLE
p1383
aVMIDDLE
p1384
aVBOTTOM
p1385
aVBOTTOM
p1386
aVTOP
p1387
aVBOTTOM
p1388
aVMIDDLE
p1389
aVJUNGLE
p1390
aVBOTTOM
p1391
aVBOTTOM
p1392
aVMIDDLE
p1393
aVJUNGLE
p1394
aVBOTTOM
p1395
aVTOP
p1396
aVBOTTOM
p1397
aVJUNGLE
p1398
aVBOTTOM
p1399
aVTOP
p1400
aVMIDDLE
p1401
aVBOTTOM
p1402
aVMIDDLE
p1403
aVTOP
p1404
aVJUNGLE
p1405
aVBOTTOM
p1406
aVMIDDLE
p1407
aVJUNGLE
p1408
aVBOTTOM
p1409
aVTOP
p1410
aVBOTTOM
p1411
aVMIDDLE
p1412
aVBOTTOM
p1413
aVJUNGLE
p1414
aVTOP
p1415
aVBOTTOM
p1416
aVJUNGLE
p1417
aVMIDDLE
p1418
aVBOTTOM
p1419
aVBOTTOM
p1420
aVTOP
p1421
aVJUNGLE
p1422
aVBOTTOM
p1423
aVBOTTOM
p1424
aVTOP
p1425
aVMIDDLE
p1426
aVBOTTOM
p1427
aVMIDDLE
p1428
aVJUNGLE
p1429
aVTOP
p1430
aVBOTTOM
p1431
aVMIDDLE
p1432
aVBOTTOM
p1433
aVJUNGLE
p1434
aVJUNGLE
p1435
aVJUNGLE
p1436
aVTOP
p1437
aVBOTTOM
p1438
aVMIDDLE
p1439
aVBOTTOM
p1440
aVJUNGLE
p1441
aVMIDDLE
p1442
aVTOP
p1443
aVJUNGLE
p1444
aVBOTTOM
p1445
aVBOTTOM
p1446
aVJUNGLE
p1447
aVTOP
p1448
aVBOTTOM
p1449
aVMIDDLE
p1450
aVBOTTOM
p1451
aVMIDDLE
p1452
aVJUNGLE
p1453
aVTOP
p1454
aVBOTTOM
p1455
aVBOTTOM
p1456
aVTOP
p1457
aVBOTTOM
p1458
aVMIDDLE
p1459
aVJUNGLE
p1460
aVBOTTOM
p1461
aVBOTTOM
p1462
aVTOP
p1463
aVBOTTOM
p1464
aVMIDDLE
p1465
aVJUNGLE
p1466
aVBOTTOM
p1467
aVMIDDLE
p1468
aVTOP
p1469
aVBOTTOM
p1470
aVJUNGLE
p1471
aVBOTTOM
p1472
aVBOTTOM
p1473
aVTOP
p1474
aVMIDDLE
p1475
aVJUNGLE
p1476
aVJUNGLE
p1477
aVBOTTOM
p1478
aVMIDDLE
p1479
aVTOP
p1480
aVBOTTOM
p1481
aVMIDDLE
p1482
aVJUNGLE
p1483
aVBOTTOM
p1484
aVBOTTOM
p1485
aVTOP
p1486
aVJUNGLE
p1487
aVTOP
p1488
aVMIDDLE
p1489
aVBOTTOM
p1490
aVBOTTOM
p1491
aVMIDDLE
p1492
aVJUNGLE
p1493
aVBOTTOM
p1494
aVBOTTOM
p1495
aVTOP
p1496
aVJUNGLE
p1497
aVBOTTOM
p1498
aVBOTTOM
p1499
aVTOP
p1500
aVMIDDLE
p1501
aVJUNGLE
p1502
aVBOTTOM
p1503
aVTOP
p1504
aVBOTTOM
p1505
aVMIDDLE
p1506
aVJUNGLE
p1507
aVTOP
p1508
aVMIDDLE
p1509
aVBOTTOM
p1510
aVBOTTOM
p1511
aVJUNGLE
p1512
aVBOTTOM
p1513
aVMIDDLE
p1514
aVTOP
p1515
aVBOTTOM
p1516
aVMIDDLE
p1517
aVMIDDLE
p1518
aVMIDDLE
p1519
aVMIDDLE
p1520
aVJUNGLE
p1521
aVMIDDLE
p1522
aVTOP
p1523
aVBOTTOM
p1524
aVJUNGLE
p1525
aVBOTTOM
p1526
aVMIDDLE
p1527
aVBOTTOM
p1528
aVBOTTOM
p1529
aVJUNGLE
p1530
aVTOP
p1531
aVMIDDLE
p1532
aVMIDDLE
p1533
aVBOTTOM
p1534
aVTOP
p1535
aVJUNGLE
p1536
aVBOTTOM
p1537
aVBOTTOM
p1538
aVMIDDLE
p1539
aVTOP
p1540
aVJUNGLE
p1541
aVBOTTOM
p1542
aVMIDDLE
p1543
aVBOTTOM
p1544
aVJUNGLE
p1545
aVBOTTOM
p1546
aVTOP
p1547
aVBOTTOM
p1548
aVMIDDLE
p1549
aVBOTTOM
p1550
aVMIDDLE
p1551
aVTOP
p1552
aVJUNGLE
p1553
aVTOP
p1554
aVBOTTOM
p1555
aVBOTTOM
p1556
aVMIDDLE
p1557
aVMIDDLE
p1558
aVBOTTOM
p1559
aVJUNGLE
p1560
aVTOP
p1561
aVBOTTOM
p1562
aVBOTTOM
p1563
aVTOP
p1564
aVJUNGLE
p1565
aVMIDDLE
p1566
aVBOTTOM
p1567
aVBOTTOM
p1568
aVJUNGLE
p1569
aVTOP
p1570
aVMIDDLE
p1571
aVBOTTOM
p1572
aVBOTTOM
p1573
aVJUNGLE
p1574
aVTOP
p1575
aVMIDDLE
p1576
aVBOTTOM
p1577
aVBOTTOM
p1578
aVBOTTOM
p1579
aVJUNGLE
p1580
aVTOP
p1581
aVMIDDLE
p1582
aVBOTTOM
p1583
aVTOP
p1584
aVJUNGLE
p1585
aVMIDDLE
p1586
aVBOTTOM
p1587
aVBOTTOM
p1588
aVTOP
p1589
aVJUNGLE
p1590
aVBOTTOM
p1591
aVMIDDLE
p1592
aVMIDDLE
p1593
aVJUNGLE
p1594
aVBOTTOM
p1595
aVTOP
p1596
aVBOTTOM
p1597
aVBOTTOM
p1598
aVBOTTOM
p1599
aVJUNGLE
p1600
aVTOP
p1601
aVMIDDLE
p1602
aVBOTTOM
p1603
aVTOP
p1604
aVBOTTOM
p1605
aVMIDDLE
p1606
aVJUNGLE
p1607
aVMIDDLE
p1608
aVTOP
p1609
aVBOTTOM
p1610
aVBOTTOM
p1611
aVJUNGLE
p1612
aVBOTTOM
p1613
aVBOTTOM
p1614
aVMIDDLE
p1615
aVTOP
p1616
aVJUNGLE
p1617
aVBOTTOM
p1618
aVJUNGLE
p1619
aVTOP
p1620
aVBOTTOM
p1621
aVJUNGLE
p1622
aVTOP
p1623
aVBOTTOM
p1624
aVMIDDLE
p1625
aVJUNGLE
p1626
aVBOTTOM
p1627
aVMIDDLE
p1628
aVBOTTOM
p1629
aVTOP
p1630
aVJUNGLE
p1631
aVBOTTOM
p1632
aVMIDDLE
p1633
aVTOP
p1634
aVBOTTOM
p1635
aVBOTTOM
p1636
aVMIDDLE
p1637
aVBOTTOM
p1638
aVMIDDLE
p1639
aVJUNGLE
p1640
aVBOTTOM
p1641
aVJUNGLE
p1642
aVBOTTOM
p1643
aVJUNGLE
p1644
aVMIDDLE
p1645
aVBOTTOM
p1646
aVTOP
p1647
aVMIDDLE
p1648
aVBOTTOM
p1649
aVTOP
p1650
aVJUNGLE
p1651
aVBOTTOM
p1652
aVJUNGLE
p1653
aVTOP
p1654
aVMIDDLE
p1655
aVBOTTOM
p1656
aVBOTTOM
p1657
aVJUNGLE
p1658
aVBOTTOM
p1659
aVBOTTOM
p1660
aVTOP
p1661
aVMIDDLE
p1662
aVJUNGLE
p1663
aVMIDDLE
p1664
aVTOP
p1665
aVBOTTOM
p1666
aVBOTTOM
p1667
aVBOTTOM
p1668
aVTOP
p1669
aVJUNGLE
p1670
aVBOTTOM
p1671
aVMIDDLE
p1672
aVTOP
p1673
aVMIDDLE
p1674
aVBOTTOM
p1675
aVBOTTOM
p1676
aVJUNGLE
p1677
aVJUNGLE
p1678
aVBOTTOM
p1679
aVBOTTOM
p1680
aVTOP
p1681
aVMIDDLE
p1682
aVBOTTOM
p1683
aVBOTTOM
p1684
aVMIDDLE
p1685
aVJUNGLE
p1686
aVJUNGLE
p1687
aVTOP
p1688
aVBOTTOM
p1689
aVJUNGLE
p1690
aVBOTTOM
p1691
aVMIDDLE
p1692
aVBOTTOM
p1693
aVMIDDLE
p1694
aVJUNGLE
p1695
aVTOP
p1696
aVBOTTOM
p1697
aVMIDDLE
p1698
aVBOTTOM
p1699
aVJUNGLE
p1700
aVJUNGLE
p1701
aVBOTTOM
p1702
aVMIDDLE
p1703
aVJUNGLE
p1704
aVTOP
p1705
aVBOTTOM
p1706
aVJUNGLE
p1707
aVBOTTOM
p1708
aVMIDDLE
p1709
aVJUNGLE
p1710
aVTOP
p1711
aVBOTTOM
p1712
aVJUNGLE
p1713
aVMIDDLE
p1714
aVBOTTOM
p1715
aVTOP
p1716
aVBOTTOM
p1717
aVMIDDLE
p1718
aVBOTTOM
p1719
aVJUNGLE
p1720
aVBOTTOM
p1721
aVTOP
p1722
aVTOP
p1723
aVJUNGLE
p1724
aVMIDDLE
p1725
aVBOTTOM
p1726
aVBOTTOM
p1727
aVJUNGLE
p1728
aVMIDDLE
p1729
aVBOTTOM
p1730
aVTOP
p1731
aVBOTTOM
p1732
aVTOP
p1733
aVJUNGLE
p1734
aVBOTTOM
p1735
aVBOTTOM
p1736
aVMIDDLE
p1737
aVBOTTOM
p1738
aVTOP
p1739
aVJUNGLE
p1740
aVBOTTOM
p1741
aVMIDDLE
p1742
aVMIDDLE
p1743
aVTOP
p1744
aVBOTTOM
p1745
aVBOTTOM
p1746
aVJUNGLE
p1747
aVBOTTOM
p1748
aVBOTTOM
p1749
aVMIDDLE
p1750
aVTOP
p1751
aVJUNGLE
p1752
aVBOTTOM
p1753
aVJUNGLE
p1754
aVJUNGLE
p1755
aVTOP
p1756
aVBOTTOM
p1757
aVJUNGLE
p1758
aVMIDDLE
p1759
aVTOP
p1760
aVBOTTOM
p1761
aVBOTTOM
p1762
aVBOTTOM
p1763
aVMIDDLE
p1764
aVTOP
p1765
aVJUNGLE
p1766
aVBOTTOM
p1767
aVBOTTOM
p1768
aVMIDDLE
p1769
aVTOP
p1770
aVBOTTOM
p1771
aVJUNGLE
p1772
aVJUNGLE
p1773
aVTOP
p1774
aVBOTTOM
p1775
aVBOTTOM
p1776
aVMIDDLE
p1777
aVJUNGLE
p1778
aVTOP
p1779
aVBOTTOM
p1780
aVMIDDLE
p1781
aVBOTTOM
p1782
aVJUNGLE
p1783
aVBOTTOM
p1784
aVTOP
p1785
aVMIDDLE
p1786
aVBOTTOM
p1787
aVJUNGLE
p1788
aVMIDDLE
p1789
aVBOTTOM
p1790
aVBOTTOM
p1791
aVTOP
p1792
aVBOTTOM
p1793
aVBOTTOM
p1794
aVTOP
p1795
aVMIDDLE
p1796
aVJUNGLE
p1797
aVBOTTOM
p1798
aVMIDDLE
p1799
aVTOP
p1800
aVJUNGLE
p1801
aVBOTTOM
p1802
aVMIDDLE
p1803
aVBOTTOM
p1804
aVJUNGLE
p1805
aVBOTTOM
p1806
aVTOP
p1807
aVBOTTOM
p1808
aVJUNGLE
p1809
aVBOTTOM
p1810
aVTOP
p1811
aVMIDDLE
p1812
aVBOTTOM
p1813
aVMIDDLE
p1814
aVTOP
p1815
aVBOTTOM
p1816
aVJUNGLE
p1817
aVBOTTOM
p1818
aVBOTTOM
p1819
aVTOP
p1820
aVMIDDLE
p1821
aVJUNGLE
p1822
aVTOP
p1823
aVJUNGLE
p1824
aVBOTTOM
p1825
aVMIDDLE
p1826
aVBOTTOM
p1827
aVMIDDLE
p1828
aVJUNGLE
p1829
aVBOTTOM
p1830
aVBOTTOM
p1831
aVTOP
p1832
aVMIDDLE
p1833
aVBOTTOM
p1834
aVBOTTOM
p1835
aVJUNGLE
p1836
aVTOP
p1837
aVMIDDLE
p1838
aVJUNGLE
p1839
aVTOP
p1840
aVBOTTOM
p1841
aVBOTTOM
p1842
aVJUNGLE
p1843
aVMIDDLE
p1844
aVJUNGLE
p1845
aVJUNGLE
p1846
aVJUNGLE
p1847
aVJUNGLE
p1848
aVBOTTOM
p1849
aVMIDDLE
p1850
aVBOTTOM
p1851
aVTOP
p1852
aVJUNGLE
p1853
aVJUNGLE
p1854
aVBOTTOM
p1855
aVMIDDLE
p1856
aVTOP
p1857
aVBOTTOM
p1858
aVMIDDLE
p1859
aVBOTTOM
p1860
aVBOTTOM
p1861
aVJUNGLE
p1862
aVTOP
p1863
aVJUNGLE
p1864
aVBOTTOM
p1865
aVBOTTOM
p1866
aVMIDDLE
p1867
aVTOP
p1868
aVBOTTOM
p1869
aVTOP
p1870
aVJUNGLE
p1871
aVMIDDLE
p1872
aVBOTTOM
p1873
aVBOTTOM
p1874
aVMIDDLE
p1875
aVJUNGLE
p1876
aVTOP
p1877
aVBOTTOM
p1878
aVJUNGLE
p1879
aVMIDDLE
p1880
aVTOP
p1881
aVBOTTOM
p1882
aVBOTTOM
p1883
aVTOP
p1884
aVBOTTOM
p1885
aVMIDDLE
p1886
aVJUNGLE
p1887
aVBOTTOM
p1888
aVBOTTOM
p1889
aVJUNGLE
p1890
aVMIDDLE
p1891
aVTOP
p1892
aVBOTTOM
p1893
aVBOTTOM
p1894
aVJUNGLE
p1895
aVMIDDLE
p1896
aVBOTTOM
p1897
aVTOP
p1898
aVBOTTOM
p1899
aVTOP
p1900
aVJUNGLE
p1901
aVBOTTOM
p1902
aVMIDDLE
p1903
aVBOTTOM
p1904
aVMIDDLE
p1905
aVTOP
p1906
aVJUNGLE
p1907
aVBOTTOM
p1908
aVMIDDLE
p1909
aVBOTTOM
p1910
aVBOTTOM
p1911
aVTOP
p1912
aVJUNGLE
p1913
aVBOTTOM
p1914
aVBOTTOM
p1915
aVJUNGLE
p1916
aVMIDDLE
p1917
aVTOP
p1918
aVMIDDLE
p1919
aVBOTTOM
p1920
aVBOTTOM
p1921
aVJUNGLE
p1922
aVJUNGLE
p1923
aVJUNGLE
p1924
aVBOTTOM
p1925
aVJUNGLE
p1926
aVMIDDLE
p1927
aVBOTTOM
p1928
aVMIDDLE
p1929
aVBOTTOM
p1930
aVBOTTOM
p1931
aVJUNGLE
p1932
aVJUNGLE
p1933
aVTOP
p1934
aVBOTTOM
p1935
aVMIDDLE
p1936
aVJUNGLE
p1937
aVBOTTOM
p1938
aVBOTTOM
p1939
aVJUNGLE
p1940
aVTOP
p1941
aVBOTTOM
p1942
aVMIDDLE
p1943
aVBOTTOM
p1944
aVMIDDLE
p1945
aVBOTTOM
p1946
aVTOP
p1947
aVJUNGLE
p1948
aVBOTTOM
p1949
aVMIDDLE
p1950
aVJUNGLE
p1951
aVTOP
p1952
aVBOTTOM
p1953
aVBOTTOM
p1954
aVBOTTOM
p1955
aVMIDDLE
p1956
aVJUNGLE
p1957
aVTOP
p1958
aVJUNGLE
p1959
aVTOP
p1960
aVBOTTOM
p1961
aVBOTTOM
p1962
aVJUNGLE
p1963
aVBOTTOM
p1964
aVMIDDLE
p1965
aVJUNGLE
p1966
aVBOTTOM
p1967
aVJUNGLE
p1968
aVTOP
p1969
aVMIDDLE
p1970
aVBOTTOM
p1971
aVBOTTOM
p1972
aVJUNGLE
p1973
aVTOP
p1974
aVBOTTOM
p1975
aVBOTTOM
p1976
aVMIDDLE
p1977
aVJUNGLE
p1978
aVTOP
p1979
aVBOTTOM
p1980
aVMIDDLE
p1981
aVBOTTOM
p1982
aVJUNGLE
p1983
aVBOTTOM
p1984
aVBOTTOM
p1985
aVMIDDLE
p1986
aVJUNGLE
p1987
aVTOP
p1988
aVMIDDLE
p1989
aVBOTTOM
p1990
aVJUNGLE
p1991
aVTOP
p1992
aVBOTTOM
p1993
aVTOP
p1994
aVBOTTOM
p1995
aVBOTTOM
p1996
aVMIDDLE
p1997
aVJUNGLE
p1998
aVBOTTOM
p1999
aVTOP
p2000
aVBOTTOM
p2001
aVMIDDLE
p2002
aVJUNGLE
p2003
aVBOTTOM
p2004
aVTOP
p2005
aVJUNGLE
p2006
aVMIDDLE
p2007
aVBOTTOM
p2008
aVTOP
p2009
aVBOTTOM
p2010
aVJUNGLE
p2011
aVMIDDLE
p2012
aVBOTTOM
p2013
aVBOTTOM
p2014
aVBOTTOM
p2015
aVTOP
p2016
aVJUNGLE
p2017
aVMIDDLE
p2018
aVJUNGLE
p2019
aVBOTTOM
p2020
aVMIDDLE
p2021
aVTOP
p2022
aVBOTTOM
p2023
aVMIDDLE
p2024
aVBOTTOM
p2025
aVTOP
p2026
aVJUNGLE
p2027
aVBOTTOM
p2028
aVBOTTOM
p2029
aVTOP
p2030
aVBOTTOM
p2031
aVMIDDLE
p2032
aVJUNGLE
p2033
aVJUNGLE
p2034
aVTOP
p2035
aVBOTTOM
p2036
aVMIDDLE
p2037
aVBOTTOM
p2038
aVJUNGLE
p2039
aVMIDDLE
p2040
aVBOTTOM
p2041
aVTOP
p2042
aVBOTTOM
p2043
aVJUNGLE
p2044
aVTOP
p2045
aVBOTTOM
p2046
aVBOTTOM
p2047
aVMIDDLE
p2048
aVTOP
p2049
aVMIDDLE
p2050
aVBOTTOM
p2051
aVBOTTOM
p2052
aVJUNGLE
p2053
aVBOTTOM
p2054
aVBOTTOM
p2055
aVTOP
p2056
aVJUNGLE
p2057
aVMIDDLE
p2058
aVBOTTOM
p2059
aVMIDDLE
p2060
aVBOTTOM
p2061
aVJUNGLE
p2062
aVTOP
p2063
aVBOTTOM
p2064
aVJUNGLE
p2065
aVTOP
p2066
aVBOTTOM
p2067
aVMIDDLE
p2068
aVBOTTOM
p2069
aVMIDDLE
p2070
aVBOTTOM
p2071
aVJUNGLE
p2072
aVTOP
p2073
aVBOTTOM
p2074
aVJUNGLE
p2075
aVMIDDLE
p2076
aVBOTTOM
p2077
aVTOP
p2078
aVBOTTOM
p2079
aVTOP
p2080
aVMIDDLE
p2081
aVJUNGLE
p2082
aVBOTTOM
p2083
aVMIDDLE
p2084
aVBOTTOM
p2085
aVTOP
p2086
aVBOTTOM
p2087
aVJUNGLE
p2088
aVMIDDLE
p2089
aVBOTTOM
p2090
aVTOP
p2091
aVJUNGLE
p2092
aVBOTTOM
p2093
aVBOTTOM
p2094
aVBOTTOM
p2095
aVMIDDLE
p2096
aVTOP
p2097
aVJUNGLE
p2098
aVJUNGLE
p2099
aVBOTTOM
p2100
aVTOP
p2101
aVBOTTOM
p2102
aVMIDDLE
p2103
aVBOTTOM
p2104
aVBOTTOM
p2105
aVJUNGLE
p2106
aVMIDDLE
p2107
aVTOP
p2108
aVBOTTOM
p2109
aVMIDDLE
p2110
aVTOP
p2111
aVBOTTOM
p2112
aVJUNGLE
p2113
aVTOP
p2114
aVBOTTOM
p2115
aVMIDDLE
p2116
aVBOTTOM
p2117
aVJUNGLE
p2118
aVBOTTOM
p2119
aVMIDDLE
p2120
aVBOTTOM
p2121
aVTOP
p2122
aVJUNGLE
p2123
aVJUNGLE
p2124
aVBOTTOM
p2125
aVTOP
p2126
aVMIDDLE
p2127
aVBOTTOM
p2128
aVTOP
p2129
aVMIDDLE
p2130
aVBOTTOM
p2131
aVBOTTOM
p2132
aVJUNGLE
p2133
aVBOTTOM
p2134
aVMIDDLE
p2135
aVBOTTOM
p2136
aVTOP
p2137
aVJUNGLE
p2138
aVBOTTOM
p2139
aVJUNGLE
p2140
aVTOP
p2141
aVBOTTOM
p2142
aVMIDDLE
p2143
aVTOP
p2144
aVMIDDLE
p2145
aVBOTTOM
p2146
aVBOTTOM
p2147
aVJUNGLE
p2148
aVTOP
p2149
aVJUNGLE
p2150
aVBOTTOM
p2151
aVBOTTOM
p2152
aVMIDDLE
p2153
aVTOP
p2154
aVBOTTOM
p2155
aVJUNGLE
p2156
aVMIDDLE
p2157
aVBOTTOM
p2158
aVJUNGLE
p2159
aVBOTTOM
p2160
aVTOP
p2161
aVBOTTOM
p2162
aVMIDDLE
p2163
aVJUNGLE
p2164
aVTOP
p2165
aVMIDDLE
p2166
aVBOTTOM
p2167
aVBOTTOM
p2168
aVJUNGLE
p2169
aVMIDDLE
p2170
aVJUNGLE
p2171
aVBOTTOM
p2172
aVBOTTOM
p2173
aVBOTTOM
p2174
aVMIDDLE
p2175
aVBOTTOM
p2176
aVJUNGLE
p2177
aVTOP
p2178
aVTOP
p2179
aVBOTTOM
p2180
aVBOTTOM
p2181
aVMIDDLE
p2182
aVJUNGLE
p2183
aVBOTTOM
p2184
aVMIDDLE
p2185
aVJUNGLE
p2186
aVBOTTOM
p2187
aVTOP
p2188
aVMIDDLE
p2189
aVBOTTOM
p2190
aVJUNGLE
p2191
aVBOTTOM
p2192
aVTOP
p2193
aVJUNGLE
p2194
aVBOTTOM
p2195
aVTOP
p2196
aVBOTTOM
p2197
aVMIDDLE
p2198
aVMIDDLE
p2199
aVJUNGLE
p2200
aVBOTTOM
p2201
aVBOTTOM
p2202
aVTOP
p2203
aVMIDDLE
p2204
aVBOTTOM
p2205
aVBOTTOM
p2206
aVTOP
p2207
aVJUNGLE
p2208
aVMIDDLE
p2209
aVBOTTOM
p2210
aVBOTTOM
p2211
aVTOP
p2212
aVJUNGLE
p2213
aVJUNGLE
p2214
aVMIDDLE
p2215
aVTOP
p2216
aVBOTTOM
p2217
aVBOTTOM
p2218
aVTOP
p2219
aVBOTTOM
p2220
aVBOTTOM
p2221
aVMIDDLE
p2222
aVMIDDLE
p2223
aVJUNGLE
p2224
aVMIDDLE
p2225
aVBOTTOM
p2226
aVBOTTOM
p2227
aVTOP
p2228
aVBOTTOM
p2229
aVJUNGLE
p2230
aVBOTTOM
p2231
aVMIDDLE
p2232
aVTOP
p2233
aVBOTTOM
p2234
aVBOTTOM
p2235
aVJUNGLE
p2236
aVTOP
p2237
aVMIDDLE
p2238
aVBOTTOM
p2239
aVJUNGLE
p2240
aVTOP
p2241
aVBOTTOM
p2242
aVMIDDLE
p2243
aVMIDDLE
p2244
aVBOTTOM
p2245
aVJUNGLE
p2246
aVBOTTOM
p2247
aVTOP
p2248
aVBOTTOM
p2249
aVJUNGLE
p2250
aVBOTTOM
p2251
aVMIDDLE
p2252
aVTOP
p2253
aVMIDDLE
p2254
aVJUNGLE
p2255
aVBOTTOM
p2256
aVTOP
p2257
aVBOTTOM
p2258
aVMIDDLE
p2259
aVMIDDLE
p2260
aVMIDDLE
p2261
aVJUNGLE
p2262
aVMIDDLE
p2263
aVMIDDLE
p2264
aVMIDDLE
p2265
aVBOTTOM
p2266
aVTOP
p2267
aVJUNGLE
p2268
aVBOTTOM
p2269
aVBOTTOM
p2270
aVMIDDLE
p2271
aVBOTTOM
p2272
aVJUNGLE
p2273
aVTOP
p2274
aVBOTTOM
p2275
aVJUNGLE
p2276
aVBOTTOM
p2277
aVMIDDLE
p2278
aVTOP
p2279
aVBOTTOM
p2280
aVMIDDLE
p2281
aVBOTTOM
p2282
aVTOP
p2283
aVJUNGLE
p2284
aVJUNGLE
p2285
aVBOTTOM
p2286
aVMIDDLE
p2287
aVBOTTOM
p2288
aVTOP
p2289
aVBOTTOM
p2290
aVMIDDLE
p2291
aVJUNGLE
p2292
aVTOP
p2293
aVBOTTOM
p2294
aVBOTTOM
p2295
aVMIDDLE
p2296
aVJUNGLE
p2297
aVTOP
p2298
aVJUNGLE
p2299
aVBOTTOM
p2300
aVBOTTOM
p2301
aVJUNGLE
p2302
aVJUNGLE
p2303
aVTOP
p2304
aVJUNGLE
p2305
aVMIDDLE
p2306
aVTOP
p2307
aVBOTTOM
p2308
aVBOTTOM
p2309
aVBOTTOM
p2310
aVMIDDLE
p2311
aVTOP
p2312
aVJUNGLE
p2313
aVBOTTOM
p2314
aVTOP
p2315
aVJUNGLE
p2316
aVMIDDLE
p2317
aVBOTTOM
p2318
aVBOTTOM
p2319
aVMIDDLE
p2320
aVBOTTOM
p2321
aVJUNGLE
p2322
aVTOP
p2323
aVBOTTOM
p2324
aVTOP
p2325
aVMIDDLE
p2326
aVBOTTOM
p2327
aVJUNGLE
p2328
aVBOTTOM
p2329
aVJUNGLE
p2330
aVBOTTOM
p2331
aVTOP
p2332
aVMIDDLE
p2333
aVBOTTOM
p2334
aVTOP
p2335
aVBOTTOM
p2336
aVJUNGLE
p2337
aVMIDDLE
p2338
aVBOTTOM
p2339
aVTOP
p2340
aVMIDDLE
p2341
aVJUNGLE
p2342
aVBOTTOM
p2343
aVBOTTOM
p2344
aVMIDDLE
p2345
aVJUNGLE
p2346
aVBOTTOM
p2347
aVTOP
p2348
aVBOTTOM
p2349
aVMIDDLE
p2350
aVBOTTOM
p2351
aVJUNGLE
p2352
aVBOTTOM
p2353
aVJUNGLE
p2354
aVJUNGLE
p2355
aVMIDDLE
p2356
aVBOTTOM
p2357
aVTOP
p2358
aVBOTTOM
p2359
aVBOTTOM
p2360
aVBOTTOM
p2361
aVMIDDLE
p2362
aVJUNGLE
p2363
aVTOP
p2364
aVMIDDLE
p2365
aVBOTTOM
p2366
aVJUNGLE
p2367
aVBOTTOM
p2368
aVTOP
p2369
aVBOTTOM
p2370
aVMIDDLE
p2371
aVTOP
p2372
aVJUNGLE
p2373
aVBOTTOM
p2374
aVJUNGLE
p2375
aVBOTTOM
p2376
aVMIDDLE
p2377
aVBOTTOM
p2378
aVTOP
p2379
aVBOTTOM
p2380
aVJUNGLE
p2381
aVMIDDLE
p2382
aVTOP
p2383
aVBOTTOM
p2384
aVTOP
p2385
aVBOTTOM
p2386
aVMIDDLE
p2387
aVJUNGLE
p2388
aVBOTTOM
p2389
aVJUNGLE
p2390
aVBOTTOM
p2391
aVBOTTOM
p2392
aVTOP
p2393
aVMIDDLE
p2394
aVTOP
p2395
aVJUNGLE
p2396
aVMIDDLE
p2397
aVBOTTOM
p2398
aVBOTTOM
p2399
aVMIDDLE
p2400
aVBOTTOM
p2401
aVTOP
p2402
aVJUNGLE
p2403
aVBOTTOM
p2404
aVMIDDLE
p2405
aVTOP
p2406
aVJUNGLE
p2407
aVBOTTOM
p2408
aVBOTTOM
p2409
aVBOTTOM
p2410
aVBOTTOM
p2411
aVMIDDLE
p2412
aVJUNGLE
p2413
aVTOP
p2414
aVBOTTOM
p2415
aVMIDDLE
p2416
aVBOTTOM
p2417
aVJUNGLE
p2418
aVTOP
p2419
aVBOTTOM
p2420
aVMIDDLE
p2421
aVJUNGLE
p2422
aVTOP
p2423
aVBOTTOM
p2424
aVMIDDLE
p2425
aVBOTTOM
p2426
aVJUNGLE
p2427
aVBOTTOM
p2428
aVTOP
p2429
aVMIDDLE
p2430
aVBOTTOM
p2431
aVJUNGLE
p2432
aVTOP
p2433
aVBOTTOM
p2434
aVJUNGLE
p2435
aVBOTTOM
p2436
aVMIDDLE
p2437
aVTOP
p2438
aVJUNGLE
p2439
aVJUNGLE
p2440
aVBOTTOM
p2441
aVMIDDLE
p2442
aVTOP
p2443
aVBOTTOM
p2444
aVJUNGLE
p2445
aVBOTTOM
p2446
aVBOTTOM
p2447
aVMIDDLE
p2448
aVTOP
p2449
aVMIDDLE
p2450
aVBOTTOM
p2451
aVBOTTOM
p2452
aVTOP
p2453
aVJUNGLE
p2454
aVBOTTOM
p2455
aVTOP
p2456
aVMIDDLE
p2457
aVBOTTOM
p2458
aVJUNGLE
p2459
aVJUNGLE
p2460
aVTOP
p2461
aVMIDDLE
p2462
aVBOTTOM
p2463
aVBOTTOM
p2464
aVBOTTOM
p2465
aVBOTTOM
p2466
aVTOP
p2467
aVJUNGLE
p2468
aVMIDDLE
p2469
aVBOTTOM
p2470
aVTOP
p2471
aVJUNGLE
p2472
aVMIDDLE
p2473
aVBOTTOM
p2474
aVBOTTOM
p2475
aVTOP
p2476
aVMIDDLE
p2477
aVBOTTOM
p2478
aVJUNGLE
p2479
aVBOTTOM
p2480
aVMIDDLE
p2481
aVJUNGLE
p2482
aVBOTTOM
p2483
aVTOP
p2484
aVTOP
p2485
aVJUNGLE
p2486
aVBOTTOM
p2487
aVBOTTOM
p2488
aVMIDDLE
p2489
aVBOTTOM
p2490
aVBOTTOM
p2491
aVMIDDLE
p2492
aVTOP
p2493
aVJUNGLE
p2494
aVBOTTOM
p2495
aVBOTTOM
p2496
aVTOP
p2497
aVMIDDLE
p2498
aVJUNGLE
p2499
aVJUNGLE
p2500
aVBOTTOM
p2501
aVTOP
p2502
aVMIDDLE
p2503
aVBOTTOM
p2504
aVTOP
p2505
aVMIDDLE
p2506
aVJUNGLE
p2507
aVBOTTOM
p2508
aVBOTTOM
p2509
aVBOTTOM
p2510
aVMIDDLE
p2511
aVTOP
p2512
aVJUNGLE
p2513
aVBOTTOM
p2514
aVMIDDLE
p2515
aVJUNGLE
p2516
aVTOP
p2517
aVBOTTOM
p2518
aVBOTTOM
p2519
aVTOP
p2520
aVBOTTOM
p2521
aVJUNGLE
p2522
aVBOTTOM
p2523
aVMIDDLE
p2524
aVTOP
p2525
aVBOTTOM
p2526
aVBOTTOM
p2527
aVJUNGLE
p2528
aVMIDDLE
p2529
aVJUNGLE
p2530
aVTOP
p2531
aVBOTTOM
p2532
aVBOTTOM
p2533
aVMIDDLE
p2534
aVBOTTOM
p2535
aVBOTTOM
p2536
aVTOP
p2537
aVJUNGLE
p2538
aVMIDDLE
p2539
aVMIDDLE
p2540
aVBOTTOM
p2541
aVBOTTOM
p2542
aVTOP
p2543
aVJUNGLE
p2544
aVJUNGLE
p2545
aVTOP
p2546
aVJUNGLE
p2547
aVMIDDLE
p2548
aVBOTTOM
p2549
aVBOTTOM
p2550
aVBOTTOM
p2551
aVJUNGLE
p2552
aVTOP
p2553
aVMIDDLE
p2554
aVTOP
p2555
aVMIDDLE
p2556
aVBOTTOM
p2557
aVBOTTOM
p2558
aVJUNGLE
p2559
aVTOP
p2560
aVBOTTOM
p2561
aVJUNGLE
p2562
aVMIDDLE
p2563
aVBOTTOM
p2564
aVBOTTOM
p2565
aVTOP
p2566
aVBOTTOM
p2567
aVJUNGLE
p2568
aVMIDDLE
p2569
aVTOP
p2570
aVBOTTOM
p2571
aVMIDDLE
p2572
aVJUNGLE
p2573
aVBOTTOM
p2574
aVBOTTOM
p2575
aVBOTTOM
p2576
aVJUNGLE
p2577
aVMIDDLE
p2578
aVTOP
p2579
aVJUNGLE
p2580
aVBOTTOM
p2581
aVMIDDLE
p2582
aVBOTTOM
p2583
aVTOP
p2584
aVMIDDLE
p2585
aVBOTTOM
p2586
aVJUNGLE
p2587
aVBOTTOM
p2588
aVTOP
p2589
aVBOTTOM
p2590
aVMIDDLE
p2591
aVBOTTOM
p2592
aVTOP
p2593
aVJUNGLE
p2594
aVJUNGLE
p2595
aVTOP
p2596
aVBOTTOM
p2597
aVBOTTOM
p2598
aVJUNGLE
p2599
aVBOTTOM
p2600
aVMIDDLE
p2601
aVBOTTOM
p2602
aVJUNGLE
p2603
aVTOP
p2604
aVJUNGLE
p2605
aVMIDDLE
p2606
aVMIDDLE
p2607
aVJUNGLE
p2608
aVMIDDLE
p2609
aVJUNGLE
p2610
aVJUNGLE
p2611
aVTOP
p2612
aVBOTTOM
p2613
aVBOTTOM
p2614
aVMIDDLE
p2615
aVMIDDLE
p2616
aVBOTTOM
p2617
aVTOP
p2618
aVJUNGLE
p2619
aVBOTTOM
p2620
aVMIDDLE
p2621
aVBOTTOM
p2622
aVJUNGLE
p2623
aVTOP
p2624
aVJUNGLE
p2625
aVMIDDLE
p2626
aVBOTTOM
p2627
aVTOP
p2628
aVJUNGLE
p2629
aVBOTTOM
p2630
aVTOP
p2631
aVBOTTOM
p2632
aVBOTTOM
p2633
aVJUNGLE
p2634
aVMIDDLE
p2635
aVBOTTOM
p2636
aVTOP
p2637
aVBOTTOM
p2638
aVJUNGLE
p2639
aVMIDDLE
p2640
aVBOTTOM
p2641
aVTOP
p2642
aVMIDDLE
p2643
aVBOTTOM
p2644
aVJUNGLE
p2645
aVMIDDLE
p2646
aVBOTTOM
p2647
aVJUNGLE
p2648
aVBOTTOM
p2649
aVTOP
p2650
aVTOP
p2651
aVBOTTOM
p2652
aVBOTTOM
p2653
aVJUNGLE
p2654
aVMIDDLE
p2655
aVBOTTOM
p2656
aVBOTTOM
p2657
aVJUNGLE
p2658
aVTOP
p2659
aVMIDDLE
p2660
aVJUNGLE
p2661
aVMIDDLE
p2662
aVBOTTOM
p2663
aVTOP
p2664
aVBOTTOM
p2665
aVTOP
p2666
aVMIDDLE
p2667
aVBOTTOM
p2668
aVBOTTOM
p2669
aVJUNGLE
p2670
aVJUNGLE
p2671
aVBOTTOM
p2672
aVMIDDLE
p2673
aVJUNGLE
p2674
aVBOTTOM
p2675
aVMIDDLE
p2676
aVBOTTOM
p2677
aVBOTTOM
p2678
aVJUNGLE
p2679
aVTOP
p2680
aVTOP
p2681
aVBOTTOM
p2682
aVMIDDLE
p2683
aVJUNGLE
p2684
aVBOTTOM
p2685
aVBOTTOM
p2686
aVMIDDLE
p2687
aVJUNGLE
p2688
aVBOTTOM
p2689
aVTOP
p2690
aVBOTTOM
p2691
aVBOTTOM
p2692
aVMIDDLE
p2693
aVTOP
p2694
aVJUNGLE
p2695
aVJUNGLE
p2696
aVBOTTOM
p2697
aVMIDDLE
p2698
aVBOTTOM
p2699
aVJUNGLE
p2700
aVJUNGLE
p2701
aVBOTTOM
p2702
aVBOTTOM
p2703
aVMIDDLE
p2704
aVTOP
p2705
aVMIDDLE
p2706
aVBOTTOM
p2707
aVJUNGLE
p2708
aVTOP
p2709
aVBOTTOM
p2710
aVTOP
p2711
aVMIDDLE
p2712
aVBOTTOM
p2713
aVJUNGLE
p2714
aVBOTTOM
p2715
aVJUNGLE
p2716
aVMIDDLE
p2717
aVBOTTOM
p2718
aVTOP
p2719
aVBOTTOM
p2720
aVMIDDLE
p2721
aVTOP
p2722
aVBOTTOM
p2723
aVBOTTOM
p2724
aVJUNGLE
p2725
aVTOP
p2726
aVJUNGLE
p2727
aVMIDDLE
p2728
aVBOTTOM
p2729
aVBOTTOM
p2730
aVJUNGLE
p2731
aVJUNGLE
p2732
aVBOTTOM
p2733
aVTOP
p2734
aVBOTTOM
p2735
aVBOTTOM
p2736
aVTOP
p2737
aVBOTTOM
p2738
aVMIDDLE
p2739
aVJUNGLE
p2740
aVTOP
p2741
aVBOTTOM
p2742
aVMIDDLE
p2743
aVJUNGLE
p2744
aVBOTTOM
p2745
aVMIDDLE
p2746
aVJUNGLE
p2747
aVBOTTOM
p2748
aVBOTTOM
p2749
aVTOP
p2750
aVBOTTOM
p2751
aVBOTTOM
p2752
aVTOP
p2753
aVJUNGLE
p2754
aVMIDDLE
p2755
aVBOTTOM
p2756
aVMIDDLE
p2757
aVJUNGLE
p2758
aVTOP
p2759
aVBOTTOM
p2760
aVMIDDLE
p2761
aVBOTTOM
p2762
aVBOTTOM
p2763
aVJUNGLE
p2764
aVTOP
p2765
aVMIDDLE
p2766
aVJUNGLE
p2767
aVTOP
p2768
aVBOTTOM
p2769
aVBOTTOM
p2770
aVJUNGLE
p2771
aVMIDDLE
p2772
aVTOP
p2773
aVBOTTOM
p2774
aVBOTTOM
p2775
aVJUNGLE
p2776
aVBOTTOM
p2777
aVBOTTOM
p2778
aVTOP
p2779
aVMIDDLE
p2780
aVBOTTOM
p2781
aVMIDDLE
p2782
aVJUNGLE
p2783
aVBOTTOM
p2784
aVTOP
p2785
aVMIDDLE
p2786
aVJUNGLE
p2787
aVJUNGLE
p2788
aVBOTTOM
p2789
aVTOP
p2790
aVBOTTOM
p2791
aVJUNGLE
p2792
aVBOTTOM
p2793
aVMIDDLE
p2794
aVTOP
p2795
aVTOP
p2796
aVJUNGLE
p2797
aVBOTTOM
p2798
aVBOTTOM
p2799
aVJUNGLE
p2800
aVBOTTOM
p2801
aVJUNGLE
p2802
aVBOTTOM
p2803
aVMIDDLE
p2804
aVTOP
p2805
aVBOTTOM
p2806
aVJUNGLE
p2807
aVTOP
p2808
aVMIDDLE
p2809
aVBOTTOM
p2810
aVJUNGLE
p2811
aVMIDDLE
p2812
aVBOTTOM
p2813
aVTOP
p2814
aVBOTTOM
p2815
aVBOTTOM
p2816
aVTOP
p2817
aVMIDDLE
p2818
aVJUNGLE
p2819
aVBOTTOM
p2820
aVTOP
p2821
aVBOTTOM
p2822
aVMIDDLE
p2823
aVJUNGLE
p2824
aVBOTTOM
p2825
aVBOTTOM
p2826
aVMIDDLE
p2827
aVBOTTOM
p2828
aVJUNGLE
p2829
aVTOP
p2830
aVTOP
p2831
aVMIDDLE
p2832
aVBOTTOM
p2833
aVBOTTOM
p2834
aVMIDDLE
p2835
aVMIDDLE
p2836
aVBOTTOM
p2837
aVBOTTOM
p2838
aVTOP
p2839
aVJUNGLE
p2840
aVBOTTOM
p2841
aVMIDDLE
p2842
aVJUNGLE
p2843
aVBOTTOM
p2844
aVTOP
p2845
aVBOTTOM
p2846
aVTOP
p2847
aVMIDDLE
p2848
aVJUNGLE
p2849
aVBOTTOM
p2850
aVMIDDLE
p2851
aVTOP
p2852
aVJUNGLE
p2853
aVBOTTOM
p2854
aVBOTTOM
p2855
aVBOTTOM
p2856
aVBOTTOM
p2857
aVMIDDLE
p2858
aVTOP
p2859
aVJUNGLE
p2860
aVJUNGLE
p2861
aVMIDDLE
p2862
aVTOP
p2863
aVBOTTOM
p2864
aVBOTTOM
p2865
aVTOP
p2866
aVJUNGLE
p2867
aVBOTTOM
p2868
aVMIDDLE
p2869
aVBOTTOM
p2870
aVTOP
p2871
aVBOTTOM
p2872
aVMIDDLE
p2873
aVBOTTOM
p2874
aVJUNGLE
p2875
aVJUNGLE
p2876
aVTOP
p2877
aVBOTTOM
p2878
aVBOTTOM
p2879
aVMIDDLE
p2880
aVTOP
p2881
aVJUNGLE
p2882
aVBOTTOM
p2883
aVBOTTOM
p2884
aVMIDDLE
p2885
aVJUNGLE
p2886
aVMIDDLE
p2887
aVBOTTOM
p2888
aVJUNGLE
p2889
aVBOTTOM
p2890
aVMIDDLE
p2891
aVJUNGLE
p2892
aVBOTTOM
p2893
aVTOP
p2894
aVBOTTOM
p2895
aVBOTTOM
p2896
aVBOTTOM
p2897
aVJUNGLE
p2898
aVMIDDLE
p2899
aVTOP
p2900
aVJUNGLE
p2901
aVTOP
p2902
aVBOTTOM
p2903
aVBOTTOM
p2904
aVMIDDLE
p2905
aVBOTTOM
p2906
aVJUNGLE
p2907
aVBOTTOM
p2908
aVTOP
p2909
aVMIDDLE
p2910
aVBOTTOM
p2911
aVJUNGLE
p2912
aVBOTTOM
p2913
aVTOP
p2914
aVMIDDLE
p2915
aVJUNGLE
p2916
aVBOTTOM
p2917
aVBOTTOM
p2918
aVMIDDLE
p2919
aVTOP
p2920
aVBOTTOM
p2921
aVMIDDLE
p2922
aVBOTTOM
p2923
aVTOP
p2924
aVJUNGLE
p2925
aVMIDDLE
p2926
aVBOTTOM
p2927
aVBOTTOM
p2928
aVJUNGLE
p2929
aVTOP
p2930
aVTOP
p2931
aVMIDDLE
p2932
aVJUNGLE
p2933
aVBOTTOM
p2934
aVBOTTOM
p2935
aVMIDDLE
p2936
aVBOTTOM
p2937
aVBOTTOM
p2938
aVJUNGLE
p2939
aVTOP
p2940
aVTOP
p2941
aVMIDDLE
p2942
aVJUNGLE
p2943
aVBOTTOM
p2944
aVBOTTOM
p2945
aVMIDDLE
p2946
aVJUNGLE
p2947
aVBOTTOM
p2948
aVTOP
p2949
aVBOTTOM
p2950
aVTOP
p2951
aVMIDDLE
p2952
aVBOTTOM
p2953
aVJUNGLE
p2954
aVBOTTOM
p2955
aVBOTTOM
p2956
aVBOTTOM
p2957
aVMIDDLE
p2958
aVJUNGLE
p2959
aVTOP
p2960
aVBOTTOM
p2961
aVMIDDLE
p2962
aVTOP
p2963
aVBOTTOM
p2964
aVJUNGLE
p2965
aVBOTTOM
p2966
aVJUNGLE
p2967
aVMIDDLE
p2968
aVBOTTOM
p2969
aVTOP
p2970
aVTOP
p2971
aVBOTTOM
p2972
aVJUNGLE
p2973
aVMIDDLE
p2974
aVBOTTOM
p2975
aVBOTTOM
p2976
aVMIDDLE
p2977
aVBOTTOM
p2978
aVJUNGLE
p2979
aVTOP
p2980
aVJUNGLE
p2981
aVMIDDLE
p2982
aVTOP
p2983
aVBOTTOM
p2984
aVBOTTOM
p2985
aVBOTTOM
p2986
aVTOP
p2987
aVJUNGLE
p2988
aVMIDDLE
p2989
aVBOTTOM
p2990
aVJUNGLE
p2991
aVBOTTOM
p2992
aVBOTTOM
p2993
aVTOP
p2994
aVMIDDLE
p2995
aVTOP
p2996
aVJUNGLE
p2997
aVMIDDLE
p2998
aVBOTTOM
p2999
aVBOTTOM
p3000
aVBOTTOM
p3001
aVBOTTOM
p3002
aVMIDDLE
p3003
aVJUNGLE
p3004
aVTOP
p3005
aVJUNGLE
p3006
aVBOTTOM
p3007
aVBOTTOM
p3008
aVTOP
p3009
aVMIDDLE
p3010
aVBOTTOM
p3011
aVMIDDLE
p3012
aVBOTTOM
p3013
aVTOP
p3014
aVJUNGLE
p3015
aVTOP
p3016
aVBOTTOM
p3017
aVBOTTOM
p3018
aVMIDDLE
p3019
aVJUNGLE
p3020
aVBOTTOM
p3021
aVBOTTOM
p3022
aVMIDDLE
p3023
aVTOP
p3024
aVJUNGLE
p3025
aVBOTTOM
p3026
aVTOP
p3027
aVBOTTOM
p3028
aVMIDDLE
p3029
aVJUNGLE
p3030
aVTOP
p3031
aVBOTTOM
p3032
aVMIDDLE
p3033
aVJUNGLE
p3034
aVBOTTOM
p3035
aVMIDDLE
p3036
aVTOP
p3037
aVJUNGLE
p3038
aVBOTTOM
p3039
aVBOTTOM
p3040
aVBOTTOM
p3041
aVMIDDLE
p3042
aVTOP
p3043
aVBOTTOM
p3044
aVJUNGLE
p3045
aVJUNGLE
p3046
aVMIDDLE
p3047
aVBOTTOM
p3048
aVBOTTOM
p3049
aVTOP
p3050
aVJUNGLE
p3051
aVMIDDLE
p3052
aVTOP
p3053
aVJUNGLE
p3054
aVBOTTOM
p3055
aVJUNGLE
p3056
aVBOTTOM
p3057
aVBOTTOM
p3058
aVTOP
p3059
aVMIDDLE
p3060
aVJUNGLE
p3061
aVTOP
p3062
aVBOTTOM
p3063
aVMIDDLE
p3064
aVBOTTOM
p3065
aVTOP
p3066
aVMIDDLE
p3067
aVJUNGLE
p3068
aVBOTTOM
p3069
aVBOTTOM
p3070
aVBOTTOM
p3071
aVTOP
p3072
aVMIDDLE
p3073
aVJUNGLE
p3074
aVBOTTOM
p3075
aVTOP
p3076
aVBOTTOM
p3077
aVMIDDLE
p3078
aVBOTTOM
p3079
aVJUNGLE
p3080
aVJUNGLE
p3081
aVTOP
p3082
aVBOTTOM
p3083
aVBOTTOM
p3084
aVMIDDLE
p3085
aVMIDDLE
p3086
aVBOTTOM
p3087
aVJUNGLE
p3088
aVBOTTOM
p3089
aVTOP
p3090
aVTOP
p3091
aVMIDDLE
p3092
aVJUNGLE
p3093
aVBOTTOM
p3094
aVBOTTOM
p3095
aVBOTTOM
p3096
aVBOTTOM
p3097
aVTOP
p3098
aVMIDDLE
p3099
aVJUNGLE
p3100
aVMIDDLE
p3101
aVJUNGLE
p3102
aVTOP
p3103
aVBOTTOM
p3104
aVBOTTOM
p3105
aVBOTTOM
p3106
aVMIDDLE
p3107
aVJUNGLE
p3108
aVTOP
p3109
aVBOTTOM
p3110
aVMIDDLE
p3111
aVJUNGLE
p3112
aVBOTTOM
p3113
aVBOTTOM
p3114
aVTOP
p3115
aVTOP
p3116
aVJUNGLE
p3117
aVBOTTOM
p3118
aVMIDDLE
p3119
aVBOTTOM
p3120
aVJUNGLE
p3121
aVBOTTOM
p3122
aVMIDDLE
p3123
aVBOTTOM
p3124
aVTOP
p3125
aVBOTTOM
p3126
aVTOP
p3127
aVMIDDLE
p3128
aVBOTTOM
p3129
aVJUNGLE
p3130
aVBOTTOM
p3131
aVJUNGLE
p3132
aVMIDDLE
p3133
aVBOTTOM
p3134
aVTOP
p3135
aVMIDDLE
p3136
aVTOP
p3137
aVBOTTOM
p3138
aVBOTTOM
p3139
aVJUNGLE
p3140
aVBOTTOM
p3141
aVBOTTOM
p3142
aVJUNGLE
p3143
aVTOP
p3144
aVMIDDLE
p3145
aVMIDDLE
p3146
aVTOP
p3147
aVJUNGLE
p3148
aVBOTTOM
p3149
aVBOTTOM
p3150
aVJUNGLE
p3151
aVJUNGLE
p3152
aVMIDDLE
p3153
aVTOP
p3154
aVJUNGLE
p3155
aVJUNGLE
p3156
aVTOP
p3157
aVMIDDLE
p3158
aVBOTTOM
p3159
aVBOTTOM
p3160
aVJUNGLE
p3161
aVMIDDLE
p3162
aVTOP
p3163
aVBOTTOM
p3164
aVBOTTOM
p3165
aVMIDDLE
p3166
aVTOP
p3167
aVJUNGLE
p3168
aVBOTTOM
p3169
aVBOTTOM
p3170
aVMIDDLE
p3171
aVBOTTOM
p3172
aVJUNGLE
p3173
aVTOP
p3174
aVBOTTOM
p3175
aVTOP
p3176
aVMIDDLE
p3177
aVBOTTOM
p3178
aVJUNGLE
p3179
aVBOTTOM
p3180
aVMIDDLE
p3181
aVBOTTOM
p3182
aVJUNGLE
p3183
aVBOTTOM
p3184
aVTOP
p3185
aVBOTTOM
p3186
aVBOTTOM
p3187
aVTOP
p3188
aVMIDDLE
p3189
aVJUNGLE
p3190
aVJUNGLE
p3191
aVMIDDLE
p3192
aVBOTTOM
p3193
aVTOP
p3194
aVBOTTOM
p3195
aVBOTTOM
p3196
aVBOTTOM
p3197
aVMIDDLE
p3198
aVTOP
p3199
aVJUNGLE
p3200
aVJUNGLE
p3201
aVTOP
p3202
aVMIDDLE
p3203
aVBOTTOM
p3204
aVBOTTOM
p3205
aVMIDDLE
p3206
aVBOTTOM
p3207
aVBOTTOM
p3208
aVJUNGLE
p3209
aVTOP
p3210
aVBOTTOM
p3211
aVJUNGLE
p3212
aVMIDDLE
p3213
aVBOTTOM
p3214
aVTOP
p3215
aVJUNGLE
p3216
aVBOTTOM
p3217
aVMIDDLE
p3218
aVJUNGLE
p3219
aVTOP
p3220
aVBOTTOM
p3221
aVBOTTOM
p3222
aVMIDDLE
p3223
aVJUNGLE
p3224
aVTOP
p3225
aVTOP
p3226
aVMIDDLE
p3227
aVJUNGLE
p3228
aVBOTTOM
p3229
aVBOTTOM
p3230
aVMIDDLE
p3231
aVTOP
p3232
aVJUNGLE
p3233
aVBOTTOM
p3234
aVBOTTOM
p3235
aVJUNGLE
p3236
aVTOP
p3237
aVMIDDLE
p3238
aVBOTTOM
p3239
aVBOTTOM
p3240
aVBOTTOM
p3241
aVMIDDLE
p3242
aVJUNGLE
p3243
aVTOP
p3244
aVBOTTOM
p3245
aVTOP
p3246
aVJUNGLE
p3247
aVBOTTOM
p3248
aVBOTTOM
p3249
aVMIDDLE
p3250
aVJUNGLE
p3251
aVTOP
p3252
aVMIDDLE
p3253
aVBOTTOM
p3254
aVBOTTOM
p3255
aVJUNGLE
p3256
aVMIDDLE
p3257
aVBOTTOM
p3258
aVBOTTOM
p3259
aVTOP
p3260
aVTOP
p3261
aVMIDDLE
p3262
aVJUNGLE
p3263
aVBOTTOM
p3264
aVBOTTOM
p3265
aVMIDDLE
p3266
aVBOTTOM
p3267
aVTOP
p3268
aVBOTTOM
p3269
aVJUNGLE
p3270
aVMIDDLE
p3271
aVJUNGLE
p3272
aVBOTTOM
p3273
aVTOP
p3274
aVBOTTOM
p3275
aVBOTTOM
p3276
aVBOTTOM
p3277
aVTOP
p3278
aVMIDDLE
p3279
aVJUNGLE
p3280
aVBOTTOM
p3281
aVTOP
p3282
aVBOTTOM
p3283
aVMIDDLE
p3284
aVJUNGLE
p3285
aVBOTTOM
p3286
aVJUNGLE
p3287
aVTOP
p3288
aVMIDDLE
p3289
aVBOTTOM
p3290
aVTOP
p3291
aVBOTTOM
p3292
aVMIDDLE
p3293
aVBOTTOM
p3294
aVJUNGLE
p3295
aVBOTTOM
p3296
aVJUNGLE
p3297
aVJUNGLE
p3298
aVBOTTOM
p3299
aVTOP
p3300
aVBOTTOM
p3301
aVTOP
p3302
aVMIDDLE
p3303
aVBOTTOM
p3304
aVJUNGLE
p3305
aVJUNGLE
p3306
aVBOTTOM
p3307
aVBOTTOM
p3308
aVMIDDLE
p3309
aVTOP
p3310
aVBOTTOM
p3311
aVJUNGLE
p3312
aVMIDDLE
p3313
aVBOTTOM
p3314
aVTOP
p3315
aVBOTTOM
p3316
aVMIDDLE
p3317
aVTOP
p3318
aVJUNGLE
p3319
aVBOTTOM
p3320
aVJUNGLE
p3321
aVMIDDLE
p3322
aVTOP
p3323
aVBOTTOM
p3324
aVBOTTOM
p3325
aVBOTTOM
p3326
aVBOTTOM
p3327
aVTOP
p3328
aVJUNGLE
p3329
aVMIDDLE
p3330
aVMIDDLE
p3331
aVJUNGLE
p3332
aVBOTTOM
p3333
aVTOP
p3334
aVBOTTOM
p3335
aVBOTTOM
p3336
aVTOP
p3337
aVBOTTOM
p3338
aVJUNGLE
p3339
aVMIDDLE
p3340
aVBOTTOM
p3341
aVJUNGLE
p3342
aVTOP
p3343
aVMIDDLE
p3344
aVBOTTOM
p3345
aVBOTTOM
p3346
aVBOTTOM
p3347
aVMIDDLE
p3348
aVTOP
p3349
aVJUNGLE
p3350
aVBOTTOM
p3351
aVBOTTOM
p3352
aVTOP
p3353
aVJUNGLE
p3354
aVMIDDLE
p3355
aVJUNGLE
p3356
aVTOP
p3357
aVMIDDLE
p3358
aVBOTTOM
p3359
aVBOTTOM
p3360
aVBOTTOM
p3361
aVMIDDLE
p3362
aVJUNGLE
p3363
aVTOP
p3364
aVBOTTOM
p3365
aVTOP
p3366
aVBOTTOM
p3367
aVBOTTOM
p3368
aVMIDDLE
p3369
aVJUNGLE
p3370
aVTOP
p3371
aVJUNGLE
p3372
aVMIDDLE
p3373
aVBOTTOM
p3374
aVBOTTOM
p3375
aVTOP
p3376
aVBOTTOM
p3377
aVBOTTOM
p3378
aVJUNGLE
p3379
aVMIDDLE
p3380
aVTOP
p3381
aVMIDDLE
p3382
aVJUNGLE
p3383
aVBOTTOM
p3384
aVBOTTOM
p3385
aVJUNGLE
p3386
aVBOTTOM
p3387
aVBOTTOM
p3388
aVMIDDLE
p3389
aVTOP
p3390
aVJUNGLE
p3391
aVMIDDLE
p3392
aVBOTTOM
p3393
aVTOP
p3394
aVBOTTOM
p3395
aVTOP
p3396
aVMIDDLE
p3397
aVBOTTOM
p3398
aVBOTTOM
p3399
aVJUNGLE
p3400
aVMIDDLE
p3401
aVTOP
p3402
aVJUNGLE
p3403
aVBOTTOM
p3404
aVBOTTOM
p3405
aVBOTTOM
p3406
aVTOP
p3407
aVJUNGLE
p3408
aVBOTTOM
p3409
aVMIDDLE
p3410
aVTOP
p3411
aVMIDDLE
p3412
aVBOTTOM
p3413
aVJUNGLE
p3414
aVBOTTOM
p3415
aVTOP
p3416
aVBOTTOM
p3417
aVBOTTOM
p3418
aVMIDDLE
p3419
aVJUNGLE
p3420
aVBOTTOM
p3421
aVBOTTOM
p3422
aVMIDDLE
p3423
aVJUNGLE
p3424
aVTOP
p3425
aVJUNGLE
p3426
aVBOTTOM
p3427
aVBOTTOM
p3428
aVMIDDLE
p3429
aVTOP
p3430
aVJUNGLE
p3431
aVBOTTOM
p3432
aVMIDDLE
p3433
aVBOTTOM
p3434
aVTOP
p3435
aVTOP
p3436
aVMIDDLE
p3437
aVBOTTOM
p3438
aVJUNGLE
p3439
aVBOTTOM
p3440
aVTOP
p3441
aVJUNGLE
p3442
aVMIDDLE
p3443
aVBOTTOM
p3444
aVBOTTOM
p3445
aVBOTTOM
p3446
aVTOP
p3447
aVMIDDLE
p3448
aVJUNGLE
p3449
aVBOTTOM
p3450
aVBOTTOM
p3451
aVTOP
p3452
aVMIDDLE
p3453
aVJUNGLE
p3454
aVBOTTOM
p3455
aVBOTTOM
p3456
aVTOP
p3457
aVBOTTOM
p3458
aVJUNGLE
p3459
aVMIDDLE
p3460
aVMIDDLE
p3461
aVBOTTOM
p3462
aVBOTTOM
p3463
aVJUNGLE
p3464
aVTOP
p3465
aVTOP
p3466
aVBOTTOM
p3467
aVBOTTOM
p3468
aVJUNGLE
p3469
aVMIDDLE
p3470
aVJUNGLE
p3471
aVJUNGLE
p3472
aVJUNGLE
p3473
aVBOTTOM
p3474
aVBOTTOM
p3475
aVJUNGLE
p3476
aVJUNGLE
p3477
aVTOP
p3478
aVBOTTOM
p3479
aVBOTTOM
p3480
aVJUNGLE
p3481
aVBOTTOM
p3482
aVMIDDLE
p3483
aVTOP
p3484
aVBOTTOM
p3485
aVMIDDLE
p3486
aVJUNGLE
p3487
aVBOTTOM
p3488
aVTOP
p3489
aVBOTTOM
p3490
aVMIDDLE
p3491
aVBOTTOM
p3492
aVBOTTOM
p3493
aVJUNGLE
p3494
aVTOP
p3495
aVTOP
p3496
aVMIDDLE
p3497
aVBOTTOM
p3498
aVJUNGLE
p3499
aVBOTTOM
p3500
aVBOTTOM
p3501
aVJUNGLE
p3502
aVBOTTOM
p3503
aVTOP
p3504
aVMIDDLE
p3505
aVJUNGLE
p3506
aVBOTTOM
p3507
aVTOP
p3508
aVMIDDLE
p3509
aVBOTTOM
p3510
aVMIDDLE
p3511
aVBOTTOM
p3512
aVMIDDLE
p3513
aVTOP
p3514
aVBOTTOM
p3515
aVBOTTOM
p3516
aVBOTTOM
p3517
aVTOP
p3518
aVMIDDLE
p3519
aVJUNGLE
p3520
aVBOTTOM
p3521
aVJUNGLE
p3522
aVBOTTOM
p3523
aVTOP
p3524
aVMIDDLE
p3525
aVBOTTOM
p3526
aVJUNGLE
p3527
aVTOP
p3528
aVMIDDLE
p3529
aVBOTTOM
p3530
aVBOTTOM
p3531
aVBOTTOM
p3532
aVMIDDLE
p3533
aVTOP
p3534
aVJUNGLE
p3535
aVBOTTOM
p3536
aVJUNGLE
p3537
aVBOTTOM
p3538
aVTOP
p3539
aVMIDDLE
p3540
aVJUNGLE
p3541
aVBOTTOM
p3542
aVBOTTOM
p3543
aVTOP
p3544
aVMIDDLE
p3545
aVBOTTOM
p3546
aVBOTTOM
p3547
aVTOP
p3548
aVJUNGLE
p3549
aVMIDDLE
p3550
aVMIDDLE
p3551
aVBOTTOM
p3552
aVBOTTOM
p3553
aVTOP
p3554
aVMIDDLE
p3555
aVTOP
p3556
aVJUNGLE
p3557
aVBOTTOM
p3558
aVBOTTOM
p3559
aVMIDDLE
p3560
aVMIDDLE
p3561
aVJUNGLE
p3562
aVBOTTOM
p3563
aVBOTTOM
p3564
aVJUNGLE
p3565
aVTOP
p3566
aVBOTTOM
p3567
aVMIDDLE
p3568
aVBOTTOM
p3569
aVJUNGLE
p3570
aVTOP
p3571
aVBOTTOM
p3572
aVJUNGLE
p3573
aVMIDDLE
p3574
aVBOTTOM
p3575
aVTOP
p3576
aVMIDDLE
p3577
aVJUNGLE
p3578
aVBOTTOM
p3579
aVBOTTOM
p3580
aVJUNGLE
p3581
aVBOTTOM
p3582
aVMIDDLE
p3583
aVBOTTOM
p3584
aVTOP
p3585
aVTOP
p3586
aVMIDDLE
p3587
aVBOTTOM
p3588
aVMIDDLE
p3589
aVBOTTOM
p3590
aVBOTTOM
p3591
aVTOP
p3592
aVMIDDLE
p3593
aVJUNGLE
p3594
aVBOTTOM
p3595
aVMIDDLE
p3596
aVBOTTOM
p3597
aVJUNGLE
p3598
aVTOP
p3599
aVBOTTOM
p3600
aVMIDDLE
p3601
aVBOTTOM
p3602
aVTOP
p3603
aVBOTTOM
p3604
aVJUNGLE
p3605
aVBOTTOM
p3606
aVBOTTOM
p3607
aVJUNGLE
p3608
aVMIDDLE
p3609
aVTOP
p3610
aVTOP
p3611
aVBOTTOM
p3612
aVBOTTOM
p3613
aVMIDDLE
p3614
aVJUNGLE
p3615
aVBOTTOM
p3616
aVJUNGLE
p3617
aVMIDDLE
p3618
aVBOTTOM
p3619
aVTOP
p3620
aVJUNGLE
p3621
aVTOP
p3622
aVBOTTOM
p3623
aVBOTTOM
p3624
aVMIDDLE
p3625
aVMIDDLE
p3626
aVJUNGLE
p3627
aVTOP
p3628
aVBOTTOM
p3629
aVBOTTOM
p3630
aVBOTTOM
p3631
aVTOP
p3632
aVJUNGLE
p3633
aVBOTTOM
p3634
aVMIDDLE
p3635
aVMIDDLE
p3636
aVJUNGLE
p3637
aVBOTTOM
p3638
aVBOTTOM
p3639
aVTOP
p3640
aVJUNGLE
p3641
aVTOP
p3642
aVMIDDLE
p3643
aVBOTTOM
p3644
aVBOTTOM
p3645
aVTOP
p3646
aVBOTTOM
p3647
aVMIDDLE
p3648
aVJUNGLE
p3649
aVBOTTOM
p3650
aVBOTTOM
p3651
aVMIDDLE
p3652
aVJUNGLE
p3653
aVTOP
p3654
aVBOTTOM
p3655
aVMIDDLE
p3656
aVBOTTOM
p3657
aVTOP
p3658
aVBOTTOM
p3659
aVJUNGLE
p3660
aVJUNGLE
p3661
aVMIDDLE
p3662
aVBOTTOM
p3663
aVBOTTOM
p3664
aVTOP
p3665
aVTOP
p3666
aVBOTTOM
p3667
aVBOTTOM
p3668
aVJUNGLE
p3669
aVMIDDLE
p3670
aVMIDDLE
p3671
aVJUNGLE
p3672
aVBOTTOM
p3673
aVBOTTOM
p3674
aVTOP
p3675
aVJUNGLE
p3676
aVTOP
p3677
aVMIDDLE
p3678
aVBOTTOM
p3679
aVBOTTOM
p3680
aVBOTTOM
p3681
aVTOP
p3682
aVMIDDLE
p3683
aVJUNGLE
p3684
aVBOTTOM
p3685
aVBOTTOM
p3686
aVJUNGLE
p3687
aVMIDDLE
p3688
aVBOTTOM
p3689
aVTOP
p3690
aVMIDDLE
p3691
aVJUNGLE
p3692
aVBOTTOM
p3693
aVBOTTOM
p3694
aVTOP
p3695
aVTOP
p3696
aVBOTTOM
p3697
aVMIDDLE
p3698
aVJUNGLE
p3699
aVBOTTOM
p3700
aVBOTTOM
p3701
aVTOP
p3702
aVBOTTOM
p3703
aVMIDDLE
p3704
aVMIDDLE
p3705
aVTOP
p3706
aVBOTTOM
p3707
aVBOTTOM
p3708
aVJUNGLE
p3709
aVMIDDLE
p3710
aVBOTTOM
p3711
aVTOP
p3712
aVMIDDLE
p3713
aVBOTTOM
p3714
aVJUNGLE
p3715
aVTOP
p3716
aVMIDDLE
p3717
aVBOTTOM
p3718
aVBOTTOM
p3719
aVJUNGLE
p3720
aVMIDDLE
p3721
aVTOP
p3722
aVBOTTOM
p3723
aVJUNGLE
p3724
aVBOTTOM
p3725
aVTOP
p3726
aVMIDDLE
p3727
aVBOTTOM
p3728
aVJUNGLE
p3729
aVBOTTOM
p3730
aVMIDDLE
p3731
aVJUNGLE
p3732
aVBOTTOM
p3733
aVTOP
p3734
aVBOTTOM
p3735
aVBOTTOM
p3736
aVBOTTOM
p3737
aVMIDDLE
p3738
aVJUNGLE
p3739
aVTOP
p3740
aVJUNGLE
p3741
aVMIDDLE
p3742
aVBOTTOM
p3743
aVBOTTOM
p3744
aVTOP
p3745
aVBOTTOM
p3746
aVMIDDLE
p3747
aVJUNGLE
p3748
aVBOTTOM
p3749
aVTOP
p3750
aVTOP
p3751
aVMIDDLE
p3752
aVJUNGLE
p3753
aVBOTTOM
p3754
aVBOTTOM
p3755
aVTOP
p3756
aVMIDDLE
p3757
aVJUNGLE
p3758
aVBOTTOM
p3759
aVBOTTOM
p3760
aVMIDDLE
p3761
aVBOTTOM
p3762
aVJUNGLE
p3763
aVTOP
p3764
aVBOTTOM
p3765
aVJUNGLE
p3766
aVBOTTOM
p3767
aVMIDDLE
p3768
aVBOTTOM
p3769
aVTOP
p3770
aVMIDDLE
p3771
aVTOP
p3772
aVJUNGLE
p3773
aVBOTTOM
p3774
aVBOTTOM
p3775
aVBOTTOM
p3776
aVTOP
p3777
aVJUNGLE
p3778
aVMIDDLE
p3779
aVBOTTOM
p3780
aVTOP
p3781
aVBOTTOM
p3782
aVBOTTOM
p3783
aVJUNGLE
p3784
aVMIDDLE
p3785
aVBOTTOM
p3786
aVBOTTOM
p3787
aVJUNGLE
p3788
aVTOP
p3789
aVMIDDLE
p3790
aVJUNGLE
p3791
aVMIDDLE
p3792
aVBOTTOM
p3793
aVTOP
p3794
aVBOTTOM
p3795
aVBOTTOM
p3796
aVMIDDLE
p3797
aVTOP
p3798
aVBOTTOM
p3799
aVJUNGLE
p3800
aVBOTTOM
p3801
aVTOP
p3802
aVBOTTOM
p3803
aVJUNGLE
p3804
aVMIDDLE
p3805
aVMIDDLE
p3806
aVJUNGLE
p3807
aVBOTTOM
p3808
aVTOP
p3809
aVBOTTOM
p3810
aVBOTTOM
p3811
aVTOP
p3812
aVMIDDLE
p3813
aVBOTTOM
p3814
aVMIDDLE
p3815
aVMIDDLE
p3816
aVBOTTOM
p3817
aVBOTTOM
p3818
aVJUNGLE
p3819
aVTOP
p3820
aVBOTTOM
p3821
aVMIDDLE
p3822
aVJUNGLE
p3823
aVBOTTOM
p3824
aVTOP
p3825
aVBOTTOM
p3826
aVTOP
p3827
aVJUNGLE
p3828
aVMIDDLE
p3829
aVBOTTOM
p3830
aVBOTTOM
p3831
aVTOP
p3832
aVJUNGLE
p3833
aVMIDDLE
p3834
aVBOTTOM
p3835
aVJUNGLE
p3836
aVBOTTOM
p3837
aVMIDDLE
p3838
aVBOTTOM
p3839
aVTOP
p3840
aVBOTTOM
p3841
aVMIDDLE
p3842
aVJUNGLE
p3843
aVBOTTOM
p3844
aVTOP
p3845
aVTOP
p3846
aVBOTTOM
p3847
aVBOTTOM
p3848
aVJUNGLE
p3849
aVMIDDLE
p3850
aVBOTTOM
p3851
aVMIDDLE
p3852
aVBOTTOM
p3853
aVJUNGLE
p3854
aVTOP
p3855
aVTOP
p3856
aVMIDDLE
p3857
aVBOTTOM
p3858
aVJUNGLE
p3859
aVBOTTOM
p3860
aVBOTTOM
p3861
aVJUNGLE
p3862
aVTOP
p3863
aVMIDDLE
p3864
aVBOTTOM
p3865
aVMIDDLE
p3866
aVBOTTOM
p3867
aVTOP
p3868
aVBOTTOM
p3869
aVJUNGLE
p3870
aVBOTTOM
p3871
aVBOTTOM
p3872
aVTOP
p3873
aVJUNGLE
p3874
aVMIDDLE
p3875
aVJUNGLE
p3876
aVJUNGLE
p3877
aVBOTTOM
p3878
aVBOTTOM
p3879
aVJUNGLE
p3880
aVJUNGLE
p3881
aVTOP
p3882
aVBOTTOM
p3883
aVMIDDLE
p3884
aVBOTTOM
p3885
aVBOTTOM
p3886
aVTOP
p3887
aVJUNGLE
p3888
aVBOTTOM
p3889
aVMIDDLE
p3890
aVBOTTOM
p3891
aVTOP
p3892
aVBOTTOM
p3893
aVJUNGLE
p3894
aVMIDDLE
p3895
aVBOTTOM
p3896
aVTOP
p3897
aVMIDDLE
p3898
aVJUNGLE
p3899
aVBOTTOM
p3900
aVMIDDLE
p3901
aVJUNGLE
p3902
aVBOTTOM
p3903
aVBOTTOM
p3904
aVTOP
p3905
aVJUNGLE
p3906
aVBOTTOM
p3907
aVBOTTOM
p3908
aVMIDDLE
p3909
aVTOP
p3910
aVMIDDLE
p3911
aVTOP
p3912
aVBOTTOM
p3913
aVBOTTOM
p3914
aVJUNGLE
p3915
aVJUNGLE
p3916
aVMIDDLE
p3917
aVTOP
p3918
aVBOTTOM
p3919
aVBOTTOM
p3920
aVBOTTOM
p3921
aVTOP
p3922
aVMIDDLE
p3923
aVBOTTOM
p3924
aVJUNGLE
p3925
aVBOTTOM
p3926
aVJUNGLE
p3927
aVTOP
p3928
aVMIDDLE
p3929
aVBOTTOM
p3930
aVBOTTOM
p3931
aVTOP
p3932
aVJUNGLE
p3933
aVBOTTOM
p3934
aVMIDDLE
p3935
aVBOTTOM
p3936
aVTOP
p3937
aVBOTTOM
p3938
aVJUNGLE
p3939
aVMIDDLE
p3940
aVJUNGLE
p3941
aVTOP
p3942
aVBOTTOM
p3943
aVMIDDLE
p3944
aVBOTTOM
p3945
aVJUNGLE
p3946
aVBOTTOM
p3947
aVMIDDLE
p3948
aVBOTTOM
p3949
aVTOP
p3950
aVBOTTOM
p3951
aVTOP
p3952
aVMIDDLE
p3953
aVBOTTOM
p3954
aVJUNGLE
p3955
aVBOTTOM
p3956
aVJUNGLE
p3957
aVMIDDLE
p3958
aVTOP
p3959
aVBOTTOM
p3960
aVBOTTOM
p3961
aVBOTTOM
p3962
aVJUNGLE
p3963
aVMIDDLE
p3964
aVTOP
p3965
aVJUNGLE
p3966
aVBOTTOM
p3967
aVMIDDLE
p3968
aVBOTTOM
p3969
aVTOP
p3970
aVTOP
p3971
aVBOTTOM
p3972
aVBOTTOM
p3973
aVMIDDLE
p3974
aVJUNGLE
p3975
aVJUNGLE
p3976
aVBOTTOM
p3977
aVBOTTOM
p3978
aVMIDDLE
p3979
aVTOP
p3980
aVMIDDLE
p3981
aVJUNGLE
p3982
aVBOTTOM
p3983
aVTOP
p3984
aVBOTTOM
p3985
aVJUNGLE
p3986
aVBOTTOM
p3987
aVBOTTOM
p3988
aVTOP
p3989
aVMIDDLE
p3990
aVJUNGLE
p3991
aVTOP
p3992
aVBOTTOM
p3993
aVMIDDLE
p3994
aVBOTTOM
p3995
aVMIDDLE
p3996
aVBOTTOM
p3997
aVBOTTOM
p3998
aVTOP
p3999
aVJUNGLE
p4000
aVMIDDLE
p4001
aVMIDDLE
p4002
aVMIDDLE
p4003
aVJUNGLE
p4004
aVMIDDLE
p4005
aVMIDDLE
p4006
aVBOTTOM
p4007
aVTOP
p4008
aVJUNGLE
p4009
aVBOTTOM
p4010
aVMIDDLE
p4011
aVMIDDLE
p4012
aVMIDDLE
p4013
aVBOTTOM
p4014
aVJUNGLE
p4015
aVBOTTOM
p4016
aVMIDDLE
p4017
aVTOP
p4018
aVJUNGLE
p4019
aVBOTTOM
p4020
aVBOTTOM
p4021
aVJUNGLE
p4022
aVBOTTOM
p4023
aVTOP
p4024
aVMIDDLE
p4025
aVBOTTOM
p4026
aVBOTTOM
p4027
aVJUNGLE
p4028
aVTOP
p4029
aVMIDDLE
p4030
aVBOTTOM
p4031
aVBOTTOM
p4032
aVJUNGLE
p4033
aVTOP
p4034
aVMIDDLE
p4035
aVBOTTOM
p4036
aVJUNGLE
p4037
aVBOTTOM
p4038
aVTOP
p4039
aVMIDDLE
p4040
aVBOTTOM
p4041
aVTOP
p4042
aVBOTTOM
p4043
aVMIDDLE
p4044
aVJUNGLE
p4045
aVBOTTOM
p4046
aVBOTTOM
p4047
aVJUNGLE
p4048
aVBOTTOM
p4049
aVTOP
p4050
aVMIDDLE
p4051
aVBOTTOM
p4052
aVMIDDLE
p4053
aVBOTTOM
p4054
aVTOP
p4055
aVJUNGLE
p4056
aVMIDDLE
p4057
aVBOTTOM
p4058
aVJUNGLE
p4059
aVBOTTOM
p4060
aVTOP
p4061
aVJUNGLE
p4062
aVBOTTOM
p4063
aVMIDDLE
p4064
aVTOP
p4065
aVBOTTOM
p4066
aVTOP
p4067
aVBOTTOM
p4068
aVMIDDLE
p4069
aVBOTTOM
p4070
aVJUNGLE
p4071
aVTOP
p4072
aVBOTTOM
p4073
aVBOTTOM
p4074
aVMIDDLE
p4075
aVJUNGLE
p4076
aVBOTTOM
p4077
aVJUNGLE
p4078
aVJUNGLE
p4079
aVTOP
p4080
aVJUNGLE
p4081
aVJUNGLE
p4082
aVBOTTOM
p4083
aVTOP
p4084
aVMIDDLE
p4085
aVBOTTOM
p4086
aVBOTTOM
p4087
aVTOP
p4088
aVMIDDLE
p4089
aVJUNGLE
p4090
aVBOTTOM
p4091
aVTOP
p4092
aVJUNGLE
p4093
aVBOTTOM
p4094
aVMIDDLE
p4095
aVBOTTOM
p4096
aVJUNGLE
p4097
aVBOTTOM
p4098
aVTOP
p4099
aVBOTTOM
p4100
aVMIDDLE
p4101
aVBOTTOM
p4102
aVBOTTOM
p4103
aVJUNGLE
p4104
aVTOP
p4105
aVMIDDLE
p4106
aVMIDDLE
p4107
aVJUNGLE
p4108
aVTOP
p4109
aVJUNGLE
p4110
aVBOTTOM
p4111
aVBOTTOM
p4112
aVBOTTOM
p4113
aVMIDDLE
p4114
aVTOP
p4115
aVJUNGLE
p4116
aVMIDDLE
p4117
aVTOP
p4118
aVJUNGLE
p4119
aVBOTTOM
p4120
aVBOTTOM
p4121
aVJUNGLE
p4122
aVBOTTOM
p4123
aVMIDDLE
p4124
aVTOP
p4125
aVBOTTOM
p4126
aVJUNGLE
p4127
aVTOP
p4128
aVBOTTOM
p4129
aVMIDDLE
p4130
aVBOTTOM
p4131
aVBOTTOM
p4132
aVTOP
p4133
aVMIDDLE
p4134
aVBOTTOM
p4135
aVJUNGLE
p4136
aVMIDDLE
p4137
aVJUNGLE
p4138
aVBOTTOM
p4139
aVJUNGLE
p4140
aVBOTTOM
p4141
aVBOTTOM
p4142
aVBOTTOM
p4143
aVJUNGLE
p4144
aVTOP
p4145
aVMIDDLE
p4146
aVMIDDLE
p4147
aVTOP
p4148
aVBOTTOM
p4149
aVBOTTOM
p4150
aVJUNGLE
p4151
aVBOTTOM
p4152
aVMIDDLE
p4153
aVJUNGLE
p4154
aVBOTTOM
p4155
aVTOP
p4156
aVTOP
p4157
aVBOTTOM
p4158
aVJUNGLE
p4159
aVBOTTOM
p4160
aVMIDDLE
p4161
aVTOP
p4162
aVBOTTOM
p4163
aVBOTTOM
p4164
aVJUNGLE
p4165
aVMIDDLE
p4166
aVTOP
p4167
aVBOTTOM
p4168
aVBOTTOM
p4169
aVJUNGLE
p4170
aVMIDDLE
p4171
aVJUNGLE
p4172
aVMIDDLE
p4173
aVTOP
p4174
aVBOTTOM
p4175
aVBOTTOM
p4176
aVBOTTOM
p4177
aVTOP
p4178
aVJUNGLE
p4179
aVMIDDLE
p4180
aVBOTTOM
p4181
aVBOTTOM
p4182
aVMIDDLE
p4183
aVBOTTOM
p4184
aVTOP
p4185
aVJUNGLE
p4186
aVBOTTOM
p4187
aVBOTTOM
p4188
aVTOP
p4189
aVMIDDLE
p4190
aVJUNGLE
p4191
aVMIDDLE
p4192
aVJUNGLE
p4193
aVBOTTOM
p4194
aVBOTTOM
p4195
aVJUNGLE
p4196
aVBOTTOM
p4197
aVMIDDLE
p4198
aVTOP
p4199
aVJUNGLE
p4200
aVBOTTOM
p4201
aVTOP
p4202
aVJUNGLE
p4203
aVBOTTOM
p4204
aVBOTTOM
p4205
aVMIDDLE
p4206
aVMIDDLE
p4207
aVBOTTOM
p4208
aVBOTTOM
p4209
aVJUNGLE
p4210
aVTOP
p4211
aVBOTTOM
p4212
aVTOP
p4213
aVMIDDLE
p4214
aVJUNGLE
p4215
aVBOTTOM
p4216
aVJUNGLE
p4217
aVMIDDLE
p4218
aVBOTTOM
p4219
aVBOTTOM
p4220
aVTOP
p4221
aVJUNGLE
p4222
aVBOTTOM
p4223
aVBOTTOM
p4224
aVMIDDLE
p4225
aVTOP
p4226
aVMIDDLE
p4227
aVBOTTOM
p4228
aVBOTTOM
p4229
aVTOP
p4230
aVJUNGLE
p4231
aVMIDDLE
p4232
aVTOP
p4233
aVBOTTOM
p4234
aVBOTTOM
p4235
aVJUNGLE
p4236
aVJUNGLE
p4237
aVBOTTOM
p4238
aVMIDDLE
p4239
aVTOP
p4240
aVBOTTOM
p4241
aVTOP
p4242
aVBOTTOM
p4243
aVBOTTOM
p4244
aVJUNGLE
p4245
aVMIDDLE
p4246
aVBOTTOM
p4247
aVMIDDLE
p4248
aVTOP
p4249
aVJUNGLE
p4250
aVBOTTOM
p4251
aVBOTTOM
p4252
aVBOTTOM
p4253
aVJUNGLE
p4254
aVTOP
p4255
aVMIDDLE
p4256
aVBOTTOM
p4257
aVMIDDLE
p4258
aVJUNGLE
p4259
aVTOP
p4260
aVBOTTOM
p4261
aVTOP
p4262
aVBOTTOM
p4263
aVMIDDLE
p4264
aVJUNGLE
p4265
aVBOTTOM
p4266
aVBOTTOM
p4267
aVTOP
p4268
aVBOTTOM
p4269
aVMIDDLE
p4270
aVJUNGLE
p4271
aVBOTTOM
p4272
aVBOTTOM
p4273
aVTOP
p4274
aVJUNGLE
p4275
aVMIDDLE
p4276
aVBOTTOM
p4277
aVMIDDLE
p4278
aVTOP
p4279
aVBOTTOM
p4280
aVJUNGLE
p4281
aVJUNGLE
p4282
aVMIDDLE
p4283
aVBOTTOM
p4284
aVTOP
p4285
aVBOTTOM
p4286
aVBOTTOM
p4287
aVBOTTOM
p4288
aVMIDDLE
p4289
aVTOP
p4290
aVJUNGLE
p4291
aVJUNGLE
p4292
aVMIDDLE
p4293
aVTOP
p4294
aVBOTTOM
p4295
aVBOTTOM
p4296
aVTOP
p4297
aVBOTTOM
p4298
aVJUNGLE
p4299
aVMIDDLE
p4300
aVBOTTOM
p4301
aVMIDDLE
p4302
aVJUNGLE
p4303
aVBOTTOM
p4304
aVBOTTOM
p4305
aVTOP
p4306
aVMIDDLE
p4307
aVJUNGLE
p4308
aVTOP
p4309
aVBOTTOM
p4310
aVBOTTOM
p4311
aVTOP
p4312
aVJUNGLE
p4313
aVBOTTOM
p4314
aVMIDDLE
p4315
aVBOTTOM
p4316
aVTOP
p4317
aVJUNGLE
p4318
aVBOTTOM
p4319
aVMIDDLE
p4320
aVBOTTOM
p4321
aVBOTTOM
p4322
aVTOP
p4323
aVJUNGLE
p4324
aVMIDDLE
p4325
aVBOTTOM
p4326
aVBOTTOM
p4327
aVMIDDLE
p4328
aVTOP
p4329
aVBOTTOM
p4330
aVMIDDLE
p4331
aVMIDDLE
p4332
aVMIDDLE
p4333
aVBOTTOM
p4334
aVTOP
p4335
aVBOTTOM
p4336
aVJUNGLE
p4337
aVBOTTOM
p4338
aVMIDDLE
p4339
aVBOTTOM
p4340
aVTOP
p4341
aVJUNGLE
p4342
aVJUNGLE
p4343
aVMIDDLE
p4344
aVBOTTOM
p4345
aVBOTTOM
p4346
aVBOTTOM
p4347
aVMIDDLE
p4348
aVTOP
p4349
aVJUNGLE
p4350
aVJUNGLE
p4351
aVBOTTOM
p4352
aVBOTTOM
p4353
aVTOP
p4354
aVJUNGLE
p4355
aVMIDDLE
p4356
aVMIDDLE
p4357
aVBOTTOM
p4358
aVJUNGLE
p4359
aVTOP
p4360
aVJUNGLE
p4361
aVBOTTOM
p4362
aVTOP
p4363
aVBOTTOM
p4364
aVJUNGLE
p4365
aVMIDDLE
p4366
aVMIDDLE
p4367
aVBOTTOM
p4368
aVBOTTOM
p4369
aVJUNGLE
p4370
aVTOP
p4371
aVBOTTOM
p4372
aVBOTTOM
p4373
aVJUNGLE
p4374
aVMIDDLE
p4375
aVTOP
p4376
aVTOP
p4377
aVBOTTOM
p4378
aVBOTTOM
p4379
aVJUNGLE
p4380
aVMIDDLE
p4381
aVMIDDLE
p4382
aVTOP
p4383
aVBOTTOM
p4384
aVJUNGLE
p4385
aVBOTTOM
p4386
aVBOTTOM
p4387
aVJUNGLE
p4388
aVTOP
p4389
aVBOTTOM
p4390
aVMIDDLE
p4391
aVBOTTOM
p4392
aVBOTTOM
p4393
aVJUNGLE
p4394
aVTOP
p4395
aVMIDDLE
p4396
aVJUNGLE
p4397
aVMIDDLE
p4398
aVBOTTOM
p4399
aVBOTTOM
p4400
aVTOP
p4401
aVMIDDLE
p4402
aVBOTTOM
p4403
aVMIDDLE
p4404
aVBOTTOM
p4405
aVTOP
p4406
aVMIDDLE
p4407
aVTOP
p4408
aVBOTTOM
p4409
aVJUNGLE
p4410
aVBOTTOM
p4411
aVMIDDLE
p4412
aVTOP
p4413
aVBOTTOM
p4414
aVJUNGLE
p4415
aVBOTTOM
p4416
aVTOP
p4417
aVJUNGLE
p4418
aVMIDDLE
p4419
aVBOTTOM
p4420
aVBOTTOM
p4421
aVMIDDLE
p4422
aVTOP
p4423
aVBOTTOM
p4424
aVJUNGLE
p4425
aVBOTTOM
p4426
aVTOP
p4427
aVMIDDLE
p4428
aVJUNGLE
p4429
aVBOTTOM
p4430
aVBOTTOM
p4431
aVBOTTOM
p4432
aVBOTTOM
p4433
aVTOP
p4434
aVJUNGLE
p4435
aVMIDDLE
p4436
aVJUNGLE
p4437
aVTOP
p4438
aVBOTTOM
p4439
aVBOTTOM
p4440
aVMIDDLE
p4441
aVBOTTOM
p4442
aVMIDDLE
p4443
aVTOP
p4444
aVBOTTOM
p4445
aVJUNGLE
p4446
aVBOTTOM
p4447
aVBOTTOM
p4448
aVJUNGLE
p4449
aVMIDDLE
p4450
aVTOP
p4451
aVTOP
p4452
aVMIDDLE
p4453
aVBOTTOM
p4454
aVBOTTOM
p4455
aVJUNGLE
p4456
aVMIDDLE
p4457
aVJUNGLE
p4458
aVJUNGLE
p4459
aVJUNGLE
p4460
aVMIDDLE
p4461
aVMIDDLE
p4462
aVMIDDLE
p4463
aVJUNGLE
p4464
aVBOTTOM
p4465
aVBOTTOM
p4466
aVTOP
p4467
aVBOTTOM
p4468
aVMIDDLE
p4469
aVJUNGLE
p4470
aVTOP
p4471
aVBOTTOM
p4472
aVMIDDLE
p4473
aVTOP
p4474
aVJUNGLE
p4475
aVBOTTOM
p4476
aVBOTTOM
p4477
aVBOTTOM
p4478
aVTOP
p4479
aVJUNGLE
p4480
aVBOTTOM
p4481
aVMIDDLE
p4482
aVBOTTOM
p4483
aVTOP
p4484
aVMIDDLE
p4485
aVJUNGLE
p4486
aVBOTTOM
p4487
aVBOTTOM
p4488
aVBOTTOM
p4489
aVJUNGLE
p4490
aVMIDDLE
p4491
aVTOP
p4492
aVJUNGLE
p4493
aVBOTTOM
p4494
aVMIDDLE
p4495
aVBOTTOM
p4496
aVTOP
p4497
aVBOTTOM
p4498
aVTOP
p4499
aVBOTTOM
p4500
aVMIDDLE
p4501
aVJUNGLE
p4502
aVMIDDLE
p4503
aVJUNGLE
p4504
aVBOTTOM
p4505
aVTOP
p4506
aVBOTTOM
p4507
aVTOP
p4508
aVBOTTOM
p4509
aVJUNGLE
p4510
aVMIDDLE
p4511
aVBOTTOM
p4512
aVJUNGLE
p4513
aVJUNGLE
p4514
aVMIDDLE
p4515
aVJUNGLE
p4516
aVJUNGLE
p4517
aVJUNGLE
p4518
aVJUNGLE
p4519
aVTOP
p4520
aVMIDDLE
p4521
aVBOTTOM
p4522
aVBOTTOM
p4523
aVBOTTOM
p4524
aVMIDDLE
p4525
aVBOTTOM
p4526
aVJUNGLE
p4527
aVTOP
p4528
aVMIDDLE
p4529
aVTOP
p4530
aVJUNGLE
p4531
aVBOTTOM
p4532
aVBOTTOM
p4533
aVBOTTOM
p4534
aVTOP
p4535
aVJUNGLE
p4536
aVBOTTOM
p4537
aVMIDDLE
p4538
aVTOP
p4539
aVMIDDLE
p4540
aVBOTTOM
p4541
aVJUNGLE
p4542
aVBOTTOM
p4543
aVBOTTOM
p4544
aVMIDDLE
p4545
aVTOP
p4546
aVBOTTOM
p4547
aVJUNGLE
p4548
aVTOP
p4549
aVMIDDLE
p4550
aVBOTTOM
p4551
aVJUNGLE
p4552
aVBOTTOM
p4553
aVBOTTOM
p4554
aVMIDDLE
p4555
aVJUNGLE
p4556
aVTOP
p4557
aVBOTTOM
p4558
aVTOP
p4559
aVBOTTOM
p4560
aVBOTTOM
p4561
aVMIDDLE
p4562
aVJUNGLE
p4563
aVBOTTOM
p4564
aVBOTTOM
p4565
aVMIDDLE
p4566
aVTOP
p4567
aVJUNGLE
p4568
aVTOP
p4569
aVJUNGLE
p4570
aVBOTTOM
p4571
aVMIDDLE
p4572
aVBOTTOM
p4573
aVMIDDLE
p4574
aVBOTTOM
p4575
aVJUNGLE
p4576
aVTOP
p4577
aVBOTTOM
p4578
aVJUNGLE
p4579
aVBOTTOM
p4580
aVTOP
p4581
aVJUNGLE
p4582
aVBOTTOM
p4583
aVJUNGLE
p4584
aVMIDDLE
p4585
aVBOTTOM
p4586
aVTOP
p4587
aVBOTTOM
p4588
aVTOP
p4589
aVBOTTOM
p4590
aVMIDDLE
p4591
aVJUNGLE
p4592
aVBOTTOM
p4593
aVBOTTOM
p4594
aVBOTTOM
p4595
aVMIDDLE
p4596
aVJUNGLE
p4597
aVTOP
p4598
aVJUNGLE
p4599
aVTOP
p4600
aVJUNGLE
p4601
aVJUNGLE
p4602
aVMIDDLE
p4603
aVTOP
p4604
aVJUNGLE
p4605
aVBOTTOM
p4606
aVMIDDLE
p4607
aVBOTTOM
p4608
aVMIDDLE
p4609
aVBOTTOM
p4610
aVTOP
p4611
aVJUNGLE
p4612
aVBOTTOM
p4613
aVJUNGLE
p4614
aVMIDDLE
p4615
aVBOTTOM
p4616
aVBOTTOM
p4617
aVTOP
p4618
aVTOP
p4619
aVMIDDLE
p4620
aVJUNGLE
p4621
aVBOTTOM
p4622
aVBOTTOM
p4623
aVBOTTOM
p4624
aVMIDDLE
p4625
aVJUNGLE
p4626
aVBOTTOM
p4627
aVTOP
p4628
aVBOTTOM
p4629
aVTOP
p4630
aVMIDDLE
p4631
aVBOTTOM
p4632
aVJUNGLE
p4633
aVTOP
p4634
aVBOTTOM
p4635
aVBOTTOM
p4636
aVMIDDLE
p4637
aVJUNGLE
p4638
aVJUNGLE
p4639
aVTOP
p4640
aVBOTTOM
p4641
aVMIDDLE
p4642
aVBOTTOM
p4643
aVJUNGLE
p4644
aVMIDDLE
p4645
aVBOTTOM
p4646
aVBOTTOM
p4647
aVTOP
p4648
aVMIDDLE
p4649
aVBOTTOM
p4650
aVJUNGLE
p4651
aVBOTTOM
p4652
aVTOP
p4653
aVMIDDLE
p4654
aVTOP
p4655
aVBOTTOM
p4656
aVJUNGLE
p4657
aVBOTTOM
p4658
aVJUNGLE
p4659
aVMIDDLE
p4660
aVBOTTOM
p4661
aVBOTTOM
p4662
aVTOP
p4663
aVMIDDLE
p4664
aVTOP
p4665
aVBOTTOM
p4666
aVBOTTOM
p4667
aVJUNGLE
p4668
aVMIDDLE
p4669
aVTOP
p4670
aVBOTTOM
p4671
aVJUNGLE
p4672
aVBOTTOM
p4673
aVJUNGLE
p4674
aVTOP
p4675
aVBOTTOM
p4676
aVBOTTOM
p4677
aVMIDDLE
p4678
aVJUNGLE
p4679
aVTOP
p4680
aVBOTTOM
p4681
aVBOTTOM
p4682
aVMIDDLE
p4683
aVMIDDLE
p4684
aVJUNGLE
p4685
aVTOP
p4686
aVBOTTOM
p4687
aVBOTTOM
p4688
aVJUNGLE
p4689
aVBOTTOM
p4690
aVTOP
p4691
aVBOTTOM
p4692
aVMIDDLE
p4693
aVJUNGLE
p4694
aVTOP
p4695
aVBOTTOM
p4696
aVMIDDLE
p4697
aVBOTTOM
p4698
aVBOTTOM
p4699
aVBOTTOM
p4700
aVJUNGLE
p4701
aVTOP
p4702
aVMIDDLE
p4703
aVJUNGLE
p4704
aVTOP
p4705
aVBOTTOM
p4706
aVBOTTOM
p4707
aVMIDDLE
p4708
aVTOP
p4709
aVJUNGLE
p4710
aVBOTTOM
p4711
aVBOTTOM
p4712
aVMIDDLE
p4713
aVMIDDLE
p4714
aVBOTTOM
p4715
aVBOTTOM
p4716
aVJUNGLE
p4717
aVTOP
p4718
aVBOTTOM
p4719
aVBOTTOM
p4720
aVJUNGLE
p4721
aVMIDDLE
p4722
aVTOP
p4723
aVBOTTOM
p4724
aVJUNGLE
p4725
aVBOTTOM
p4726
aVMIDDLE
p4727
aVTOP
p4728
aVJUNGLE
p4729
aVTOP
p4730
aVMIDDLE
p4731
aVBOTTOM
p4732
aVBOTTOM
p4733
aVJUNGLE
p4734
aVMIDDLE
p4735
aVBOTTOM
p4736
aVBOTTOM
p4737
aVTOP
p4738
aVBOTTOM
p4739
aVMIDDLE
p4740
aVJUNGLE
p4741
aVBOTTOM
p4742
aVTOP
p4743
aVMIDDLE
p4744
aVBOTTOM
p4745
aVBOTTOM
p4746
aVTOP
p4747
aVJUNGLE
p4748
aVMIDDLE
p4749
aVBOTTOM
p4750
aVTOP
p4751
aVJUNGLE
p4752
aVBOTTOM
p4753
aVBOTTOM
p4754
aVMIDDLE
p4755
aVJUNGLE
p4756
aVTOP
p4757
aVBOTTOM
p4758
aVJUNGLE
p4759
aVTOP
p4760
aVBOTTOM
p4761
aVMIDDLE
p4762
aVBOTTOM
p4763
aVBOTTOM
p4764
aVJUNGLE
p4765
aVTOP
p4766
aVBOTTOM
p4767
aVMIDDLE
p4768
aVMIDDLE
p4769
aVBOTTOM
p4770
aVJUNGLE
p4771
aVBOTTOM
p4772
aVTOP
p4773
aVBOTTOM
p4774
aVTOP
p4775
aVMIDDLE
p4776
aVJUNGLE
p4777
aVBOTTOM
p4778
aVMIDDLE
p4779
aVBOTTOM
p4780
aVJUNGLE
p4781
aVBOTTOM
p4782
aVTOP
p4783
aVMIDDLE
p4784
aVJUNGLE
p4785
aVTOP
p4786
aVBOTTOM
p4787
aVJUNGLE
p4788
aVBOTTOM
p4789
aVTOP
p4790
aVBOTTOM
p4791
aVJUNGLE
p4792
aVMIDDLE
p4793
aVTOP
p4794
aVBOTTOM
p4795
aVMIDDLE
p4796
aVJUNGLE
p4797
aVBOTTOM
p4798
aVBOTTOM
p4799
aVJUNGLE
p4800
aVMIDDLE
p4801
aVBOTTOM
p4802
aVTOP
p4803
aVJUNGLE
p4804
aVMIDDLE
p4805
aVBOTTOM
p4806
aVTOP
p4807
aVBOTTOM
p4808
aVJUNGLE
p4809
aVBOTTOM
p4810
aVTOP
p4811
aVBOTTOM
p4812
aVMIDDLE
p4813
aVBOTTOM
p4814
aVTOP
p4815
aVMIDDLE
p4816
aVJUNGLE
p4817
aVBOTTOM
p4818
aVBOTTOM
p4819
aVMIDDLE
p4820
aVBOTTOM
p4821
aVJUNGLE
p4822
aVTOP
p4823
aVTOP
p4824
aVBOTTOM
p4825
aVBOTTOM
p4826
aVMIDDLE
p4827
aVJUNGLE
p4828
aVBOTTOM
p4829
aVTOP
p4830
aVBOTTOM
p4831
aVMIDDLE
p4832
aVJUNGLE
p4833
aVMIDDLE
p4834
aVTOP
p4835
aVBOTTOM
p4836
aVJUNGLE
p4837
aVBOTTOM
p4838
aVBOTTOM
p4839
aVJUNGLE
p4840
aVTOP
p4841
aVMIDDLE
p4842
aVJUNGLE
p4843
aVJUNGLE
p4844
aVJUNGLE
p4845
aVJUNGLE
p4846
aVMIDDLE
p4847
aVJUNGLE
p4848
aVJUNGLE
p4849
aVBOTTOM
p4850
aVTOP
p4851
aVMIDDLE
p4852
aVBOTTOM
p4853
aVBOTTOM
p4854
aVMIDDLE
p4855
aVBOTTOM
p4856
aVJUNGLE
p4857
aVTOP
p4858
aVBOTTOM
p4859
aVJUNGLE
p4860
aVMIDDLE
p4861
aVBOTTOM
p4862
aVTOP
p4863
aVJUNGLE
p4864
aVBOTTOM
p4865
aVTOP
p4866
aVBOTTOM
p4867
aVJUNGLE
p4868
aVMIDDLE
p4869
aVTOP
p4870
aVJUNGLE
p4871
aVBOTTOM
p4872
aVBOTTOM
p4873
aVBOTTOM
p4874
aVTOP
p4875
aVBOTTOM
p4876
aVJUNGLE
p4877
aVMIDDLE
p4878
aVBOTTOM
p4879
aVBOTTOM
p4880
aVTOP
p4881
aVMIDDLE
p4882
aVJUNGLE
p4883
aVBOTTOM
p4884
aVBOTTOM
p4885
aVTOP
p4886
aVMIDDLE
p4887
aVJUNGLE
p4888
aVJUNGLE
p4889
aVBOTTOM
p4890
aVMIDDLE
p4891
aVBOTTOM
p4892
aVTOP
p4893
aVJUNGLE
p4894
aVBOTTOM
p4895
aVTOP
p4896
aVMIDDLE
p4897
aVBOTTOM
p4898
a.