(lp0
VJUNGLE
p1
aVBOTTOM
p2
aVBOTTOM
p3
aVMIDDLE
p4
aVTOP
p5
aVMIDDLE
p6
aVBOTTOM
p7
aVTOP
p8
aVJUNGLE
p9
aVBOTTOM
p10
aVBOTTOM
p11
aVJUNGLE
p12
aVMIDDLE
p13
aVBOTTOM
p14
aVTOP
p15
aVJUNGLE
p16
aVTOP
p17
aVMIDDLE
p18
aVJUNGLE
p19
aVJUNGLE
p20
aVJUNGLE
p21
aVBOTTOM
p22
aVMIDDLE
p23
aVTOP
p24
aVBOTTOM
p25
aVTOP
p26
aVBOTTOM
p27
aVBOTTOM
p28
aVMIDDLE
p29
aVMIDDLE
p30
aVJUNGLE
p31
aVBOTTOM
p32
aVBOTTOM
p33
aVMIDDLE
p34
aVTOP
p35
aVTOP
p36
aVBOTTOM
p37
aVBOTTOM
p38
aVMIDDLE
p39
aVJUNGLE
p40
aVJUNGLE
p41
aVTOP
p42
aVBOTTOM
p43
aVBOTTOM
p44
aVMIDDLE
p45
aVJUNGLE
p46
aVTOP
p47
aVMIDDLE
p48
aVBOTTOM
p49
aVBOTTOM
p50
aVTOP
p51
aVBOTTOM
p52
aVBOTTOM
p53
aVJUNGLE
p54
aVMIDDLE
p55
aVBOTTOM
p56
aVTOP
p57
aVJUNGLE
p58
aVMIDDLE
p59
aVBOTTOM
p60
aVJUNGLE
p61
aVTOP
p62
aVBOTTOM
p63
aVMIDDLE
p64
aVBOTTOM
p65
aVTOP
p66
aVBOTTOM
p67
aVMIDDLE
p68
aVBOTTOM
p69
aVJUNGLE
p70
aVMIDDLE
p71
aVTOP
p72
aVJUNGLE
p73
aVBOTTOM
p74
aVBOTTOM
p75
aVBOTTOM
p76
aVBOTTOM
p77
aVJUNGLE
p78
aVTOP
p79
aVMIDDLE
p80
aVMIDDLE
p81
aVBOTTOM
p82
aVJUNGLE
p83
aVTOP
p84
aVBOTTOM
p85
aVTOP
p86
aVBOTTOM
p87
aVMIDDLE
p88
aVJUNGLE
p89
aVBOTTOM
p90
aVBOTTOM
p91
aVMIDDLE
p92
aVTOP
p93
aVBOTTOM
p94
aVJUNGLE
p95
aVTOP
p96
aVJUNGLE
p97
aVBOTTOM
p98
aVBOTTOM
p99
aVMIDDLE
p100
aVTOP
p101
aVJUNGLE
p102
aVBOTTOM
p103
aVBOTTOM
p104
aVMIDDLE
p105
aVMIDDLE
p106
aVMIDDLE
p107
aVMIDDLE
p108
aVBOTTOM
p109
aVJUNGLE
p110
aVMIDDLE
p111
aVTOP
p112
aVBOTTOM
p113
aVTOP
p114
aVBOTTOM
p115
aVMIDDLE
p116
aVBOTTOM
p117
aVJUNGLE
p118
aVBOTTOM
p119
aVJUNGLE
p120
aVJUNGLE
p121
aVJUNGLE
p122
aVBOTTOM
p123
aVMIDDLE
p124
aVJUNGLE
p125
aVBOTTOM
p126
aVJUNGLE
p127
aVTOP
p128
aVJUNGLE
p129
aVTOP
p130
aVBOTTOM
p131
aVBOTTOM
p132
aVMIDDLE
p133
aVJUNGLE
p134
aVBOTTOM
p135
aVTOP
p136
aVBOTTOM
p137
aVMIDDLE
p138
aVTOP
p139
aVBOTTOM
p140
aVMIDDLE
p141
aVBOTTOM
p142
aVJUNGLE
p143
aVJUNGLE
p144
aVMIDDLE
p145
aVTOP
p146
aVBOTTOM
p147
aVBOTTOM
p148
aVBOTTOM
p149
aVJUNGLE
p150
aVBOTTOM
p151
aVMIDDLE
p152
aVTOP
p153
aVBOTTOM
p154
aVTOP
p155
aVJUNGLE
p156
aVMIDDLE
p157
aVBOTTOM
p158
aVBOTTOM
p159
aVBOTTOM
p160
aVMIDDLE
p161
aVJUNGLE
p162
aVTOP
p163
aVJUNGLE
p164
aVBOTTOM
p165
aVTOP
p166
aVMIDDLE
p167
aVBOTTOM
p168
aVBOTTOM
p169
aVBOTTOM
p170
aVMIDDLE
p171
aVTOP
p172
aVJUNGLE
p173
aVJUNGLE
p174
aVMIDDLE
p175
aVTOP
p176
aVBOTTOM
p177
aVBOTTOM
p178
aVBOTTOM
p179
aVTOP
p180
aVJUNGLE
p181
aVBOTTOM
p182
aVMIDDLE
p183
aVMIDDLE
p184
aVBOTTOM
p185
aVBOTTOM
p186
aVJUNGLE
p187
aVTOP
p188
aVBOTTOM
p189
aVJUNGLE
p190
aVBOTTOM
p191
aVMIDDLE
p192
aVTOP
p193
aVJUNGLE
p194
aVTOP
p195
aVMIDDLE
p196
aVBOTTOM
p197
aVBOTTOM
p198
aVTOP
p199
aVBOTTOM
p200
aVBOTTOM
p201
aVJUNGLE
p202
aVMIDDLE
p203
aVJUNGLE
p204
aVBOTTOM
p205
aVJUNGLE
p206
aVMIDDLE
p207
aVBOTTOM
p208
aVBOTTOM
p209
aVMIDDLE
p210
aVTOP
p211
aVBOTTOM
p212
aVJUNGLE
p213
aVTOP
p214
aVBOTTOM
p215
aVMIDDLE
p216
aVJUNGLE
p217
aVBOTTOM
p218
aVJUNGLE
p219
aVBOTTOM
p220
aVBOTTOM
p221
aVTOP
p222
aVMIDDLE
p223
aVMIDDLE
p224
aVBOTTOM
p225
aVTOP
p226
aVJUNGLE
p227
aVBOTTOM
p228
aVJUNGLE
p229
aVJUNGLE
p230
aVBOTTOM
p231
aVBOTTOM
p232
aVMIDDLE
p233
aVBOTTOM
p234
aVJUNGLE
p235
aVBOTTOM
p236
aVTOP
p237
aVMIDDLE
p238
aVBOTTOM
p239
aVTOP
p240
aVBOTTOM
p241
aVJUNGLE
p242
aVMIDDLE
p243
aVBOTTOM
p244
aVMIDDLE
p245
aVBOTTOM
p246
aVJUNGLE
p247
aVTOP
p248
aVBOTTOM
p249
aVMIDDLE
p250
aVJUNGLE
p251
aVBOTTOM
p252
aVTOP
p253
aVTOP
p254
aVBOTTOM
p255
aVMIDDLE
p256
aVBOTTOM
p257
aVJUNGLE
p258
aVJUNGLE
p259
aVMIDDLE
p260
aVTOP
p261
aVBOTTOM
p262
aVBOTTOM
p263
aVJUNGLE
p264
aVBOTTOM
p265
aVTOP
p266
aVBOTTOM
p267
aVMIDDLE
p268
aVBOTTOM
p269
aVJUNGLE
p270
aVBOTTOM
p271
aVMIDDLE
p272
aVTOP
p273
aVJUNGLE
p274
aVTOP
p275
aVJUNGLE
p276
aVBOTTOM
p277
aVBOTTOM
p278
aVMIDDLE
p279
aVTOP
p280
aVBOTTOM
p281
aVJUNGLE
p282
aVBOTTOM
p283
aVMIDDLE
p284
aVBOTTOM
p285
aVJUNGLE
p286
aVTOP
p287
aVBOTTOM
p288
aVJUNGLE
p289
aVMIDDLE
p290
aVBOTTOM
p291
aVTOP
p292
aVBOTTOM
p293
aVMIDDLE
p294
aVBOTTOM
p295
aVJUNGLE
p296
aVTOP
p297
aVJUNGLE
p298
aVBOTTOM
p299
aVBOTTOM
p300
aVJUNGLE
p301
aVMIDDLE
p302
aVTOP
p303
aVTOP
p304
aVJUNGLE
p305
aVMIDDLE
p306
aVBOTTOM
p307
aVBOTTOM
p308
aVJUNGLE
p309
aVMIDDLE
p310
aVBOTTOM
p311
aVBOTTOM
p312
aVTOP
p313
aVTOP
p314
aVBOTTOM
p315
aVJUNGLE
p316
aVMIDDLE
p317
aVBOTTOM
p318
aVMIDDLE
p319
aVBOTTOM
p320
aVTOP
p321
aVJUNGLE
p322
aVBOTTOM
p323
aVJUNGLE
p324
aVBOTTOM
p325
aVMIDDLE
p326
aVBOTTOM
p327
aVTOP
p328
aVJUNGLE
p329
aVBOTTOM
p330
aVTOP
p331
aVBOTTOM
p332
aVMIDDLE
p333
aVJUNGLE
p334
aVMIDDLE
p335
aVBOTTOM
p336
aVBOTTOM
p337
aVJUNGLE
p338
aVTOP
p339
aVBOTTOM
p340
aVBOTTOM
p341
aVMIDDLE
p342
aVJUNGLE
p343
aVBOTTOM
p344
aVTOP
p345
aVBOTTOM
p346
aVJUNGLE
p347
aVMIDDLE
p348
aVTOP
p349
aVMIDDLE
p350
aVBOTTOM
p351
aVJUNGLE
p352
aVBOTTOM
p353
aVMIDDLE
p354
aVJUNGLE
p355
aVTOP
p356
aVBOTTOM
p357
aVBOTTOM
p358
aVBOTTOM
p359
aVTOP
p360
aVBOTTOM
p361
aVJUNGLE
p362
aVMIDDLE
p363
aVJUNGLE
p364
aVJUNGLE
p365
aVMIDDLE
p366
aVJUNGLE
p367
aVJUNGLE
p368
aVTOP
p369
aVMIDDLE
p370
aVBOTTOM
p371
aVJUNGLE
p372
aVBOTTOM
p373
aVMIDDLE
p374
aVBOTTOM
p375
aVBOTTOM
p376
aVJUNGLE
p377
aVTOP
p378
aVBOTTOM
p379
aVMIDDLE
p380
aVJUNGLE
p381
aVTOP
p382
aVBOTTOM
p383
aVBOTTOM
p384
aVTOP
p385
aVJUNGLE
p386
aVMIDDLE
p387
aVBOTTOM
p388
aVBOTTOM
p389
aVBOTTOM
p390
aVMIDDLE
p391
aVTOP
p392
aVJUNGLE
p393
aVTOP
p394
aVMIDDLE
p395
aVJUNGLE
p396
aVBOTTOM
p397
aVBOTTOM
p398
aVMIDDLE
p399
aVJUNGLE
p400
aVBOTTOM
p401
aVTOP
p402
aVBOTTOM
p403
aVMIDDLE
p404
aVJUNGLE
p405
aVBOTTOM
p406
aVTOP
p407
aVBOTTOM
p408
aVJUNGLE
p409
aVBOTTOM
p410
aVBOTTOM
p411
aVMIDDLE
p412
aVTOP
p413
aVJUNGLE
p414
aVBOTTOM
p415
aVMIDDLE
p416
aVTOP
p417
aVBOTTOM
p418
aVMIDDLE
p419
aVJUNGLE
p420
aVTOP
p421
aVBOTTOM
p422
aVBOTTOM
p423
aVTOP
p424
aVBOTTOM
p425
aVBOTTOM
p426
aVJUNGLE
p427
aVMIDDLE
p428
aVJUNGLE
p429
aVTOP
p430
aVBOTTOM
p431
aVMIDDLE
p432
aVBOTTOM
p433
aVBOTTOM
p434
aVJUNGLE
p435
aVMIDDLE
p436
aVTOP
p437
aVBOTTOM
p438
aVTOP
p439
aVJUNGLE
p440
aVBOTTOM
p441
aVMIDDLE
p442
aVBOTTOM
p443
aVBOTTOM
p444
aVMIDDLE
p445
aVBOTTOM
p446
aVTOP
p447
aVJUNGLE
p448
aVTOP
p449
aVBOTTOM
p450
aVBOTTOM
p451
aVMIDDLE
p452
aVJUNGLE
p453
aVJUNGLE
p454
aVBOTTOM
p455
aVTOP
p456
aVBOTTOM
p457
aVMIDDLE
p458
aVJUNGLE
p459
aVTOP
p460
aVBOTTOM
p461
aVMIDDLE
p462
aVBOTTOM
p463
aVMIDDLE
p464
aVBOTTOM
p465
aVJUNGLE
p466
aVTOP
p467
aVBOTTOM
p468
aVMIDDLE
p469
aVJUNGLE
p470
aVBOTTOM
p471
aVBOTTOM
p472
aVTOP
p473
aVBOTTOM
p474
aVMIDDLE
p475
aVJUNGLE
p476
aVTOP
p477
aVBOTTOM
p478
aVJUNGLE
p479
aVBOTTOM
p480
aVMIDDLE
p481
aVBOTTOM
p482
aVTOP
p483
aVTOP
p484
aVBOTTOM
p485
aVMIDDLE
p486
aVBOTTOM
p487
aVJUNGLE
p488
aVBOTTOM
p489
aVJUNGLE
p490
aVBOTTOM
p491
aVTOP
p492
aVMIDDLE
p493
aVJUNGLE
p494
aVTOP
p495
aVMIDDLE
p496
aVBOTTOM
p497
aVBOTTOM
p498
aVBOTTOM
p499
aVTOP
p500
aVJUNGLE
p501
aVBOTTOM
p502
aVMIDDLE
p503
aVBOTTOM
p504
aVTOP
p505
aVBOTTOM
p506
aVMIDDLE
p507
aVJUNGLE
p508
aVTOP
p509
aVBOTTOM
p510
aVJUNGLE
p511
aVBOTTOM
p512
aVMIDDLE
p513
aVTOP
p514
aVBOTTOM
p515
aVJUNGLE
p516
aVMIDDLE
p517
aVBOTTOM
p518
aVTOP
p519
aVBOTTOM
p520
aVBOTTOM
p521
aVMIDDLE
p522
aVJUNGLE
p523
aVBOTTOM
p524
aVMIDDLE
p525
aVBOTTOM
p526
aVTOP
p527
aVJUNGLE
p528
aVBOTTOM
p529
aVMIDDLE
p530
aVTOP
p531
aVJUNGLE
p532
aVBOTTOM
p533
aVTOP
p534
aVBOTTOM
p535
aVBOTTOM
p536
aVMIDDLE
p537
aVJUNGLE
p538
aVBOTTOM
p539
aVTOP
p540
aVJUNGLE
p541
aVMIDDLE
p542
aVBOTTOM
p543
aVJUNGLE
p544
aVBOTTOM
p545
aVTOP
p546
aVMIDDLE
p547
aVBOTTOM
p548
aVMIDDLE
p549
aVBOTTOM
p550
aVBOTTOM
p551
aVJUNGLE
p552
aVTOP
p553
aVTOP
p554
aVBOTTOM
p555
aVBOTTOM
p556
aVMIDDLE
p557
aVJUNGLE
p558
aVMIDDLE
p559
aVBOTTOM
p560
aVJUNGLE
p561
aVTOP
p562
aVJUNGLE
p563
aVMIDDLE
p564
aVJUNGLE
p565
aVBOTTOM
p566
aVBOTTOM
p567
aVTOP
p568
aVJUNGLE
p569
aVMIDDLE
p570
aVJUNGLE
p571
aVTOP
p572
aVBOTTOM
p573
aVTOP
p574
aVBOTTOM
p575
aVBOTTOM
p576
aVJUNGLE
p577
aVMIDDLE
p578
aVBOTTOM
p579
aVBOTTOM
p580
aVMIDDLE
p581
aVTOP
p582
aVJUNGLE
p583
aVMIDDLE
p584
aVBOTTOM
p585
aVTOP
p586
aVBOTTOM
p587
aVJUNGLE
p588
aVBOTTOM
p589
aVBOTTOM
p590
aVMIDDLE
p591
aVTOP
p592
aVJUNGLE
p593
aVBOTTOM
p594
aVBOTTOM
p595
aVMIDDLE
p596
aVJUNGLE
p597
aVTOP
p598
aVJUNGLE
p599
aVBOTTOM
p600
aVMIDDLE
p601
aVTOP
p602
aVBOTTOM
p603
aVMIDDLE
p604
aVBOTTOM
p605
aVJUNGLE
p606
aVTOP
p607
aVBOTTOM
p608
aVBOTTOM
p609
aVTOP
p610
aVMIDDLE
p611
aVJUNGLE
p612
aVBOTTOM
p613
aVMIDDLE
p614
aVBOTTOM
p615
aVBOTTOM
p616
aVJUNGLE
p617
aVJUNGLE
p618
aVBOTTOM
p619
aVJUNGLE
p620
aVMIDDLE
p621
aVTOP
p622
aVBOTTOM
p623
aVBOTTOM
p624
aVJUNGLE
p625
aVMIDDLE
p626
aVTOP
p627
aVBOTTOM
p628
aVBOTTOM
p629
aVMIDDLE
p630
aVJUNGLE
p631
aVBOTTOM
p632
aVTOP
p633
aVBOTTOM
p634
aVJUNGLE
p635
aVTOP
p636
aVMIDDLE
p637
aVBOTTOM
p638
aVBOTTOM
p639
aVBOTTOM
p640
aVTOP
p641
aVMIDDLE
p642
aVJUNGLE
p643
aVMIDDLE
p644
aVBOTTOM
p645
aVBOTTOM
p646
aVJUNGLE
p647
aVTOP
p648
aVJUNGLE
p649
aVBOTTOM
p650
aVMIDDLE
p651
aVTOP
p652
aVBOTTOM
p653
aVBOTTOM
p654
aVTOP
p655
aVBOTTOM
p656
aVMIDDLE
p657
aVJUNGLE
p658
aVMIDDLE
p659
aVBOTTOM
p660
aVTOP
p661
aVBOTTOM
p662
aVJUNGLE
p663
aVBOTTOM
p664
aVTOP
p665
aVJUNGLE
p666
aVMIDDLE
p667
aVBOTTOM
p668
aVJUNGLE
p669
aVBOTTOM
p670
aVTOP
p671
aVMIDDLE
p672
aVBOTTOM
p673
aVBOTTOM
p674
aVJUNGLE
p675
aVBOTTOM
p676
aVTOP
p677
aVMIDDLE
p678
aVBOTTOM
p679
aVJUNGLE
p680
aVTOP
p681
aVMIDDLE
p682
aVBOTTOM
p683
aVJUNGLE
p684
aVMIDDLE
p685
aVBOTTOM
p686
aVBOTTOM
p687
aVTOP
p688
aVTOP
p689
aVJUNGLE
p690
aVMIDDLE
p691
aVBOTTOM
p692
aVBOTTOM
p693
aVTOP
p694
aVBOTTOM
p695
aVMIDDLE
p696
aVJUNGLE
p697
aVBOTTOM
p698
aVBOTTOM
p699
aVJUNGLE
p700
aVBOTTOM
p701
aVTOP
p702
aVMIDDLE
p703
aVMIDDLE
p704
aVBOTTOM
p705
aVJUNGLE
p706
aVTOP
p707
aVBOTTOM
p708
aVJUNGLE
p709
aVBOTTOM
p710
aVBOTTOM
p711
aVTOP
p712
aVMIDDLE
p713
aVBOTTOM
p714
aVMIDDLE
p715
aVJUNGLE
p716
aVTOP
p717
aVBOTTOM
p718
aVMIDDLE
p719
aVTOP
p720
aVJUNGLE
p721
aVBOTTOM
p722
aVBOTTOM
p723
aVJUNGLE
p724
aVTOP
p725
aVBOTTOM
p726
aVMIDDLE
p727
aVBOTTOM
p728
aVTOP
p729
aVBOTTOM
p730
aVMIDDLE
p731
aVJUNGLE
p732
aVBOTTOM
p733
aVBOTTOM
p734
aVBOTTOM
p735
aVTOP
p736
aVMIDDLE
p737
aVJUNGLE
p738
aVJUNGLE
p739
aVBOTTOM
p740
aVMIDDLE
p741
aVTOP
p742
aVBOTTOM
p743
aVJUNGLE
p744
aVTOP
p745
aVMIDDLE
p746
aVBOTTOM
p747
aVBOTTOM
p748
aVJUNGLE
p749
aVBOTTOM
p750
aVBOTTOM
p751
aVTOP
p752
aVMIDDLE
p753
aVJUNGLE
p754
aVBOTTOM
p755
aVMIDDLE
p756
aVTOP
p757
aVBOTTOM
p758
aVMIDDLE
p759
aVJUNGLE
p760
aVMIDDLE
p761
aVTOP
p762
aVBOTTOM
p763
aVJUNGLE
p764
aVBOTTOM
p765
aVMIDDLE
p766
aVMIDDLE
p767
aVBOTTOM
p768
aVTOP
p769
aVJUNGLE
p770
aVBOTTOM
p771
aVBOTTOM
p772
aVMIDDLE
p773
aVBOTTOM
p774
aVMIDDLE
p775
aVTOP
p776
aVJUNGLE
p777
aVTOP
p778
aVBOTTOM
p779
aVBOTTOM
p780
aVMIDDLE
p781
aVBOTTOM
p782
aVTOP
p783
aVJUNGLE
p784
aVMIDDLE
p785
aVBOTTOM
p786
aVBOTTOM
p787
aVJUNGLE
p788
aVTOP
p789
aVMIDDLE
p790
aVBOTTOM
p791
aVBOTTOM
p792
aVTOP
p793
aVJUNGLE
p794
aVMIDDLE
p795
aVBOTTOM
p796
aVMIDDLE
p797
aVJUNGLE
p798
aVBOTTOM
p799
aVTOP
p800
aVBOTTOM
p801
aVBOTTOM
p802
aVTOP
p803
aVBOTTOM
p804
aVMIDDLE
p805
aVJUNGLE
p806
aVBOTTOM
p807
aVJUNGLE
p808
aVTOP
p809
aVBOTTOM
p810
aVJUNGLE
p811
aVMIDDLE
p812
aVBOTTOM
p813
aVTOP
p814
aVJUNGLE
p815
aVBOTTOM
p816
aVBOTTOM
p817
aVMIDDLE
p818
aVJUNGLE
p819
aVBOTTOM
p820
aVJUNGLE
p821
aVBOTTOM
p822
aVJUNGLE
p823
aVMIDDLE
p824
aVBOTTOM
p825
aVTOP
p826
aVJUNGLE
p827
aVBOTTOM
p828
aVBOTTOM
p829
aVTOP
p830
aVMIDDLE
p831
aVJUNGLE
p832
aVMIDDLE
p833
aVTOP
p834
aVBOTTOM
p835
aVBOTTOM
p836
aVTOP
p837
aVMIDDLE
p838
aVBOTTOM
p839
aVBOTTOM
p840
aVJUNGLE
p841
aVTOP
p842
aVBOTTOM
p843
aVJUNGLE
p844
aVBOTTOM
p845
aVMIDDLE
p846
aVBOTTOM
p847
aVMIDDLE
p848
aVJUNGLE
p849
aVTOP
p850
aVBOTTOM
p851
aVMIDDLE
p852
aVJUNGLE
p853
aVTOP
p854
aVBOTTOM
p855
aVJUNGLE
p856
aVMIDDLE
p857
aVBOTTOM
p858
aVJUNGLE
p859
aVBOTTOM
p860
aVTOP
p861
aVJUNGLE
p862
aVMIDDLE
p863
aVBOTTOM
p864
aVTOP
p865
aVBOTTOM
p866
aVBOTTOM
p867
aVTOP
p868
aVJUNGLE
p869
aVBOTTOM
p870
aVMIDDLE
p871
aVMIDDLE
p872
aVTOP
p873
aVBOTTOM
p874
aVBOTTOM
p875
aVJUNGLE
p876
aVJUNGLE
p877
aVMIDDLE
p878
aVTOP
p879
aVBOTTOM
p880
aVBOTTOM
p881
aVBOTTOM
p882
aVMIDDLE
p883
aVTOP
p884
aVJUNGLE
p885
aVBOTTOM
p886
aVJUNGLE
p887
aVTOP
p888
aVBOTTOM
p889
aVBOTTOM
p890
aVMIDDLE
p891
aVJUNGLE
p892
aVMIDDLE
p893
aVBOTTOM
p894
aVBOTTOM
p895
aVTOP
p896
aVBOTTOM
p897
aVMIDDLE
p898
aVTOP
p899
aVJUNGLE
p900
aVBOTTOM
p901
aVMIDDLE
p902
aVBOTTOM
p903
aVJUNGLE
p904
aVBOTTOM
p905
aVTOP
p906
aVBOTTOM
p907
aVBOTTOM
p908
aVTOP
p909
aVMIDDLE
p910
aVJUNGLE
p911
aVMIDDLE
p912
aVJUNGLE
p913
aVBOTTOM
p914
aVBOTTOM
p915
aVTOP
p916
aVMIDDLE
p917
aVBOTTOM
p918
aVBOTTOM
p919
aVJUNGLE
p920
aVTOP
p921
aVJUNGLE
p922
aVMIDDLE
p923
aVJUNGLE
p924
aVBOTTOM
p925
aVMIDDLE
p926
aVBOTTOM
p927
aVTOP
p928
aVJUNGLE
p929
aVJUNGLE
p930
aVBOTTOM
p931
aVBOTTOM
p932
aVMIDDLE
p933
aVTOP
p934
aVBOTTOM
p935
aVMIDDLE
p936
aVJUNGLE
p937
aVTOP
p938
aVBOTTOM
p939
aVJUNGLE
p940
aVMIDDLE
p941
aVTOP
p942
aVBOTTOM
p943
aVBOTTOM
p944
aVBOTTOM
p945
aVJUNGLE
p946
aVMIDDLE
p947
aVBOTTOM
p948
aVTOP
p949
aVBOTTOM
p950
aVTOP
p951
aVJUNGLE
p952
aVBOTTOM
p953
aVMIDDLE
p954
aVMIDDLE
p955
aVBOTTOM
p956
aVBOTTOM
p957
aVTOP
p958
aVJUNGLE
p959
aVJUNGLE
p960
aVBOTTOM
p961
aVJUNGLE
p962
aVMIDDLE
p963
aVBOTTOM
p964
aVTOP
p965
aVBOTTOM
p966
aVMIDDLE
p967
aVJUNGLE
p968
aVBOTTOM
p969
aVBOTTOM
p970
aVMIDDLE
p971
aVBOTTOM
p972
aVTOP
p973
aVJUNGLE
p974
aVBOTTOM
p975
aVMIDDLE
p976
aVJUNGLE
p977
aVTOP
p978
aVBOTTOM
p979
aVJUNGLE
p980
aVTOP
p981
aVBOTTOM
p982
aVBOTTOM
p983
aVJUNGLE
p984
aVTOP
p985
aVBOTTOM
p986
aVBOTTOM
p987
aVMIDDLE
p988
aVJUNGLE
p989
aVTOP
p990
aVBOTTOM
p991
aVMIDDLE
p992
aVBOTTOM
p993
aVJUNGLE
p994
aVMIDDLE
p995
aVBOTTOM
p996
aVJUNGLE
p997
aVTOP
p998
aVBOTTOM
p999
aVBOTTOM
p1000
aVTOP
p1001
aVJUNGLE
p1002
aVMIDDLE
p1003
aVBOTTOM
p1004
aVBOTTOM
p1005
aVBOTTOM
p1006
aVTOP
p1007
aVJUNGLE
p1008
aVMIDDLE
p1009
aVMIDDLE
p1010
aVBOTTOM
p1011
aVTOP
p1012
aVJUNGLE
p1013
aVBOTTOM
p1014
aVJUNGLE
p1015
aVTOP
p1016
aVBOTTOM
p1017
aVMIDDLE
p1018
aVBOTTOM
p1019
aVJUNGLE
p1020
aVTOP
p1021
aVBOTTOM
p1022
aVBOTTOM
p1023
aVMIDDLE
p1024
aVBOTTOM
p1025
aVBOTTOM
p1026
aVTOP
p1027
aVJUNGLE
p1028
aVMIDDLE
p1029
aVBOTTOM
p1030
aVMIDDLE
p1031
aVBOTTOM
p1032
aVJUNGLE
p1033
aVTOP
p1034
aVBOTTOM
p1035
aVJUNGLE
p1036
aVMIDDLE
p1037
aVBOTTOM
p1038
aVTOP
p1039
aVBOTTOM
p1040
aVTOP
p1041
aVMIDDLE
p1042
aVJUNGLE
p1043
aVBOTTOM
p1044
aVMIDDLE
p1045
aVBOTTOM
p1046
aVTOP
p1047
aVJUNGLE
p1048
aVBOTTOM
p1049
aVJUNGLE
p1050
aVBOTTOM
p1051
aVTOP
p1052
aVBOTTOM
p1053
aVMIDDLE
p1054
aVBOTTOM
p1055
aVMIDDLE
p1056
aVTOP
p1057
aVBOTTOM
p1058
aVJUNGLE
p1059
aVJUNGLE
p1060
aVBOTTOM
p1061
aVTOP
p1062
aVMIDDLE
p1063
aVBOTTOM
p1064
aVTOP
p1065
aVMIDDLE
p1066
aVBOTTOM
p1067
aVBOTTOM
p1068
aVJUNGLE
p1069
aVTOP
p1070
aVMIDDLE
p1071
aVBOTTOM
p1072
aVBOTTOM
p1073
aVJUNGLE
p1074
aVTOP
p1075
aVJUNGLE
p1076
aVBOTTOM
p1077
aVBOTTOM
p1078
aVMIDDLE
p1079
aVJUNGLE
p1080
aVTOP
p1081
aVMIDDLE
p1082
aVBOTTOM
p1083
aVBOTTOM
p1084
aVJUNGLE
p1085
aVMIDDLE
p1086
aVJUNGLE
p1087
aVBOTTOM
p1088
aVBOTTOM
p1089
aVBOTTOM
p1090
aVMIDDLE
p1091
aVJUNGLE
p1092
aVBOTTOM
p1093
aVTOP
p1094
aVMIDDLE
p1095
aVBOTTOM
p1096
aVJUNGLE
p1097
aVBOTTOM
p1098
aVTOP
p1099
aVMIDDLE
p1100
aVJUNGLE
p1101
aVBOTTOM
p1102
aVBOTTOM
p1103
aVTOP
p1104
aVMIDDLE
p1105
aVBOTTOM
p1106
aVBOTTOM
p1107
aVTOP
p1108
aVJUNGLE
p1109
aVTOP
p1110
aVBOTTOM
p1111
aVBOTTOM
p1112
aVMIDDLE
p1113
aVMIDDLE
p1114
aVBOTTOM
p1115
aVJUNGLE
p1116
aVBOTTOM
p1117
aVMIDDLE
p1118
aVTOP
p1119
aVBOTTOM
p1120
aVJUNGLE
p1121
aVTOP
p1122
aVBOTTOM
p1123
aVMIDDLE
p1124
aVMIDDLE
p1125
aVJUNGLE
p1126
aVBOTTOM
p1127
aVTOP
p1128
aVBOTTOM
p1129
aVJUNGLE
p1130
aVMIDDLE
p1131
aVMIDDLE
p1132
aVMIDDLE
p1133
aVBOTTOM
p1134
aVTOP
p1135
aVJUNGLE
p1136
aVBOTTOM
p1137
aVBOTTOM
p1138
aVJUNGLE
p1139
aVBOTTOM
p1140
aVMIDDLE
p1141
aVTOP
p1142
aVJUNGLE
p1143
aVBOTTOM
p1144
aVMIDDLE
p1145
aVBOTTOM
p1146
aVTOP
p1147
aVBOTTOM
p1148
aVMIDDLE
p1149
aVJUNGLE
p1150
aVTOP
p1151
aVJUNGLE
p1152
aVBOTTOM
p1153
aVMIDDLE
p1154
aVTOP
p1155
aVJUNGLE
p1156
aVBOTTOM
p1157
aVMIDDLE
p1158
aVBOTTOM
p1159
aVJUNGLE
p1160
aVTOP
p1161
aVBOTTOM
p1162
aVTOP
p1163
aVMIDDLE
p1164
aVBOTTOM
p1165
aVJUNGLE
p1166
aVBOTTOM
p1167
aVTOP
p1168
aVBOTTOM
p1169
aVJUNGLE
p1170
aVMIDDLE
p1171
aVBOTTOM
p1172
aVMIDDLE
p1173
aVBOTTOM
p1174
aVJUNGLE
p1175
aVBOTTOM
p1176
aVJUNGLE
p1177
aVBOTTOM
p1178
aVBOTTOM
p1179
aVMIDDLE
p1180
aVJUNGLE
p1181
aVTOP
p1182
aVBOTTOM
p1183
aVMIDDLE
p1184
aVTOP
p1185
aVJUNGLE
p1186
aVBOTTOM
p1187
aVBOTTOM
p1188
aVJUNGLE
p1189
aVMIDDLE
p1190
aVTOP
p1191
aVBOTTOM
p1192
aVJUNGLE
p1193
aVBOTTOM
p1194
aVBOTTOM
p1195
aVTOP
p1196
aVMIDDLE
p1197
aVMIDDLE
p1198
aVBOTTOM
p1199
aVTOP
p1200
aVJUNGLE
p1201
aVBOTTOM
p1202
aVBOTTOM
p1203
aVBOTTOM
p1204
aVMIDDLE
p1205
aVJUNGLE
p1206
aVTOP
p1207
aVBOTTOM
p1208
aVMIDDLE
p1209
aVJUNGLE
p1210
aVTOP
p1211
aVBOTTOM
p1212
aVMIDDLE
p1213
aVBOTTOM
p1214
aVJUNGLE
p1215
aVBOTTOM
p1216
aVTOP
p1217
aVJUNGLE
p1218
aVBOTTOM
p1219
aVMIDDLE
p1220
aVTOP
p1221
aVJUNGLE
p1222
aVJUNGLE
p1223
aVBOTTOM
p1224
aVBOTTOM
p1225
aVMIDDLE
p1226
aVTOP
p1227
aVBOTTOM
p1228
aVTOP
p1229
aVMIDDLE
p1230
aVBOTTOM
p1231
aVJUNGLE
p1232
aVBOTTOM
p1233
aVBOTTOM
p1234
aVTOP
p1235
aVJUNGLE
p1236
aVMIDDLE
p1237
aVBOTTOM
p1238
aVTOP
p1239
aVMIDDLE
p1240
aVBOTTOM
p1241
aVJUNGLE
p1242
aVTOP
p1243
aVJUNGLE
p1244
aVBOTTOM
p1245
aVBOTTOM
p1246
aVMIDDLE
p1247
aVJUNGLE
p1248
aVBOTTOM
p1249
aVTOP
p1250
aVMIDDLE
p1251
aVBOTTOM
p1252
aVTOP
p1253
aVMIDDLE
p1254
aVJUNGLE
p1255
aVBOTTOM
p1256
aVBOTTOM
p1257
aVTOP
p1258
aVBOTTOM
p1259
aVJUNGLE
p1260
aVBOTTOM
p1261
aVMIDDLE
p1262
aVJUNGLE
p1263
aVTOP
p1264
aVBOTTOM
p1265
aVBOTTOM
p1266
aVMIDDLE
p1267
aVMIDDLE
p1268
aVBOTTOM
p1269
aVBOTTOM
p1270
aVTOP
p1271
aVJUNGLE
p1272
aVBOTTOM
p1273
aVBOTTOM
p1274
aVJUNGLE
p1275
aVTOP
p1276
aVMIDDLE
p1277
aVTOP
p1278
aVMIDDLE
p1279
aVBOTTOM
p1280
aVBOTTOM
p1281
aVJUNGLE
p1282
aVBOTTOM
p1283
aVTOP
p1284
aVBOTTOM
p1285
aVJUNGLE
p1286
aVMIDDLE
p1287
aVBOTTOM
p1288
aVBOTTOM
p1289
aVJUNGLE
p1290
aVMIDDLE
p1291
aVTOP
p1292
aVBOTTOM
p1293
aVMIDDLE
p1294
aVBOTTOM
p1295
aVTOP
p1296
aVJUNGLE
p1297
aVBOTTOM
p1298
aVMIDDLE
p1299
aVBOTTOM
p1300
aVJUNGLE
p1301
aVTOP
p1302
aVJUNGLE
p1303
aVMIDDLE
p1304
aVJUNGLE
p1305
aVJUNGLE
p1306
aVTOP
p1307
aVBOTTOM
p1308
aVBOTTOM
p1309
aVMIDDLE
p1310
aVMIDDLE
p1311
aVBOTTOM
p1312
aVTOP
p1313
aVJUNGLE
p1314
aVBOTTOM
p1315
aVTOP
p1316
aVBOTTOM
p1317
aVBOTTOM
p1318
aVJUNGLE
p1319
aVMIDDLE
p1320
aVMIDDLE
p1321
aVBOTTOM
p1322
aVJUNGLE
p1323
aVBOTTOM
p1324
aVTOP
p1325
aVBOTTOM
p1326
aVBOTTOM
p1327
aVJUNGLE
p1328
aVTOP
p1329
aVMIDDLE
p1330
aVJUNGLE
p1331
aVMIDDLE
p1332
aVBOTTOM
p1333
aVTOP
p1334
aVBOTTOM
p1335
aVJUNGLE
p1336
aVBOTTOM
p1337
aVMIDDLE
p1338
aVJUNGLE
p1339
aVBOTTOM
p1340
aVBOTTOM
p1341
aVMIDDLE
p1342
aVJUNGLE
p1343
aVBOTTOM
p1344
aVTOP
p1345
aVJUNGLE
p1346
aVBOTTOM
p1347
aVMIDDLE
p1348
aVBOTTOM
p1349
aVJUNGLE
p1350
aVJUNGLE
p1351
aVBOTTOM
p1352
aVBOTTOM
p1353
aVMIDDLE
p1354
aVTOP
p1355
aVTOP
p1356
aVMIDDLE
p1357
aVBOTTOM
p1358
aVJUNGLE
p1359
aVBOTTOM
p1360
aVTOP
p1361
aVJUNGLE
p1362
aVMIDDLE
p1363
aVBOTTOM
p1364
aVBOTTOM
p1365
aVJUNGLE
p1366
aVJUNGLE
p1367
aVBOTTOM
p1368
aVTOP
p1369
aVBOTTOM
p1370
aVMIDDLE
p1371
aVJUNGLE
p1372
aVBOTTOM
p1373
aVBOTTOM
p1374
aVTOP
p1375
aVBOTTOM
p1376
aVMIDDLE
p1377
aVJUNGLE
p1378
aVTOP
p1379
aVBOTTOM
p1380
aVMIDDLE
p1381
aVBOTTOM
p1382
aVBOTTOM
p1383
aVJUNGLE
p1384
aVTOP
p1385
aVJUNGLE
p1386
aVMIDDLE
p1387
aVTOP
p1388
aVBOTTOM
p1389
aVBOTTOM
p1390
aVMIDDLE
p1391
aVJUNGLE
p1392
aVJUNGLE
p1393
aVBOTTOM
p1394
aVTOP
p1395
aVBOTTOM
p1396
aVJUNGLE
p1397
aVBOTTOM
p1398
aVMIDDLE
p1399
aVTOP
p1400
aVBOTTOM
p1401
aVJUNGLE
p1402
aVBOTTOM
p1403
aVMIDDLE
p1404
aVTOP
p1405
aVBOTTOM
p1406
aVTOP
p1407
aVMIDDLE
p1408
aVJUNGLE
p1409
aVBOTTOM
p1410
aVBOTTOM
p1411
aVMIDDLE
p1412
aVBOTTOM
p1413
aVJUNGLE
p1414
aVTOP
p1415
aVTOP
p1416
aVMIDDLE
p1417
aVBOTTOM
p1418
aVBOTTOM
p1419
aVMIDDLE
p1420
aVBOTTOM
p1421
aVMIDDLE
p1422
aVJUNGLE
p1423
aVBOTTOM
p1424
aVTOP
p1425
aVBOTTOM
p1426
aVBOTTOM
p1427
aVMIDDLE
p1428
aVTOP
p1429
aVJUNGLE
p1430
aVJUNGLE
p1431
aVMIDDLE
p1432
aVTOP
p1433
aVBOTTOM
p1434
aVBOTTOM
p1435
aVTOP
p1436
aVBOTTOM
p1437
aVMIDDLE
p1438
aVBOTTOM
p1439
aVJUNGLE
p1440
aVJUNGLE
p1441
aVMIDDLE
p1442
aVBOTTOM
p1443
aVJUNGLE
p1444
aVBOTTOM
p1445
aVBOTTOM
p1446
aVBOTTOM
p1447
aVJUNGLE
p1448
aVMIDDLE
p1449
aVTOP
p1450
aVBOTTOM
p1451
aVJUNGLE
p1452
aVBOTTOM
p1453
aVTOP
p1454
aVMIDDLE
p1455
aVJUNGLE
p1456
aVBOTTOM
p1457
aVBOTTOM
p1458
aVMIDDLE
p1459
aVTOP
p1460
aVMIDDLE
p1461
aVBOTTOM
p1462
aVBOTTOM
p1463
aVJUNGLE
p1464
aVTOP
p1465
aVTOP
p1466
aVMIDDLE
p1467
aVJUNGLE
p1468
aVBOTTOM
p1469
aVBOTTOM
p1470
aVMIDDLE
p1471
aVJUNGLE
p1472
aVBOTTOM
p1473
aVTOP
p1474
aVBOTTOM
p1475
aVBOTTOM
p1476
aVBOTTOM
p1477
aVMIDDLE
p1478
aVJUNGLE
p1479
aVTOP
p1480
aVBOTTOM
p1481
aVMIDDLE
p1482
aVTOP
p1483
aVBOTTOM
p1484
aVJUNGLE
p1485
aVTOP
p1486
aVBOTTOM
p1487
aVJUNGLE
p1488
aVMIDDLE
p1489
aVBOTTOM
p1490
aVBOTTOM
p1491
aVTOP
p1492
aVJUNGLE
p1493
aVMIDDLE
p1494
aVBOTTOM
p1495
aVTOP
p1496
aVJUNGLE
p1497
aVMIDDLE
p1498
aVBOTTOM
p1499
aVBOTTOM
p1500
aVBOTTOM
p1501
aVBOTTOM
p1502
aVMIDDLE
p1503
aVJUNGLE
p1504
aVTOP
p1505
aVTOP
p1506
aVBOTTOM
p1507
aVBOTTOM
p1508
aVMIDDLE
p1509
aVJUNGLE
p1510
aVBOTTOM
p1511
aVTOP
p1512
aVBOTTOM
p1513
aVMIDDLE
p1514
aVJUNGLE
p1515
aVMIDDLE
p1516
aVTOP
p1517
aVJUNGLE
p1518
aVBOTTOM
p1519
aVBOTTOM
p1520
aVBOTTOM
p1521
aVMIDDLE
p1522
aVTOP
p1523
aVBOTTOM
p1524
aVJUNGLE
p1525
aVJUNGLE
p1526
aVBOTTOM
p1527
aVBOTTOM
p1528
aVTOP
p1529
aVMIDDLE
p1530
aVTOP
p1531
aVMIDDLE
p1532
aVJUNGLE
p1533
aVBOTTOM
p1534
aVBOTTOM
p1535
aVTOP
p1536
aVBOTTOM
p1537
aVMIDDLE
p1538
aVBOTTOM
p1539
aVJUNGLE
p1540
aVJUNGLE
p1541
aVTOP
p1542
aVBOTTOM
p1543
aVBOTTOM
p1544
aVMIDDLE
p1545
aVBOTTOM
p1546
aVBOTTOM
p1547
aVTOP
p1548
aVMIDDLE
p1549
aVJUNGLE
p1550
aVBOTTOM
p1551
aVMIDDLE
p1552
aVJUNGLE
p1553
aVTOP
p1554
aVBOTTOM
p1555
aVTOP
p1556
aVJUNGLE
p1557
aVBOTTOM
p1558
aVMIDDLE
p1559
aVBOTTOM
p1560
aVJUNGLE
p1561
aVBOTTOM
p1562
aVMIDDLE
p1563
aVBOTTOM
p1564
aVTOP
p1565
aVMIDDLE
p1566
aVTOP
p1567
aVBOTTOM
p1568
aVBOTTOM
p1569
aVJUNGLE
p1570
aVBOTTOM
p1571
aVBOTTOM
p1572
aVJUNGLE
p1573
aVTOP
p1574
aVMIDDLE
p1575
aVJUNGLE
p1576
aVJUNGLE
p1577
aVMIDDLE
p1578
aVTOP
p1579
aVJUNGLE
p1580
aVMIDDLE
p1581
aVTOP
p1582
aVJUNGLE
p1583
aVBOTTOM
p1584
aVBOTTOM
p1585
aVMIDDLE
p1586
aVBOTTOM
p1587
aVJUNGLE
p1588
aVTOP
p1589
aVBOTTOM
p1590
aVMIDDLE
p1591
aVBOTTOM
p1592
aVJUNGLE
p1593
aVBOTTOM
p1594
aVTOP
p1595
aVJUNGLE
p1596
aVMIDDLE
p1597
aVBOTTOM
p1598
aVTOP
p1599
aVBOTTOM
p1600
aVJUNGLE
p1601
aVTOP
p1602
aVMIDDLE
p1603
aVBOTTOM
p1604
aVBOTTOM
p1605
aVJUNGLE
p1606
aVBOTTOM
p1607
aVMIDDLE
p1608
aVJUNGLE
p1609
aVTOP
p1610
aVTOP
p1611
aVMIDDLE
p1612
aVJUNGLE
p1613
aVBOTTOM
p1614
aVBOTTOM
p1615
aVJUNGLE
p1616
aVTOP
p1617
aVMIDDLE
p1618
aVBOTTOM
p1619
aVBOTTOM
p1620
aVTOP
p1621
aVJUNGLE
p1622
aVBOTTOM
p1623
aVBOTTOM
p1624
aVMIDDLE
p1625
aVJUNGLE
p1626
aVTOP
p1627
aVMIDDLE
p1628
aVBOTTOM
p1629
aVBOTTOM
p1630
aVMIDDLE
p1631
aVBOTTOM
p1632
aVTOP
p1633
aVBOTTOM
p1634
aVJUNGLE
p1635
aVMIDDLE
p1636
aVJUNGLE
p1637
aVBOTTOM
p1638
aVTOP
p1639
aVBOTTOM
p1640
aVBOTTOM
p1641
aVTOP
p1642
aVBOTTOM
p1643
aVMIDDLE
p1644
aVJUNGLE
p1645
aVBOTTOM
p1646
aVJUNGLE
p1647
aVJUNGLE
p1648
aVBOTTOM
p1649
aVTOP
p1650
aVJUNGLE
p1651
aVBOTTOM
p1652
aVBOTTOM
p1653
aVMIDDLE
p1654
aVTOP
p1655
aVBOTTOM
p1656
aVJUNGLE
p1657
aVMIDDLE
p1658
aVBOTTOM
p1659
aVTOP
p1660
aVBOTTOM
p1661
aVBOTTOM
p1662
aVTOP
p1663
aVJUNGLE
p1664
aVMIDDLE
p1665
aVMIDDLE
p1666
aVJUNGLE
p1667
aVBOTTOM
p1668
aVTOP
p1669
aVBOTTOM
p1670
aVBOTTOM
p1671
aVJUNGLE
p1672
aVTOP
p1673
aVMIDDLE
p1674
aVBOTTOM
p1675
aVJUNGLE
p1676
aVTOP
p1677
aVMIDDLE
p1678
aVBOTTOM
p1679
aVBOTTOM
p1680
aVTOP
p1681
aVBOTTOM
p1682
aVBOTTOM
p1683
aVMIDDLE
p1684
aVJUNGLE
p1685
aVTOP
p1686
aVBOTTOM
p1687
aVBOTTOM
p1688
aVJUNGLE
p1689
aVMIDDLE
p1690
aVJUNGLE
p1691
aVBOTTOM
p1692
aVBOTTOM
p1693
aVMIDDLE
p1694
aVTOP
p1695
aVJUNGLE
p1696
aVMIDDLE
p1697
aVBOTTOM
p1698
aVTOP
p1699
aVBOTTOM
p1700
aVMIDDLE
p1701
aVTOP
p1702
aVJUNGLE
p1703
aVBOTTOM
p1704
aVBOTTOM
p1705
aVTOP
p1706
aVMIDDLE
p1707
aVBOTTOM
p1708
aVJUNGLE
p1709
aVBOTTOM
p1710
aVJUNGLE
p1711
aVBOTTOM
p1712
aVBOTTOM
p1713
aVMIDDLE
p1714
aVTOP
p1715
aVJUNGLE
p1716
aVBOTTOM
p1717
aVMIDDLE
p1718
aVBOTTOM
p1719
aVTOP
p1720
aVBOTTOM
p1721
aVTOP
p1722
aVMIDDLE
p1723
aVJUNGLE
p1724
aVBOTTOM
p1725
aVBOTTOM
p1726
aVTOP
p1727
aVMIDDLE
p1728
aVJUNGLE
p1729
aVBOTTOM
p1730
aVMIDDLE
p1731
aVBOTTOM
p1732
aVBOTTOM
p1733
aVJUNGLE
p1734
aVTOP
p1735
aVJUNGLE
p1736
aVJUNGLE
p1737
aVTOP
p1738
aVBOTTOM
p1739
aVBOTTOM
p1740
aVMIDDLE
p1741
aVJUNGLE
p1742
aVBOTTOM
p1743
aVTOP
p1744
aVBOTTOM
p1745
aVTOP
p1746
aVMIDDLE
p1747
aVBOTTOM
p1748
aVJUNGLE
p1749
aVBOTTOM
p1750
aVBOTTOM
p1751
aVJUNGLE
p1752
aVBOTTOM
p1753
aVTOP
p1754
aVMIDDLE
p1755
aVMIDDLE
p1756
aVBOTTOM
p1757
aVMIDDLE
p1758
aVTOP
p1759
aVBOTTOM
p1760
aVBOTTOM
p1761
aVJUNGLE
p1762
aVTOP
p1763
aVMIDDLE
p1764
aVBOTTOM
p1765
aVBOTTOM
p1766
aVJUNGLE
p1767
aVBOTTOM
p1768
aVTOP
p1769
aVMIDDLE
p1770
aVBOTTOM
p1771
aVBOTTOM
p1772
aVTOP
p1773
aVJUNGLE
p1774
aVMIDDLE
p1775
aVMIDDLE
p1776
aVBOTTOM
p1777
aVBOTTOM
p1778
aVTOP
p1779
aVMIDDLE
p1780
aVTOP
p1781
aVBOTTOM
p1782
aVMIDDLE
p1783
aVBOTTOM
p1784
aVJUNGLE
p1785
aVTOP
p1786
aVBOTTOM
p1787
aVJUNGLE
p1788
aVMIDDLE
p1789
aVBOTTOM
p1790
aVJUNGLE
p1791
aVBOTTOM
p1792
aVMIDDLE
p1793
aVBOTTOM
p1794
aVTOP
p1795
aVMIDDLE
p1796
aVBOTTOM
p1797
aVJUNGLE
p1798
aVTOP
p1799
aVBOTTOM
p1800
aVBOTTOM
p1801
aVBOTTOM
p1802
aVJUNGLE
p1803
aVMIDDLE
p1804
aVTOP
p1805
aVTOP
p1806
aVBOTTOM
p1807
aVBOTTOM
p1808
aVMIDDLE
p1809
aVJUNGLE
p1810
aVJUNGLE
p1811
aVTOP
p1812
aVBOTTOM
p1813
aVBOTTOM
p1814
aVMIDDLE
p1815
aVBOTTOM
p1816
aVTOP
p1817
aVJUNGLE
p1818
aVBOTTOM
p1819
aVMIDDLE
p1820
aVJUNGLE
p1821
aVTOP
p1822
aVMIDDLE
p1823
aVBOTTOM
p1824
aVBOTTOM
p1825
aVMIDDLE
p1826
aVBOTTOM
p1827
aVTOP
p1828
aVBOTTOM
p1829
aVJUNGLE
p1830
aVTOP
p1831
aVBOTTOM
p1832
aVBOTTOM
p1833
aVJUNGLE
p1834
aVMIDDLE
p1835
aVMIDDLE
p1836
aVJUNGLE
p1837
aVBOTTOM
p1838
aVBOTTOM
p1839
aVTOP
p1840
aVBOTTOM
p1841
aVJUNGLE
p1842
aVMIDDLE
p1843
aVBOTTOM
p1844
aVTOP
p1845
aVMIDDLE
p1846
aVJUNGLE
p1847
aVBOTTOM
p1848
aVBOTTOM
p1849
aVTOP
p1850
aVTOP
p1851
aVBOTTOM
p1852
aVBOTTOM
p1853
aVJUNGLE
p1854
aVMIDDLE
p1855
aVTOP
p1856
aVMIDDLE
p1857
aVBOTTOM
p1858
aVBOTTOM
p1859
aVJUNGLE
p1860
aVMIDDLE
p1861
aVTOP
p1862
aVBOTTOM
p1863
aVJUNGLE
p1864
aVBOTTOM
p1865
aVBOTTOM
p1866
aVBOTTOM
p1867
aVMIDDLE
p1868
aVJUNGLE
p1869
aVTOP
p1870
aVBOTTOM
p1871
aVMIDDLE
p1872
aVJUNGLE
p1873
aVBOTTOM
p1874
aVTOP
p1875
aVTOP
p1876
aVMIDDLE
p1877
aVJUNGLE
p1878
aVBOTTOM
p1879
aVBOTTOM
p1880
aVMIDDLE
p1881
aVBOTTOM
p1882
aVJUNGLE
p1883
aVTOP
p1884
aVBOTTOM
p1885
aVBOTTOM
p1886
aVTOP
p1887
aVJUNGLE
p1888
aVMIDDLE
p1889
aVBOTTOM
p1890
aVBOTTOM
p1891
aVBOTTOM
p1892
aVJUNGLE
p1893
aVTOP
p1894
aVMIDDLE
p1895
aVJUNGLE
p1896
aVMIDDLE
p1897
aVBOTTOM
p1898
aVTOP
p1899
aVBOTTOM
p1900
aVBOTTOM
p1901
aVTOP
p1902
aVBOTTOM
p1903
aVJUNGLE
p1904
aVMIDDLE
p1905
aVBOTTOM
p1906
aVTOP
p1907
aVMIDDLE
p1908
aVBOTTOM
p1909
aVMIDDLE
p1910
aVBOTTOM
p1911
aVTOP
p1912
aVJUNGLE
p1913
aVMIDDLE
p1914
aVBOTTOM
p1915
aVBOTTOM
p1916
aVTOP
p1917
aVJUNGLE
p1918
aVMIDDLE
p1919
aVBOTTOM
p1920
aVTOP
p1921
aVBOTTOM
p1922
aVBOTTOM
p1923
aVJUNGLE
p1924
aVMIDDLE
p1925
aVBOTTOM
p1926
aVMIDDLE
p1927
aVBOTTOM
p1928
aVJUNGLE
p1929
aVTOP
p1930
aVMIDDLE
p1931
aVBOTTOM
p1932
aVTOP
p1933
aVBOTTOM
p1934
aVJUNGLE
p1935
aVBOTTOM
p1936
aVBOTTOM
p1937
aVTOP
p1938
aVJUNGLE
p1939
aVMIDDLE
p1940
aVJUNGLE
p1941
aVTOP
p1942
aVBOTTOM
p1943
aVMIDDLE
p1944
aVBOTTOM
p1945
aVBOTTOM
p1946
aVTOP
p1947
aVBOTTOM
p1948
aVJUNGLE
p1949
aVMIDDLE
p1950
aVMIDDLE
p1951
aVJUNGLE
p1952
aVBOTTOM
p1953
aVBOTTOM
p1954
aVTOP
p1955
aVMIDDLE
p1956
aVTOP
p1957
aVBOTTOM
p1958
aVBOTTOM
p1959
aVJUNGLE
p1960
aVBOTTOM
p1961
aVJUNGLE
p1962
aVTOP
p1963
aVMIDDLE
p1964
aVBOTTOM
p1965
aVBOTTOM
p1966
aVTOP
p1967
aVJUNGLE
p1968
aVBOTTOM
p1969
aVMIDDLE
p1970
aVJUNGLE
p1971
aVBOTTOM
p1972
aVMIDDLE
p1973
aVBOTTOM
p1974
aVTOP
p1975
aVBOTTOM
p1976
aVJUNGLE
p1977
aVMIDDLE
p1978
aVTOP
p1979
aVBOTTOM
p1980
aVJUNGLE
p1981
aVBOTTOM
p1982
aVMIDDLE
p1983
aVBOTTOM
p1984
aVTOP
p1985
aVJUNGLE
p1986
aVBOTTOM
p1987
aVBOTTOM
p1988
aVMIDDLE
p1989
aVTOP
p1990
aVJUNGLE
p1991
aVBOTTOM
p1992
aVBOTTOM
p1993
aVTOP
p1994
aVMIDDLE
p1995
aVJUNGLE
p1996
aVTOP
p1997
aVBOTTOM
p1998
aVMIDDLE
p1999
aVBOTTOM
p2000
aVMIDDLE
p2001
aVMIDDLE
p2002
aVMIDDLE
p2003
aVMIDDLE
p2004
aVMIDDLE
p2005
aVBOTTOM
p2006
aVJUNGLE
p2007
aVBOTTOM
p2008
aVMIDDLE
p2009
aVTOP
p2010
aVJUNGLE
p2011
aVBOTTOM
p2012
aVBOTTOM
p2013
aVBOTTOM
p2014
aVJUNGLE
p2015
aVTOP
p2016
aVMIDDLE
p2017
aVBOTTOM
p2018
aVJUNGLE
p2019
aVBOTTOM
p2020
aVTOP
p2021
aVMIDDLE
p2022
aVBOTTOM
p2023
aVBOTTOM
p2024
aVMIDDLE
p2025
aVBOTTOM
p2026
aVTOP
p2027
aVJUNGLE
p2028
aVJUNGLE
p2029
aVBOTTOM
p2030
aVMIDDLE
p2031
aVTOP
p2032
aVBOTTOM
p2033
aVTOP
p2034
aVBOTTOM
p2035
aVBOTTOM
p2036
aVMIDDLE
p2037
aVJUNGLE
p2038
aVBOTTOM
p2039
aVJUNGLE
p2040
aVJUNGLE
p2041
aVTOP
p2042
aVJUNGLE
p2043
aVTOP
p2044
aVJUNGLE
p2045
aVBOTTOM
p2046
aVMIDDLE
p2047
aVBOTTOM
p2048
aVBOTTOM
p2049
aVBOTTOM
p2050
aVJUNGLE
p2051
aVTOP
p2052
aVMIDDLE
p2053
aVBOTTOM
p2054
aVBOTTOM
p2055
aVMIDDLE
p2056
aVTOP
p2057
aVJUNGLE
p2058
aVMIDDLE
p2059
aVTOP
p2060
aVJUNGLE
p2061
aVBOTTOM
p2062
aVBOTTOM
p2063
aVBOTTOM
p2064
aVTOP
p2065
aVMIDDLE
p2066
aVBOTTOM
p2067
aVJUNGLE
p2068
aVBOTTOM
p2069
aVBOTTOM
p2070
aVJUNGLE
p2071
aVTOP
p2072
aVMIDDLE
p2073
aVBOTTOM
p2074
aVMIDDLE
p2075
aVJUNGLE
p2076
aVBOTTOM
p2077
aVTOP
p2078
aVTOP
p2079
aVBOTTOM
p2080
aVBOTTOM
p2081
aVJUNGLE
p2082
aVMIDDLE
p2083
aVTOP
p2084
aVBOTTOM
p2085
aVBOTTOM
p2086
aVJUNGLE
p2087
aVMIDDLE
p2088
aVBOTTOM
p2089
aVMIDDLE
p2090
aVBOTTOM
p2091
aVTOP
p2092
aVJUNGLE
p2093
aVMIDDLE
p2094
aVJUNGLE
p2095
aVBOTTOM
p2096
aVBOTTOM
p2097
aVJUNGLE
p2098
aVBOTTOM
p2099
aVMIDDLE
p2100
aVTOP
p2101
aVJUNGLE
p2102
aVBOTTOM
p2103
aVMIDDLE
p2104
aVBOTTOM
p2105
aVBOTTOM
p2106
aVJUNGLE
p2107
aVTOP
p2108
aVJUNGLE
p2109
aVBOTTOM
p2110
aVBOTTOM
p2111
aVMIDDLE
p2112
aVTOP
p2113
aVMIDDLE
p2114
aVBOTTOM
p2115
aVBOTTOM
p2116
aVTOP
p2117
aVJUNGLE
p2118
aVJUNGLE
p2119
aVBOTTOM
p2120
aVMIDDLE
p2121
aVTOP
p2122
aVBOTTOM
p2123
aVBOTTOM
p2124
aVMIDDLE
p2125
aVTOP
p2126
aVJUNGLE
p2127
aVBOTTOM
p2128
aVTOP
p2129
aVBOTTOM
p2130
aVMIDDLE
p2131
aVJUNGLE
p2132
aVBOTTOM
p2133
aVBOTTOM
p2134
aVBOTTOM
p2135
aVTOP
p2136
aVJUNGLE
p2137
aVMIDDLE
p2138
aVBOTTOM
p2139
aVMIDDLE
p2140
aVTOP
p2141
aVBOTTOM
p2142
aVJUNGLE
p2143
aVJUNGLE
p2144
aVMIDDLE
p2145
aVTOP
p2146
aVBOTTOM
p2147
aVBOTTOM
p2148
aVMIDDLE
p2149
aVJUNGLE
p2150
aVBOTTOM
p2151
aVBOTTOM
p2152
aVTOP
p2153
aVMIDDLE
p2154
aVJUNGLE
p2155
aVTOP
p2156
aVBOTTOM
p2157
aVBOTTOM
p2158
aVTOP
p2159
aVJUNGLE
p2160
aVBOTTOM
p2161
aVMIDDLE
p2162
aVBOTTOM
p2163
aVBOTTOM
p2164
aVMIDDLE
p2165
aVTOP
p2166
aVBOTTOM
p2167
aVMIDDLE
p2168
aVJUNGLE
p2169
aVJUNGLE
p2170
aVMIDDLE
p2171
aVBOTTOM
p2172
aVBOTTOM
p2173
aVBOTTOM
p2174
aVBOTTOM
p2175
aVTOP
p2176
aVJUNGLE
p2177
aVMIDDLE
p2178
aVBOTTOM
p2179
aVTOP
p2180
aVBOTTOM
p2181
aVJUNGLE
p2182
aVMIDDLE
p2183
aVBOTTOM
p2184
aVBOTTOM
p2185
aVJUNGLE
p2186
aVMIDDLE
p2187
aVTOP
p2188
aVMIDDLE
p2189
aVTOP
p2190
aVBOTTOM
p2191
aVJUNGLE
p2192
aVBOTTOM
p2193
aVBOTTOM
p2194
aVJUNGLE
p2195
aVTOP
p2196
aVBOTTOM
p2197
aVMIDDLE
p2198
aVMIDDLE
p2199
aVBOTTOM
p2200
aVMIDDLE
p2201
aVBOTTOM
p2202
aVTOP
p2203
aVMIDDLE
p2204
aVTOP
p2205
aVBOTTOM
p2206
aVJUNGLE
p2207
aVBOTTOM
p2208
aVTOP
p2209
aVJUNGLE
p2210
aVMIDDLE
p2211
aVBOTTOM
p2212
aVBOTTOM
p2213
aVBOTTOM
p2214
aVBOTTOM
p2215
aVTOP
p2216
aVJUNGLE
p2217
aVMIDDLE
p2218
aVBOTTOM
p2219
aVMIDDLE
p2220
aVTOP
p2221
aVBOTTOM
p2222
aVJUNGLE
p2223
aVTOP
p2224
aVMIDDLE
p2225
aVBOTTOM
p2226
aVBOTTOM
p2227
aVJUNGLE
p2228
aVMIDDLE
p2229
aVJUNGLE
p2230
aVJUNGLE
p2231
aVBOTTOM
p2232
aVMIDDLE
p2233
aVJUNGLE
p2234
aVTOP
p2235
aVBOTTOM
p2236
aVBOTTOM
p2237
aVTOP
p2238
aVJUNGLE
p2239
aVBOTTOM
p2240
aVMIDDLE
p2241
aVBOTTOM
p2242
aVTOP
p2243
aVMIDDLE
p2244
aVJUNGLE
p2245
aVBOTTOM
p2246
aVJUNGLE
p2247
aVBOTTOM
p2248
aVMIDDLE
p2249
aVBOTTOM
p2250
aVTOP
p2251
aVMIDDLE
p2252
aVJUNGLE
p2253
aVBOTTOM
p2254
aVTOP
p2255
aVBOTTOM
p2256
aVJUNGLE
p2257
aVJUNGLE
p2258
aVJUNGLE
p2259
aVJUNGLE
p2260
aVTOP
p2261
aVMIDDLE
p2262
aVBOTTOM
p2263
aVBOTTOM
p2264
aVBOTTOM
p2265
aVTOP
p2266
aVJUNGLE
p2267
aVBOTTOM
p2268
aVMIDDLE
p2269
aVTOP
p2270
aVMIDDLE
p2271
aVBOTTOM
p2272
aVJUNGLE
p2273
aVBOTTOM
p2274
aVBOTTOM
p2275
aVMIDDLE
p2276
aVJUNGLE
p2277
aVTOP
p2278
aVBOTTOM
p2279
aVTOP
p2280
aVBOTTOM
p2281
aVBOTTOM
p2282
aVMIDDLE
p2283
aVJUNGLE
p2284
aVMIDDLE
p2285
aVBOTTOM
p2286
aVJUNGLE
p2287
aVTOP
p2288
aVBOTTOM
p2289
aVJUNGLE
p2290
aVMIDDLE
p2291
aVBOTTOM
p2292
aVTOP
p2293
aVBOTTOM
p2294
aVBOTTOM
p2295
aVBOTTOM
p2296
aVMIDDLE
p2297
aVJUNGLE
p2298
aVTOP
p2299
aVJUNGLE
p2300
aVTOP
p2301
aVJUNGLE
p2302
aVJUNGLE
p2303
aVMIDDLE
p2304
aVJUNGLE
p2305
aVMIDDLE
p2306
aVBOTTOM
p2307
aVBOTTOM
p2308
aVTOP
p2309
aVTOP
p2310
aVMIDDLE
p2311
aVJUNGLE
p2312
aVBOTTOM
p2313
aVBOTTOM
p2314
aVTOP
p2315
aVBOTTOM
p2316
aVBOTTOM
p2317
aVMIDDLE
p2318
aVJUNGLE
p2319
aVJUNGLE
p2320
aVTOP
p2321
aVBOTTOM
p2322
aVMIDDLE
p2323
aVBOTTOM
p2324
aVMIDDLE
p2325
aVTOP
p2326
aVBOTTOM
p2327
aVJUNGLE
p2328
aVBOTTOM
p2329
aVMIDDLE
p2330
aVTOP
p2331
aVBOTTOM
p2332
aVBOTTOM
p2333
aVJUNGLE
p2334
aVMIDDLE
p2335
aVTOP
p2336
aVBOTTOM
p2337
aVJUNGLE
p2338
aVBOTTOM
p2339
aVMIDDLE
p2340
aVJUNGLE
p2341
aVTOP
p2342
aVBOTTOM
p2343
aVBOTTOM
p2344
aVJUNGLE
p2345
aVTOP
p2346
aVBOTTOM
p2347
aVMIDDLE
p2348
aVBOTTOM
p2349
aVBOTTOM
p2350
aVBOTTOM
p2351
aVJUNGLE
p2352
aVTOP
p2353
aVMIDDLE
p2354
aVTOP
p2355
aVJUNGLE
p2356
aVBOTTOM
p2357
aVBOTTOM
p2358
aVMIDDLE
p2359
aVBOTTOM
p2360
aVBOTTOM
p2361
aVJUNGLE
p2362
aVMIDDLE
p2363
aVTOP
p2364
aVJUNGLE
p2365
aVMIDDLE
p2366
aVBOTTOM
p2367
aVBOTTOM
p2368
aVTOP
p2369
aVBOTTOM
p2370
aVMIDDLE
p2371
aVJUNGLE
p2372
aVBOTTOM
p2373
aVTOP
p2374
aVMIDDLE
p2375
aVBOTTOM
p2376
aVTOP
p2377
aVJUNGLE
p2378
aVBOTTOM
p2379
aVJUNGLE
p2380
aVTOP
p2381
aVBOTTOM
p2382
aVMIDDLE
p2383
aVBOTTOM
p2384
aVBOTTOM
p2385
aVTOP
p2386
aVMIDDLE
p2387
aVJUNGLE
p2388
aVBOTTOM
p2389
aVMIDDLE
p2390
aVJUNGLE
p2391
aVTOP
p2392
aVBOTTOM
p2393
aVJUNGLE
p2394
aVTOP
p2395
aVBOTTOM
p2396
aVMIDDLE
p2397
aVJUNGLE
p2398
aVBOTTOM
p2399
aVJUNGLE
p2400
aVMIDDLE
p2401
aVBOTTOM
p2402
aVTOP
p2403
aVBOTTOM
p2404
aVJUNGLE
p2405
aVBOTTOM
p2406
aVTOP
p2407
aVBOTTOM
p2408
aVMIDDLE
p2409
aVTOP
p2410
aVBOTTOM
p2411
aVBOTTOM
p2412
aVMIDDLE
p2413
aVJUNGLE
p2414
aVMIDDLE
p2415
aVTOP
p2416
aVBOTTOM
p2417
aVJUNGLE
p2418
aVBOTTOM
p2419
aVBOTTOM
p2420
aVJUNGLE
p2421
aVTOP
p2422
aVMIDDLE
p2423
aVJUNGLE
p2424
aVBOTTOM
p2425
aVMIDDLE
p2426
aVBOTTOM
p2427
aVJUNGLE
p2428
aVTOP
p2429
aVBOTTOM
p2430
aVJUNGLE
p2431
aVMIDDLE
p2432
aVBOTTOM
p2433
aVTOP
p2434
aVBOTTOM
p2435
aVTOP
p2436
aVBOTTOM
p2437
aVJUNGLE
p2438
aVMIDDLE
p2439
aVBOTTOM
p2440
aVBOTTOM
p2441
aVTOP
p2442
aVMIDDLE
p2443
aVJUNGLE
p2444
aVJUNGLE
p2445
aVBOTTOM
p2446
aVTOP
p2447
aVMIDDLE
p2448
aVBOTTOM
p2449
a.