(lp0
VDUO_CARRY
p1
aVDUO_SUPPORT
p2
aVNONE
p3
aVSOLO
p4
aVSOLO
p5
aVNONE
p6
aVDUO_SUPPORT
p7
aVDUO_CARRY
p8
aVSOLO
p9
aVSOLO
p10
aVSOLO
p11
aVDUO_CARRY
p12
aVSOLO
p13
aVNONE
p14
aVDUO_SUPPORT
p15
aVNONE
p16
aVSOLO
p17
aVDUO_SUPPORT
p18
aVSOLO
p19
aVDUO_CARRY
p20
aVNONE
p21
aVDUO_CARRY
p22
aVSOLO
p23
aVDUO_SUPPORT
p24
aVSOLO
p25
aVDUO_CARRY
p26
aVNONE
p27
aVSOLO
p28
aVDUO_SUPPORT
p29
aVSOLO
p30
aVNONE
p31
aVSOLO
p32
aVSOLO
p33
aVNONE
p34
aVNONE
p35
aVSOLO
p36
aVNONE
p37
aVNONE
p38
aVNONE
p39
aVNONE
p40
aVNONE
p41
aVDUO_CARRY
p42
aVSOLO
p43
aVDUO_SUPPORT
p44
aVSOLO
p45
aVNONE
p46
aVDUO_SUPPORT
p47
aVSOLO
p48
aVSOLO
p49
aVDUO_CARRY
p50
aVSOLO
p51
aVDUO
p52
aVDUO
p53
aVDUO
p54
aVDUO
p55
aVDUO
p56
aVSOLO
p57
aVNONE
p58
aVNONE
p59
aVDUO
p60
aVSOLO
p61
aVDUO_SUPPORT
p62
aVNONE
p63
aVDUO_CARRY
p64
aVSOLO
p65
aVNONE
p66
aVDUO_CARRY
p67
aVDUO_SUPPORT
p68
aVSOLO
p69
aVSOLO
p70
aVSOLO
p71
aVDUO_CARRY
p72
aVNONE
p73
aVSOLO
p74
aVDUO_SUPPORT
p75
aVSOLO
p76
aVDUO_CARRY
p77
aVDUO_SUPPORT
p78
aVSOLO
p79
aVNONE
p80
aVDUO_CARRY
p81
aVDUO_SUPPORT
p82
aVSOLO
p83
aVNONE
p84
aVSOLO
p85
aVNONE
p86
aVSOLO
p87
aVDUO_SUPPORT
p88
aVDUO_CARRY
p89
aVSOLO
p90
aVNONE
p91
aVSOLO
p92
aVSOLO
p93
aVDUO_SUPPORT
p94
aVDUO_CARRY
p95
aVDUO_CARRY
p96
aVSOLO
p97
aVSOLO
p98
aVNONE
p99
aVDUO_SUPPORT
p100
aVDUO_SUPPORT
p101
aVSOLO
p102
aVNONE
p103
aVSOLO
p104
aVDUO_CARRY
p105
aVSOLO
p106
aVDUO_CARRY
p107
aVDUO_SUPPORT
p108
aVNONE
p109
aVSOLO
p110
aVDUO_CARRY
p111
aVSOLO
p112
aVNONE
p113
aVSOLO
p114
aVDUO_SUPPORT
p115
aVNONE
p116
aVSOLO
p117
aVSOLO
p118
aVDUO_CARRY
p119
aVDUO_SUPPORT
p120
aVNONE
p121
aVSOLO
p122
aVDUO_SUPPORT
p123
aVSOLO
p124
aVDUO_CARRY
p125
aVDUO_CARRY
p126
aVDUO_SUPPORT
p127
aVNONE
p128
aVNONE
p129
aVSOLO
p130
aVSOLO
p131
aVNONE
p132
aVDUO_SUPPORT
p133
aVSOLO
p134
aVDUO_CARRY
p135
aVSOLO
p136
aVDUO_SUPPORT
p137
aVSOLO
p138
aVDUO_CARRY
p139
aVNONE
p140
aVDUO_CARRY
p141
aVDUO_SUPPORT
p142
aVNONE
p143
aVSOLO
p144
aVSOLO
p145
aVSOLO
p146
aVSOLO
p147
aVNONE
p148
aVDUO_SUPPORT
p149
aVDUO_CARRY
p150
aVDUO_CARRY
p151
aVDUO_SUPPORT
p152
aVNONE
p153
aVSOLO
p154
aVSOLO
p155
aVSOLO
p156
aVSOLO
p157
aVDUO_CARRY
p158
aVDUO_SUPPORT
p159
aVNONE
p160
aVDUO_CARRY
p161
aVNONE
p162
aVDUO_SUPPORT
p163
aVSOLO
p164
aVSOLO
p165
aVSOLO
p166
aVDUO_CARRY
p167
aVNONE
p168
aVSOLO
p169
aVDUO_SUPPORT
p170
aVDUO_CARRY
p171
aVNONE
p172
aVSOLO
p173
aVNONE
p174
aVDUO_SUPPORT
p175
aVSOLO
p176
aVDUO_SUPPORT
p177
aVSOLO
p178
aVNONE
p179
aVDUO_CARRY
p180
aVDUO_CARRY
p181
aVSOLO
p182
aVSOLO
p183
aVDUO_SUPPORT
p184
aVNONE
p185
aVSOLO
p186
aVSOLO
p187
aVDUO_CARRY
p188
aVNONE
p189
aVDUO_SUPPORT
p190
aVSOLO
p191
aVDUO_CARRY
p192
aVDUO_SUPPORT
p193
aVNONE
p194
aVSOLO
p195
aVSOLO
p196
aVNONE
p197
aVDUO_CARRY
p198
aVDUO_SUPPORT
p199
aVSOLO
p200
aVNONE
p201
aVDUO_SUPPORT
p202
aVSOLO
p203
aVDUO_CARRY
p204
aVSOLO
p205
aVSOLO
p206
aVNONE
p207
aVDUO_SUPPORT
p208
aVDUO_CARRY
p209
aVSOLO
p210
aVNONE
p211
aVNONE
p212
aVNONE
p213
aVDUO
p214
aVDUO
p215
aVNONE
p216
aVDUO_CARRY
p217
aVNONE
p218
aVSOLO
p219
aVSOLO
p220
aVDUO_SUPPORT
p221
aVNONE
p222
aVDUO_CARRY
p223
aVSOLO
p224
aVSOLO
p225
aVDUO_SUPPORT
p226
aVSOLO
p227
aVDUO
p228
aVNONE
p229
aVDUO
p230
aVSOLO
p231
aVSOLO
p232
aVDUO_CARRY
p233
aVSOLO
p234
aVDUO_SUPPORT
p235
aVNONE
p236
aVDUO_CARRY
p237
aVNONE
p238
aVNONE
p239
aVNONE
p240
aVDUO_SUPPORT
p241
aVSOLO
p242
aVNONE
p243
aVDUO_SUPPORT
p244
aVDUO_CARRY
p245
aVSOLO
p246
aVSOLO
p247
aVNONE
p248
aVSOLO
p249
aVNONE
p250
aVSOLO
p251
aVNONE
p252
aVNONE
p253
aVSOLO
p254
aVSOLO
p255
aVNONE
p256
aVSOLO
p257
aVNONE
p258
aVDUO_SUPPORT
p259
aVDUO_CARRY
p260
aVSOLO
p261
aVNONE
p262
aVSOLO
p263
aVDUO_CARRY
p264
aVDUO_SUPPORT
p265
aVSOLO
p266
aVDUO
p267
aVDUO
p268
aVNONE
p269
aVSOLO
p270
aVNONE
p271
aVNONE
p272
aVDUO
p273
aVSOLO
p274
aVDUO
p275
aVSOLO
p276
aVSOLO
p277
aVDUO
p278
aVSOLO
p279
aVDUO
p280
aVNONE
p281
aVSOLO
p282
aVDUO
p283
aVDUO
p284
aVDUO
p285
aVDUO
p286
aVNONE
p287
aVSOLO
p288
aVSOLO
p289
aVDUO_CARRY
p290
aVDUO_SUPPORT
p291
aVDUO_SUPPORT
p292
aVSOLO
p293
aVNONE
p294
aVDUO_CARRY
p295
aVSOLO
p296
aVDUO_SUPPORT
p297
aVNONE
p298
aVDUO_CARRY
p299
aVSOLO
p300
aVSOLO
p301
aVDUO_CARRY
p302
aVNONE
p303
aVSOLO
p304
aVSOLO
p305
aVDUO_SUPPORT
p306
aVNONE
p307
aVDUO_CARRY
p308
aVSOLO
p309
aVSOLO
p310
aVDUO_SUPPORT
p311
aVDUO_SUPPORT
p312
aVSOLO
p313
aVNONE
p314
aVSOLO
p315
aVDUO_CARRY
p316
aVDUO_SUPPORT
p317
aVDUO_CARRY
p318
aVSOLO
p319
aVNONE
p320
aVSOLO
p321
aVDUO_CARRY
p322
aVNONE
p323
aVSOLO
p324
aVSOLO
p325
aVDUO_SUPPORT
p326
aVNONE
p327
aVDUO_CARRY
p328
aVSOLO
p329
aVSOLO
p330
aVDUO_SUPPORT
p331
aVDUO_CARRY
p332
aVSOLO
p333
aVDUO_SUPPORT
p334
aVSOLO
p335
aVNONE
p336
aVDUO_SUPPORT
p337
aVDUO_CARRY
p338
aVSOLO
p339
aVSOLO
p340
aVNONE
p341
aVSOLO
p342
aVSOLO
p343
aVDUO_SUPPORT
p344
aVNONE
p345
aVDUO_CARRY
p346
aVSOLO
p347
aVNONE
p348
aVDUO_SUPPORT
p349
aVDUO_CARRY
p350
aVSOLO
p351
aVNONE
p352
aVSOLO
p353
aVSOLO
p354
aVDUO_CARRY
p355
aVDUO_SUPPORT
p356
aVDUO_SUPPORT
p357
aVSOLO
p358
aVNONE
p359
aVDUO_CARRY
p360
aVSOLO
p361
aVSOLO
p362
aVDUO_SUPPORT
p363
aVNONE
p364
aVDUO_CARRY
p365
aVSOLO
p366
aVNONE
p367
aVSOLO
p368
aVDUO_CARRY
p369
aVSOLO
p370
aVDUO_SUPPORT
p371
aVSOLO
p372
aVDUO_CARRY
p373
aVDUO_SUPPORT
p374
aVNONE
p375
aVSOLO
p376
aVDUO_CARRY
p377
aVNONE
p378
aVDUO_SUPPORT
p379
aVSOLO
p380
aVSOLO
p381
aVDUO_SUPPORT
p382
aVSOLO
p383
aVNONE
p384
aVDUO_CARRY
p385
aVSOLO
p386
aVNONE
p387
aVSOLO
p388
aVSOLO
p389
aVDUO_SUPPORT
p390
aVDUO_CARRY
p391
aVSOLO
p392
aVSOLO
p393
aVDUO_SUPPORT
p394
aVDUO_CARRY
p395
aVNONE
p396
aVSOLO
p397
aVDUO_SUPPORT
p398
aVDUO_CARRY
p399
aVNONE
p400
aVSOLO
p401
aVDUO_CARRY
p402
aVSOLO
p403
aVSOLO
p404
aVNONE
p405
aVDUO_SUPPORT
p406
aVSOLO
p407
aVDUO_CARRY
p408
aVSOLO
p409
aVNONE
p410
aVDUO_SUPPORT
p411
aVNONE
p412
aVDUO_CARRY
p413
aVNONE
p414
aVSOLO
p415
aVDUO_SUPPORT
p416
aVDUO_CARRY
p417
aVSOLO
p418
aVSOLO
p419
aVDUO_SUPPORT
p420
aVNONE
p421
aVDUO_SUPPORT
p422
aVSOLO
p423
aVDUO_CARRY
p424
aVNONE
p425
aVSOLO
p426
aVDUO_CARRY
p427
aVSOLO
p428
aVNONE
p429
aVDUO_SUPPORT
p430
aVSOLO
p431
aVSOLO
p432
aVDUO_CARRY
p433
aVSOLO
p434
aVNONE
p435
aVDUO_SUPPORT
p436
aVNONE
p437
aVDUO_SUPPORT
p438
aVDUO_CARRY
p439
aVSOLO
p440
aVSOLO
p441
aVDUO_CARRY
p442
aVNONE
p443
aVDUO_SUPPORT
p444
aVSOLO
p445
aVSOLO
p446
aVSOLO
p447
aVDUO_CARRY
p448
aVSOLO
p449
aVNONE
p450
aVDUO_SUPPORT
p451
aVNONE
p452
aVNONE
p453
aVSOLO
p454
aVNONE
p455
aVSOLO
p456
aVNONE
p457
aVNONE
p458
aVDUO_CARRY
p459
aVDUO_SUPPORT
p460
aVSOLO
p461
aVNONE
p462
aVSOLO
p463
aVDUO_CARRY
p464
aVDUO_SUPPORT
p465
aVNONE
p466
aVDUO_CARRY
p467
aVNONE
p468
aVDUO_SUPPORT
p469
aVSOLO
p470
aVSOLO
p471
aVSOLO
p472
aVSOLO
p473
aVDUO_CARRY
p474
aVDUO_SUPPORT
p475
aVNONE
p476
aVDUO_SUPPORT
p477
aVDUO_CARRY
p478
aVNONE
p479
aVSOLO
p480
aVSOLO
p481
aVDUO_SUPPORT
p482
aVSOLO
p483
aVDUO_CARRY
p484
aVNONE
p485
aVSOLO
p486
aVDUO_CARRY
p487
aVSOLO
p488
aVDUO_SUPPORT
p489
aVNONE
p490
aVSOLO
p491
aVNONE
p492
aVSOLO
p493
aVSOLO
p494
aVDUO_CARRY
p495
aVDUO_SUPPORT
p496
aVSOLO
p497
aVDUO_CARRY
p498
aVNONE
p499
aVDUO_SUPPORT
p500
aVSOLO
p501
aVDUO_SUPPORT
p502
aVSOLO
p503
aVNONE
p504
aVDUO_CARRY
p505
aVSOLO
p506
aVSOLO
p507
aVDUO_CARRY
p508
aVSOLO
p509
aVDUO_SUPPORT
p510
aVNONE
p511
aVNONE
p512
aVSOLO
p513
aVSOLO
p514
aVDUO_SUPPORT
p515
aVDUO_CARRY
p516
aVNONE
p517
aVSOLO
p518
aVSOLO
p519
aVDUO_SUPPORT
p520
aVDUO_CARRY
p521
aVNONE
p522
aVDUO_SUPPORT
p523
aVDUO_CARRY
p524
aVSOLO
p525
aVNONE
p526
aVSOLO
p527
aVDUO_CARRY
p528
aVSOLO
p529
aVNONE
p530
aVDUO_SUPPORT
p531
aVNONE
p532
aVDUO_CARRY
p533
aVSOLO
p534
aVDUO_SUPPORT
p535
aVSOLO
p536
aVDUO_SUPPORT
p537
aVNONE
p538
aVDUO_CARRY
p539
aVSOLO
p540
aVSOLO
p541
aVDUO_CARRY
p542
aVSOLO
p543
aVDUO_SUPPORT
p544
aVSOLO
p545
aVNONE
p546
aVNONE
p547
aVSOLO
p548
aVNONE
p549
aVDUO_CARRY
p550
aVDUO_SUPPORT
p551
aVNONE
p552
aVDUO_CARRY
p553
aVSOLO
p554
aVDUO_SUPPORT
p555
aVSOLO
p556
aVSOLO
p557
aVSOLO
p558
aVDUO_CARRY
p559
aVNONE
p560
aVDUO_SUPPORT
p561
aVNONE
p562
aVDUO_SUPPORT
p563
aVSOLO
p564
aVSOLO
p565
aVDUO_CARRY
p566
aVSOLO
p567
aVDUO_CARRY
p568
aVNONE
p569
aVSOLO
p570
aVDUO_SUPPORT
p571
aVDUO_SUPPORT
p572
aVDUO_CARRY
p573
aVSOLO
p574
aVSOLO
p575
aVNONE
p576
aVDUO_SUPPORT
p577
aVSOLO
p578
aVDUO_SUPPORT
p579
aVDUO_CARRY
p580
aVDUO_CARRY
p581
aVNONE
p582
aVSOLO
p583
aVDUO_SUPPORT
p584
aVSOLO
p585
aVDUO_CARRY
p586
aVSOLO
p587
aVSOLO
p588
aVDUO_CARRY
p589
aVNONE
p590
aVDUO_SUPPORT
p591
aVSOLO
p592
aVSOLO
p593
aVNONE
p594
aVSOLO
p595
aVNONE
p596
aVDUO_SUPPORT
p597
aVDUO_CARRY
p598
aVNONE
p599
aVSOLO
p600
aVSOLO
p601
aVSOLO
p602
aVDUO_SUPPORT
p603
aVNONE
p604
aVDUO_CARRY
p605
aVSOLO
p606
aVSOLO
p607
aVNONE
p608
aVSOLO
p609
aVDUO_SUPPORT
p610
aVDUO_CARRY
p611
aVNONE
p612
aVSOLO
p613
aVDUO_SUPPORT
p614
aVDUO_CARRY
p615
aVSOLO
p616
aVSOLO
p617
aVDUO
p618
aVNONE
p619
aVSOLO
p620
aVDUO
p621
aVNONE
p622
aVSOLO
p623
aVDUO_SUPPORT
p624
aVDUO_CARRY
p625
aVSOLO
p626
aVSOLO
p627
aVDUO_SUPPORT
p628
aVNONE
p629
aVSOLO
p630
aVDUO_CARRY
p631
aVNONE
p632
aVSOLO
p633
aVDUO_CARRY
p634
aVSOLO
p635
aVDUO_SUPPORT
p636
aVSOLO
p637
aVDUO_CARRY
p638
aVSOLO
p639
aVNONE
p640
aVDUO_SUPPORT
p641
aVDUO_CARRY
p642
aVDUO_SUPPORT
p643
aVDUO_SUPPORT
p644
aVSOLO
p645
aVDUO_CARRY
p646
aVSOLO
p647
aVNONE
p648
aVDUO_CARRY
p649
aVDUO_SUPPORT
p650
aVSOLO
p651
aVNONE
p652
aVDUO_CARRY
p653
aVSOLO
p654
aVDUO_SUPPORT
p655
aVSOLO
p656
aVSOLO
p657
aVSOLO
p658
aVNONE
p659
aVDUO_CARRY
p660
aVDUO_SUPPORT
p661
aVNONE
p662
aVDUO_SUPPORT
p663
aVSOLO
p664
aVDUO_CARRY
p665
aVSOLO
p666
aVNONE
p667
aVSOLO
p668
aVDUO_CARRY
p669
aVDUO_SUPPORT
p670
aVNONE
p671
aVDUO_SUPPORT
p672
aVDUO_CARRY
p673
aVSOLO
p674
aVSOLO
p675
aVNONE
p676
aVDUO_SUPPORT
p677
aVDUO_CARRY
p678
aVNONE
p679
aVSOLO
p680
aVSOLO
p681
aVSOLO
p682
aVDUO_CARRY
p683
aVDUO_SUPPORT
p684
aVSOLO
p685
aVNONE
p686
aVDUO_SUPPORT
p687
aVSOLO
p688
aVDUO_CARRY
p689
aVNONE
p690
aVSOLO
p691
aVNONE
p692
aVSOLO
p693
aVNONE
p694
aVDUO_SUPPORT
p695
aVDUO_CARRY
p696
aVNONE
p697
aVSOLO
p698
aVSOLO
p699
aVDUO_CARRY
p700
aVDUO_SUPPORT
p701
aVSOLO
p702
aVSOLO
p703
aVDUO_CARRY
p704
aVNONE
p705
aVDUO_SUPPORT
p706
aVSOLO
p707
aVNONE
p708
aVSOLO
p709
aVDUO_CARRY
p710
aVDUO_SUPPORT
p711
aVDUO_CARRY
p712
aVNONE
p713
aVDUO_SUPPORT
p714
aVSOLO
p715
aVSOLO
p716
aVDUO_SUPPORT
p717
aVSOLO
p718
aVDUO_CARRY
p719
aVNONE
p720
aVSOLO
p721
aVDUO_CARRY
p722
aVDUO_SUPPORT
p723
aVNONE
p724
aVSOLO
p725
aVSOLO
p726
aVNONE
p727
aVNONE
p728
aVSOLO
p729
aVNONE
p730
aVNONE
p731
aVNONE
p732
aVNONE
p733
aVNONE
p734
aVNONE
p735
aVSOLO
p736
aVDUO
p737
aVSOLO
p738
aVNONE
p739
aVDUO
p740
aVSOLO
p741
aVSOLO
p742
aVSOLO
p743
aVDUO_CARRY
p744
aVNONE
p745
aVDUO_SUPPORT
p746
aVSOLO
p747
aVDUO_CARRY
p748
aVDUO_SUPPORT
p749
aVNONE
p750
aVSOLO
p751
aVSOLO
p752
aVDUO_SUPPORT
p753
aVSOLO
p754
aVDUO_CARRY
p755
aVNONE
p756
aVDUO_CARRY
p757
aVSOLO
p758
aVNONE
p759
aVSOLO
p760
aVDUO_SUPPORT
p761
aVDUO_SUPPORT
p762
aVNONE
p763
aVDUO_CARRY
p764
aVSOLO
p765
aVSOLO
p766
aVDUO_SUPPORT
p767
aVSOLO
p768
aVNONE
p769
aVSOLO
p770
aVDUO_CARRY
p771
aVDUO_CARRY
p772
aVNONE
p773
aVSOLO
p774
aVDUO_SUPPORT
p775
aVSOLO
p776
aVSOLO
p777
aVDUO_CARRY
p778
aVNONE
p779
aVSOLO
p780
aVDUO_SUPPORT
p781
aVDUO_CARRY
p782
aVDUO_SUPPORT
p783
aVSOLO
p784
aVSOLO
p785
aVNONE
p786
aVSOLO
p787
aVSOLO
p788
aVNONE
p789
aVDUO_SUPPORT
p790
aVDUO_CARRY
p791
aVSOLO
p792
aVNONE
p793
aVDUO_SUPPORT
p794
aVDUO_CARRY
p795
aVSOLO
p796
aVSOLO
p797
aVNONE
p798
aVSOLO
p799
aVDUO_CARRY
p800
aVDUO_SUPPORT
p801
aVSOLO
p802
aVNONE
p803
aVDUO_CARRY
p804
aVSOLO
p805
aVDUO_SUPPORT
p806
aVSOLO
p807
aVNONE
p808
aVDUO_CARRY
p809
aVSOLO
p810
aVDUO_SUPPORT
p811
aVSOLO
p812
aVNONE
p813
aVDUO_SUPPORT
p814
aVSOLO
p815
aVDUO_CARRY
p816
aVNONE
p817
aVDUO_SUPPORT
p818
aVDUO_CARRY
p819
aVSOLO
p820
aVSOLO
p821
aVNONE
p822
aVSOLO
p823
aVDUO_SUPPORT
p824
aVDUO_CARRY
p825
aVSOLO
p826
aVDUO_CARRY
p827
aVSOLO
p828
aVSOLO
p829
aVNONE
p830
aVDUO_SUPPORT
p831
aVNONE
p832
aVDUO_SUPPORT
p833
aVSOLO
p834
aVSOLO
p835
aVDUO_CARRY
p836
aVDUO_SUPPORT
p837
aVDUO_CARRY
p838
aVDUO_SUPPORT
p839
aVDUO_CARRY
p840
aVSOLO
p841
aVSOLO
p842
aVNONE
p843
aVSOLO
p844
aVDUO_CARRY
p845
aVDUO_SUPPORT
p846
aVSOLO
p847
aVSOLO
p848
aVDUO_CARRY
p849
aVDUO_SUPPORT
p850
aVNONE
p851
aVSOLO
p852
aVDUO_SUPPORT
p853
aVDUO_CARRY
p854
aVNONE
p855
aVSOLO
p856
aVDUO_SUPPORT
p857
aVSOLO
p858
aVSOLO
p859
aVNONE
p860
aVDUO_CARRY
p861
aVNONE
p862
aVSOLO
p863
aVDUO_CARRY
p864
aVSOLO
p865
aVDUO_SUPPORT
p866
aVDUO_SUPPORT
p867
aVNONE
p868
aVSOLO
p869
aVSOLO
p870
aVDUO_CARRY
p871
aVDUO_CARRY
p872
aVSOLO
p873
aVDUO_SUPPORT
p874
aVNONE
p875
aVSOLO
p876
aVNONE
p877
aVSOLO
p878
aVDUO_CARRY
p879
aVDUO_SUPPORT
p880
aVSOLO
p881
aVSOLO
p882
aVNONE
p883
aVDUO_SUPPORT
p884
aVSOLO
p885
aVDUO_CARRY
p886
aVNONE
p887
aVSOLO
p888
aVDUO_CARRY
p889
aVDUO_SUPPORT
p890
aVSOLO
p891
aVDUO_CARRY
p892
aVSOLO
p893
aVDUO_SUPPORT
p894
aVSOLO
p895
aVNONE
p896
aVDUO_CARRY
p897
aVSOLO
p898
aVNONE
p899
aVDUO_SUPPORT
p900
aVSOLO
p901
aVSOLO
p902
aVDUO_CARRY
p903
aVDUO_SUPPORT
p904
aVSOLO
p905
aVNONE
p906
aVNONE
p907
aVDUO_SUPPORT
p908
aVSOLO
p909
aVDUO_CARRY
p910
aVSOLO
p911
aVNONE
p912
aVSOLO
p913
aVSOLO
p914
aVDUO_SUPPORT
p915
aVDUO_CARRY
p916
aVNONE
p917
aVSOLO
p918
aVDUO_SUPPORT
p919
aVSOLO
p920
aVDUO_CARRY
p921
aVNONE
p922
aVDUO_CARRY
p923
aVSOLO
p924
aVDUO_SUPPORT
p925
aVSOLO
p926
aVSOLO
p927
aVDUO_CARRY
p928
aVNONE
p929
aVSOLO
p930
aVDUO_SUPPORT
p931
aVDUO_CARRY
p932
aVDUO_SUPPORT
p933
aVSOLO
p934
aVSOLO
p935
aVNONE
p936
aVSOLO
p937
aVSOLO
p938
aVDUO_CARRY
p939
aVDUO_SUPPORT
p940
aVNONE
p941
aVSOLO
p942
aVNONE
p943
aVDUO_CARRY
p944
aVDUO_SUPPORT
p945
aVSOLO
p946
aVSOLO
p947
aVDUO_CARRY
p948
aVNONE
p949
aVDUO_SUPPORT
p950
aVSOLO
p951
aVDUO_SUPPORT
p952
aVSOLO
p953
aVNONE
p954
aVSOLO
p955
aVDUO_CARRY
p956
aVNONE
p957
aVDUO_CARRY
p958
aVSOLO
p959
aVDUO_SUPPORT
p960
aVSOLO
p961
aVNONE
p962
aVSOLO
p963
aVSOLO
p964
aVDUO_SUPPORT
p965
aVDUO_CARRY
p966
aVSOLO
p967
aVDUO_CARRY
p968
aVSOLO
p969
aVDUO_SUPPORT
p970
aVNONE
p971
aVDUO_CARRY
p972
aVSOLO
p973
aVNONE
p974
aVDUO_SUPPORT
p975
aVSOLO
p976
aVDUO_CARRY
p977
aVNONE
p978
aVDUO_SUPPORT
p979
aVSOLO
p980
aVSOLO
p981
aVSOLO
p982
aVDUO_CARRY
p983
aVNONE
p984
aVSOLO
p985
aVDUO_SUPPORT
p986
aVNONE
p987
aVSOLO
p988
aVSOLO
p989
aVDUO_SUPPORT
p990
aVDUO_CARRY
p991
aVDUO_SUPPORT
p992
aVSOLO
p993
aVNONE
p994
aVSOLO
p995
aVDUO_CARRY
p996
aVDUO_CARRY
p997
aVSOLO
p998
aVNONE
p999
aVDUO_SUPPORT
p1000
aVSOLO
p1001
aVNONE
p1002
aVDUO_SUPPORT
p1003
aVDUO_CARRY
p1004
aVSOLO
p1005
aVSOLO
p1006
aVSOLO
p1007
aVNONE
p1008
aVSOLO
p1009
aVDUO_CARRY
p1010
aVDUO_SUPPORT
p1011
aVDUO_CARRY
p1012
aVSOLO
p1013
aVDUO_SUPPORT
p1014
aVSOLO
p1015
aVNONE
p1016
aVDUO_CARRY
p1017
aVSOLO
p1018
aVDUO_SUPPORT
p1019
aVNONE
p1020
aVSOLO
p1021
aVSOLO
p1022
aVDUO_SUPPORT
p1023
aVNONE
p1024
aVDUO_CARRY
p1025
aVSOLO
p1026
aVSOLO
p1027
aVDUO_SUPPORT
p1028
aVNONE
p1029
aVSOLO
p1030
aVDUO_CARRY
p1031
aVSOLO
p1032
aVNONE
p1033
aVSOLO
p1034
aVDUO_CARRY
p1035
aVDUO_SUPPORT
p1036
aVNONE
p1037
aVDUO_CARRY
p1038
aVDUO_SUPPORT
p1039
aVSOLO
p1040
aVSOLO
p1041
aVSOLO
p1042
aVDUO_CARRY
p1043
aVDUO_SUPPORT
p1044
aVSOLO
p1045
aVNONE
p1046
aVSOLO
p1047
aVDUO_SUPPORT
p1048
aVDUO_CARRY
p1049
aVSOLO
p1050
aVNONE
p1051
aVDUO_SUPPORT
p1052
aVSOLO
p1053
aVDUO_CARRY
p1054
aVSOLO
p1055
aVNONE
p1056
aVSOLO
p1057
aVDUO_SUPPORT
p1058
aVSOLO
p1059
aVDUO_CARRY
p1060
aVNONE
p1061
aVDUO_SUPPORT
p1062
aVSOLO
p1063
aVSOLO
p1064
aVNONE
p1065
aVDUO_CARRY
p1066
aVSOLO
p1067
aVDUO_CARRY
p1068
aVDUO_SUPPORT
p1069
aVSOLO
p1070
aVNONE
p1071
aVNONE
p1072
aVSOLO
p1073
aVSOLO
p1074
aVDUO_CARRY
p1075
aVDUO_SUPPORT
p1076
aVDUO_SUPPORT
p1077
aVSOLO
p1078
aVNONE
p1079
aVSOLO
p1080
aVDUO_CARRY
p1081
aVSOLO
p1082
aVNONE
p1083
aVDUO_SUPPORT
p1084
aVDUO_CARRY
p1085
aVSOLO
p1086
aVNONE
p1087
aVSOLO
p1088
aVNONE
p1089
aVSOLO
p1090
aVSOLO
p1091
aVNONE
p1092
aVDUO_SUPPORT
p1093
aVSOLO
p1094
aVSOLO
p1095
aVDUO_CARRY
p1096
aVSOLO
p1097
aVDUO_CARRY
p1098
aVDUO_SUPPORT
p1099
aVNONE
p1100
aVSOLO
p1101
aVSOLO
p1102
aVSOLO
p1103
aVDUO_SUPPORT
p1104
aVDUO_CARRY
p1105
aVNONE
p1106
aVSOLO
p1107
aVNONE
p1108
aVDUO_CARRY
p1109
aVDUO_SUPPORT
p1110
aVSOLO
p1111
aVSOLO
p1112
aVDUO_SUPPORT
p1113
aVDUO_CARRY
p1114
aVSOLO
p1115
aVNONE
p1116
aVSOLO
p1117
aVSOLO
p1118
aVNONE
p1119
aVSOLO
p1120
aVNONE
p1121
aVSOLO
p1122
aVDUO_CARRY
p1123
aVDUO_SUPPORT
p1124
aVSOLO
p1125
aVNONE
p1126
aVSOLO
p1127
aVNONE
p1128
aVDUO_CARRY
p1129
aVDUO_SUPPORT
p1130
aVSOLO
p1131
aVNONE
p1132
aVDUO_CARRY
p1133
aVSOLO
p1134
aVDUO_SUPPORT
p1135
aVSOLO
p1136
aVNONE
p1137
aVSOLO
p1138
aVNONE
p1139
aVSOLO
p1140
aVSOLO
p1141
aVNONE
p1142
aVDUO_SUPPORT
p1143
aVDUO_CARRY
p1144
aVSOLO
p1145
aVSOLO
p1146
aVSOLO
p1147
aVDUO_SUPPORT
p1148
aVDUO_CARRY
p1149
aVNONE
p1150
aVSOLO
p1151
aVNONE
p1152
aVSOLO
p1153
aVDUO_CARRY
p1154
aVSOLO
p1155
aVDUO_SUPPORT
p1156
aVDUO_CARRY
p1157
aVDUO_SUPPORT
p1158
aVSOLO
p1159
aVSOLO
p1160
aVNONE
p1161
aVNONE
p1162
aVSOLO
p1163
aVSOLO
p1164
aVDUO_SUPPORT
p1165
aVDUO_CARRY
p1166
aVNONE
p1167
aVNONE
p1168
aVSOLO
p1169
aVDUO_SUPPORT
p1170
aVDUO_CARRY
p1171
aVSOLO
p1172
aVDUO_CARRY
p1173
aVSOLO
p1174
aVDUO_SUPPORT
p1175
aVNONE
p1176
aVDUO_SUPPORT
p1177
aVDUO_CARRY
p1178
aVSOLO
p1179
aVSOLO
p1180
aVNONE
p1181
aVSOLO
p1182
aVDUO_CARRY
p1183
aVSOLO
p1184
aVDUO_SUPPORT
p1185
aVNONE
p1186
aVDUO_SUPPORT
p1187
aVDUO_CARRY
p1188
aVSOLO
p1189
aVNONE
p1190
aVSOLO
p1191
aVDUO_CARRY
p1192
aVDUO_SUPPORT
p1193
aVNONE
p1194
aVSOLO
p1195
aVSOLO
p1196
aVDUO_CARRY
p1197
aVDUO_SUPPORT
p1198
aVNONE
p1199
aVSOLO
p1200
aVSOLO
p1201
aVNONE
p1202
aVDUO_CARRY
p1203
aVSOLO
p1204
aVSOLO
p1205
aVDUO_SUPPORT
p1206
aVSOLO
p1207
aVDUO_SUPPORT
p1208
aVNONE
p1209
aVSOLO
p1210
aVDUO_CARRY
p1211
aVDUO_CARRY
p1212
aVNONE
p1213
aVSOLO
p1214
aVSOLO
p1215
aVDUO_SUPPORT
p1216
aVDUO_SUPPORT
p1217
aVSOLO
p1218
aVSOLO
p1219
aVNONE
p1220
aVDUO_CARRY
p1221
aVNONE
p1222
aVSOLO
p1223
aVDUO_CARRY
p1224
aVSOLO
p1225
aVDUO_SUPPORT
p1226
aVSOLO
p1227
aVDUO_SUPPORT
p1228
aVDUO_CARRY
p1229
aVNONE
p1230
aVNONE
p1231
aVDUO_CARRY
p1232
aVDUO_SUPPORT
p1233
aVSOLO
p1234
aVSOLO
p1235
aVNONE
p1236
aVDUO_CARRY
p1237
aVNONE
p1238
aVSOLO
p1239
aVSOLO
p1240
aVDUO_SUPPORT
p1241
aVDUO_CARRY
p1242
aVSOLO
p1243
aVSOLO
p1244
aVDUO_SUPPORT
p1245
aVNONE
p1246
aVDUO_CARRY
p1247
aVNONE
p1248
aVSOLO
p1249
aVSOLO
p1250
aVDUO_SUPPORT
p1251
aVSOLO
p1252
aVDUO_SUPPORT
p1253
aVSOLO
p1254
aVDUO_CARRY
p1255
aVNONE
p1256
aVSOLO
p1257
aVSOLO
p1258
aVDUO_CARRY
p1259
aVDUO_SUPPORT
p1260
aVNONE
p1261
aVDUO_SUPPORT
p1262
aVSOLO
p1263
aVNONE
p1264
aVDUO_CARRY
p1265
aVSOLO
p1266
aVDUO_CARRY
p1267
aVNONE
p1268
aVSOLO
p1269
aVSOLO
p1270
aVDUO_SUPPORT
p1271
aVDUO_CARRY
p1272
aVNONE
p1273
aVSOLO
p1274
aVDUO_SUPPORT
p1275
aVSOLO
p1276
aVDUO_SUPPORT
p1277
aVDUO_CARRY
p1278
aVSOLO
p1279
aVSOLO
p1280
aVNONE
p1281
aVSOLO
p1282
aVSOLO
p1283
aVNONE
p1284
aVDUO_SUPPORT
p1285
aVDUO_CARRY
p1286
aVNONE
p1287
aVDUO_SUPPORT
p1288
aVSOLO
p1289
aVSOLO
p1290
aVDUO_CARRY
p1291
aVSOLO
p1292
aVDUO_CARRY
p1293
aVDUO_SUPPORT
p1294
aVNONE
p1295
aVSOLO
p1296
aVDUO_SUPPORT
p1297
aVSOLO
p1298
aVSOLO
p1299
aVDUO_CARRY
p1300
aVNONE
p1301
aVNONE
p1302
aVDUO_SUPPORT
p1303
aVSOLO
p1304
aVSOLO
p1305
aVDUO_CARRY
p1306
aVNONE
p1307
aVSOLO
p1308
aVDUO_CARRY
p1309
aVDUO_SUPPORT
p1310
aVSOLO
p1311
aVDUO_CARRY
p1312
aVSOLO
p1313
aVDUO_SUPPORT
p1314
aVSOLO
p1315
aVNONE
p1316
aVSOLO
p1317
aVDUO_SUPPORT
p1318
aVNONE
p1319
aVSOLO
p1320
aVDUO_CARRY
p1321
aVSOLO
p1322
aVDUO_CARRY
p1323
aVSOLO
p1324
aVDUO_SUPPORT
p1325
aVNONE
p1326
aVNONE
p1327
aVDUO_SUPPORT
p1328
aVSOLO
p1329
aVSOLO
p1330
aVDUO_CARRY
p1331
aVDUO_CARRY
p1332
aVSOLO
p1333
aVNONE
p1334
aVSOLO
p1335
aVDUO_SUPPORT
p1336
aVNONE
p1337
aVDUO_SUPPORT
p1338
aVSOLO
p1339
aVSOLO
p1340
aVDUO_CARRY
p1341
aVSOLO
p1342
aVSOLO
p1343
aVDUO_SUPPORT
p1344
aVNONE
p1345
aVDUO_CARRY
p1346
aVDUO_SUPPORT
p1347
aVNONE
p1348
aVDUO_CARRY
p1349
aVSOLO
p1350
aVSOLO
p1351
aVSOLO
p1352
aVDUO_SUPPORT
p1353
aVDUO_CARRY
p1354
aVNONE
p1355
aVSOLO
p1356
aVDUO_SUPPORT
p1357
aVSOLO
p1358
aVSOLO
p1359
aVNONE
p1360
aVDUO_CARRY
p1361
aVDUO_CARRY
p1362
aVNONE
p1363
aVSOLO
p1364
aVSOLO
p1365
aVDUO_SUPPORT
p1366
aVNONE
p1367
aVSOLO
p1368
aVDUO_CARRY
p1369
aVDUO_SUPPORT
p1370
aVSOLO
p1371
aVNONE
p1372
aVSOLO
p1373
aVDUO_SUPPORT
p1374
aVDUO_CARRY
p1375
aVSOLO
p1376
aVDUO_CARRY
p1377
aVNONE
p1378
aVSOLO
p1379
aVDUO_SUPPORT
p1380
aVSOLO
p1381
aVSOLO
p1382
aVNONE
p1383
aVSOLO
p1384
aVDUO_SUPPORT
p1385
aVDUO_CARRY
p1386
aVSOLO
p1387
aVDUO_SUPPORT
p1388
aVSOLO
p1389
aVNONE
p1390
aVDUO_CARRY
p1391
aVDUO_CARRY
p1392
aVSOLO
p1393
aVNONE
p1394
aVDUO_SUPPORT
p1395
aVSOLO
p1396
aVDUO_SUPPORT
p1397
aVNONE
p1398
aVDUO_CARRY
p1399
aVSOLO
p1400
aVSOLO
p1401
aVDUO_SUPPORT
p1402
aVSOLO
p1403
aVSOLO
p1404
aVNONE
p1405
aVDUO_CARRY
p1406
aVSOLO
p1407
aVNONE
p1408
aVDUO_CARRY
p1409
aVSOLO
p1410
aVDUO_SUPPORT
p1411
aVSOLO
p1412
aVDUO_CARRY
p1413
aVNONE
p1414
aVSOLO
p1415
aVDUO_SUPPORT
p1416
aVNONE
p1417
aVSOLO
p1418
aVDUO
p1419
aVDUO
p1420
aVSOLO
p1421
aVNONE
p1422
aVDUO_CARRY
p1423
aVDUO_SUPPORT
p1424
aVSOLO
p1425
aVSOLO
p1426
aVDUO_SUPPORT
p1427
aVSOLO
p1428
aVNONE
p1429
aVSOLO
p1430
aVDUO_CARRY
p1431
aVSOLO
p1432
aVSOLO
p1433
aVNONE
p1434
aVNONE
p1435
aVNONE
p1436
aVSOLO
p1437
aVDUO_CARRY
p1438
aVSOLO
p1439
aVDUO_SUPPORT
p1440
aVNONE
p1441
aVSOLO
p1442
aVSOLO
p1443
aVNONE
p1444
aVDUO_SUPPORT
p1445
aVDUO_CARRY
p1446
aVNONE
p1447
aVSOLO
p1448
aVDUO_CARRY
p1449
aVSOLO
p1450
aVDUO_SUPPORT
p1451
aVSOLO
p1452
aVNONE
p1453
aVSOLO
p1454
aVDUO_SUPPORT
p1455
aVDUO_CARRY
p1456
aVSOLO
p1457
aVDUO_CARRY
p1458
aVSOLO
p1459
aVNONE
p1460
aVDUO_SUPPORT
p1461
aVDUO_SUPPORT
p1462
aVSOLO
p1463
aVDUO_CARRY
p1464
aVSOLO
p1465
aVNONE
p1466
aVDUO
p1467
aVSOLO
p1468
aVSOLO
p1469
aVDUO
p1470
aVNONE
p1471
aVDUO_CARRY
p1472
aVDUO_SUPPORT
p1473
aVSOLO
p1474
aVSOLO
p1475
aVNONE
p1476
aVNONE
p1477
aVDUO_SUPPORT
p1478
aVSOLO
p1479
aVSOLO
p1480
aVDUO_CARRY
p1481
aVSOLO
p1482
aVNONE
p1483
aVDUO_CARRY
p1484
aVDUO_SUPPORT
p1485
aVSOLO
p1486
aVNONE
p1487
aVSOLO
p1488
aVSOLO
p1489
aVDUO_CARRY
p1490
aVDUO_SUPPORT
p1491
aVSOLO
p1492
aVNONE
p1493
aVDUO_CARRY
p1494
aVDUO_SUPPORT
p1495
aVSOLO
p1496
aVNONE
p1497
aVDUO_CARRY
p1498
aVDUO_SUPPORT
p1499
aVSOLO
p1500
aVSOLO
p1501
aVNONE
p1502
aVDUO_SUPPORT
p1503
aVSOLO
p1504
aVDUO_CARRY
p1505
aVSOLO
p1506
aVNONE
p1507
aVSOLO
p1508
aVSOLO
p1509
aVDUO_CARRY
p1510
aVDUO_SUPPORT
p1511
aVNONE
p1512
aVDUO_SUPPORT
p1513
aVSOLO
p1514
aVSOLO
p1515
aVDUO_CARRY
p1516
aVNONE
p1517
aVNONE
p1518
aVNONE
p1519
aVDUO
p1520
aVNONE
p1521
aVDUO
p1522
aVSOLO
p1523
aVDUO_SUPPORT
p1524
aVNONE
p1525
aVDUO_CARRY
p1526
aVSOLO
p1527
aVDUO_SUPPORT
p1528
aVDUO_CARRY
p1529
aVNONE
p1530
aVSOLO
p1531
aVSOLO
p1532
aVSOLO
p1533
aVDUO_CARRY
p1534
aVSOLO
p1535
aVNONE
p1536
aVDUO_SUPPORT
p1537
aVDUO_CARRY
p1538
aVSOLO
p1539
aVSOLO
p1540
aVNONE
p1541
aVDUO_SUPPORT
p1542
aVSOLO
p1543
aVDUO_SUPPORT
p1544
aVNONE
p1545
aVDUO_CARRY
p1546
aVSOLO
p1547
aVDUO
p1548
aVDUO_CARRY
p1549
aVDUO
p1550
aVDUO_SUPPORT
p1551
aVSOLO
p1552
aVNONE
p1553
aVSOLO
p1554
aVDUO_CARRY
p1555
aVDUO_SUPPORT
p1556
aVSOLO
p1557
aVSOLO
p1558
aVDUO_SUPPORT
p1559
aVNONE
p1560
aVSOLO
p1561
aVDUO_CARRY
p1562
aVDUO_CARRY
p1563
aVSOLO
p1564
aVNONE
p1565
aVSOLO
p1566
aVDUO_SUPPORT
p1567
aVDUO_SUPPORT
p1568
aVNONE
p1569
aVSOLO
p1570
aVSOLO
p1571
aVDUO_CARRY
p1572
aVDUO
p1573
aVNONE
p1574
aVSOLO
p1575
aVSOLO
p1576
aVDUO
p1577
aVDUO_SUPPORT
p1578
aVDUO_CARRY
p1579
aVNONE
p1580
aVSOLO
p1581
aVSOLO
p1582
aVDUO_SUPPORT
p1583
aVSOLO
p1584
aVNONE
p1585
aVSOLO
p1586
aVDUO_CARRY
p1587
aVDUO_SUPPORT
p1588
aVSOLO
p1589
aVNONE
p1590
aVDUO_CARRY
p1591
aVSOLO
p1592
aVSOLO
p1593
aVNONE
p1594
aVDUO_SUPPORT
p1595
aVSOLO
p1596
aVDUO_CARRY
p1597
aVDUO
p1598
aVDUO
p1599
aVNONE
p1600
aVSOLO
p1601
aVSOLO
p1602
aVDUO_CARRY
p1603
aVSOLO
p1604
aVDUO_SUPPORT
p1605
aVSOLO
p1606
aVNONE
p1607
aVSOLO
p1608
aVSOLO
p1609
aVDUO_CARRY
p1610
aVDUO_SUPPORT
p1611
aVNONE
p1612
aVDUO_SUPPORT
p1613
aVDUO_CARRY
p1614
aVSOLO
p1615
aVSOLO
p1616
aVNONE
p1617
aVDUO_CARRY
p1618
aVNONE
p1619
aVSOLO
p1620
aVDUO_SUPPORT
p1621
aVNONE
p1622
aVSOLO
p1623
aVDUO_SUPPORT
p1624
aVSOLO
p1625
aVNONE
p1626
aVDUO_CARRY
p1627
aVSOLO
p1628
aVDUO_CARRY
p1629
aVSOLO
p1630
aVNONE
p1631
aVDUO_SUPPORT
p1632
aVDUO_SUPPORT
p1633
aVSOLO
p1634
aVDUO_SUPPORT
p1635
aVDUO_CARRY
p1636
aVDUO_CARRY
p1637
aVDUO_CARRY
p1638
aVSOLO
p1639
aVNONE
p1640
aVDUO_SUPPORT
p1641
aVNONE
p1642
aVDUO_CARRY
p1643
aVNONE
p1644
aVSOLO
p1645
aVDUO_SUPPORT
p1646
aVSOLO
p1647
aVSOLO
p1648
aVDUO_SUPPORT
p1649
aVSOLO
p1650
aVNONE
p1651
aVDUO_CARRY
p1652
aVNONE
p1653
aVSOLO
p1654
aVSOLO
p1655
aVDUO_SUPPORT
p1656
aVDUO_CARRY
p1657
aVNONE
p1658
aVDUO_CARRY
p1659
aVDUO_SUPPORT
p1660
aVSOLO
p1661
aVSOLO
p1662
aVNONE
p1663
aVSOLO
p1664
aVSOLO
p1665
aVDUO_CARRY
p1666
aVDUO_SUPPORT
p1667
aVDUO_SUPPORT
p1668
aVSOLO
p1669
aVNONE
p1670
aVDUO_CARRY
p1671
aVSOLO
p1672
aVSOLO
p1673
aVSOLO
p1674
aVDUO_CARRY
p1675
aVDUO_SUPPORT
p1676
aVNONE
p1677
aVNONE
p1678
aVDUO_CARRY
p1679
aVDUO_SUPPORT
p1680
aVSOLO
p1681
aVSOLO
p1682
aVDUO_CARRY
p1683
aVDUO_SUPPORT
p1684
aVSOLO
p1685
aVNONE
p1686
aVNONE
p1687
aVSOLO
p1688
aVDUO_SUPPORT
p1689
aVNONE
p1690
aVDUO_CARRY
p1691
aVSOLO
p1692
aVDUO_CARRY
p1693
aVSOLO
p1694
aVNONE
p1695
aVSOLO
p1696
aVDUO_SUPPORT
p1697
aVSOLO
p1698
aVDUO_CARRY
p1699
aVNONE
p1700
aVNONE
p1701
aVDUO_SUPPORT
p1702
aVSOLO
p1703
aVNONE
p1704
aVSOLO
p1705
aVSOLO
p1706
aVNONE
p1707
aVDUO_CARRY
p1708
aVSOLO
p1709
aVNONE
p1710
aVSOLO
p1711
aVDUO_SUPPORT
p1712
aVNONE
p1713
aVSOLO
p1714
aVDUO_SUPPORT
p1715
aVSOLO
p1716
aVDUO_CARRY
p1717
aVSOLO
p1718
aVDUO_CARRY
p1719
aVNONE
p1720
aVDUO_SUPPORT
p1721
aVSOLO
p1722
aVSOLO
p1723
aVNONE
p1724
aVSOLO
p1725
aVDUO
p1726
aVDUO
p1727
aVNONE
p1728
aVSOLO
p1729
aVDUO_CARRY
p1730
aVSOLO
p1731
aVDUO_SUPPORT
p1732
aVSOLO
p1733
aVNONE
p1734
aVDUO_SUPPORT
p1735
aVDUO_CARRY
p1736
aVSOLO
p1737
aVDUO_SUPPORT
p1738
aVSOLO
p1739
aVNONE
p1740
aVDUO_CARRY
p1741
aVSOLO
p1742
aVSOLO
p1743
aVSOLO
p1744
aVDUO_CARRY
p1745
aVDUO_SUPPORT
p1746
aVNONE
p1747
aVDUO_SUPPORT
p1748
aVDUO_CARRY
p1749
aVSOLO
p1750
aVSOLO
p1751
aVNONE
p1752
aVDUO_CARRY
p1753
aVNONE
p1754
aVNONE
p1755
aVSOLO
p1756
aVDUO_SUPPORT
p1757
aVNONE
p1758
aVSOLO
p1759
aVSOLO
p1760
aVDUO_CARRY
p1761
aVDUO_SUPPORT
p1762
aVDUO_CARRY
p1763
aVSOLO
p1764
aVSOLO
p1765
aVNONE
p1766
aVDUO_SUPPORT
p1767
aVDUO_CARRY
p1768
aVSOLO
p1769
aVSOLO
p1770
aVDUO_SUPPORT
p1771
aVNONE
p1772
aVNONE
p1773
aVSOLO
p1774
aVDUO_CARRY
p1775
aVDUO_SUPPORT
p1776
aVSOLO
p1777
aVNONE
p1778
aVSOLO
p1779
aVDUO_SUPPORT
p1780
aVSOLO
p1781
aVDUO_CARRY
p1782
aVNONE
p1783
aVDUO
p1784
aVSOLO
p1785
aVSOLO
p1786
aVDUO
p1787
aVNONE
p1788
aVSOLO
p1789
aVDUO_SUPPORT
p1790
aVDUO_CARRY
p1791
aVSOLO
p1792
aVDUO_SUPPORT
p1793
aVDUO_CARRY
p1794
aVSOLO
p1795
aVSOLO
p1796
aVNONE
p1797
aVDUO_SUPPORT
p1798
aVSOLO
p1799
aVSOLO
p1800
aVNONE
p1801
aVDUO_CARRY
p1802
aVSOLO
p1803
aVDUO_CARRY
p1804
aVNONE
p1805
aVDUO_SUPPORT
p1806
aVSOLO
p1807
aVDUO_CARRY
p1808
aVNONE
p1809
aVDUO_SUPPORT
p1810
aVSOLO
p1811
aVSOLO
p1812
aVDUO_SUPPORT
p1813
aVSOLO
p1814
aVSOLO
p1815
aVDUO_CARRY
p1816
aVNONE
p1817
aVDUO_SUPPORT
p1818
aVDUO_CARRY
p1819
aVSOLO
p1820
aVSOLO
p1821
aVNONE
p1822
aVSOLO
p1823
aVNONE
p1824
aVDUO_CARRY
p1825
aVSOLO
p1826
aVDUO_SUPPORT
p1827
aVSOLO
p1828
aVNONE
p1829
aVDUO_CARRY
p1830
aVDUO_SUPPORT
p1831
aVSOLO
p1832
aVSOLO
p1833
aVDUO_CARRY
p1834
aVDUO_SUPPORT
p1835
aVNONE
p1836
aVSOLO
p1837
aVSOLO
p1838
aVNONE
p1839
aVSOLO
p1840
aVDUO_CARRY
p1841
aVDUO_SUPPORT
p1842
aVNONE
p1843
aVSOLO
p1844
aVNONE
p1845
aVNONE
p1846
aVNONE
p1847
aVNONE
p1848
aVDUO_SUPPORT
p1849
aVSOLO
p1850
aVDUO_CARRY
p1851
aVSOLO
p1852
aVNONE
p1853
aVNONE
p1854
aVDUO_CARRY
p1855
aVSOLO
p1856
aVSOLO
p1857
aVDUO_SUPPORT
p1858
aVSOLO
p1859
aVDUO_CARRY
p1860
aVDUO_SUPPORT
p1861
aVNONE
p1862
aVSOLO
p1863
aVNONE
p1864
aVDUO_SUPPORT
p1865
aVDUO_CARRY
p1866
aVSOLO
p1867
aVSOLO
p1868
aVDUO_SUPPORT
p1869
aVSOLO
p1870
aVNONE
p1871
aVSOLO
p1872
aVDUO_CARRY
p1873
aVDUO_SUPPORT
p1874
aVSOLO
p1875
aVNONE
p1876
aVSOLO
p1877
aVDUO_CARRY
p1878
aVNONE
p1879
aVSOLO
p1880
aVSOLO
p1881
aVDUO_SUPPORT
p1882
aVDUO_CARRY
p1883
aVSOLO
p1884
aVDUO_CARRY
p1885
aVSOLO
p1886
aVNONE
p1887
aVDUO_SUPPORT
p1888
aVDUO_CARRY
p1889
aVNONE
p1890
aVSOLO
p1891
aVSOLO
p1892
aVDUO_SUPPORT
p1893
aVDUO_CARRY
p1894
aVNONE
p1895
aVSOLO
p1896
aVDUO_SUPPORT
p1897
aVSOLO
p1898
aVDUO_CARRY
p1899
aVSOLO
p1900
aVNONE
p1901
aVDUO_SUPPORT
p1902
aVSOLO
p1903
aVDUO_CARRY
p1904
aVSOLO
p1905
aVSOLO
p1906
aVNONE
p1907
aVDUO_SUPPORT
p1908
aVSOLO
p1909
aVDUO_SUPPORT
p1910
aVDUO_CARRY
p1911
aVSOLO
p1912
aVNONE
p1913
aVDUO_CARRY
p1914
aVDUO_SUPPORT
p1915
aVNONE
p1916
aVSOLO
p1917
aVSOLO
p1918
aVSOLO
p1919
aVDUO_CARRY
p1920
aVDUO_SUPPORT
p1921
aVNONE
p1922
aVNONE
p1923
aVNONE
p1924
aVDUO_CARRY
p1925
aVNONE
p1926
aVSOLO
p1927
aVDUO_SUPPORT
p1928
aVSOLO
p1929
aVDUO_SUPPORT
p1930
aVDUO_CARRY
p1931
aVNONE
p1932
aVNONE
p1933
aVSOLO
p1934
aVDUO_CARRY
p1935
aVSOLO
p1936
aVNONE
p1937
aVDUO_SUPPORT
p1938
aVDUO_CARRY
p1939
aVNONE
p1940
aVSOLO
p1941
aVDUO_SUPPORT
p1942
aVSOLO
p1943
aVDUO_SUPPORT
p1944
aVSOLO
p1945
aVDUO_CARRY
p1946
aVSOLO
p1947
aVNONE
p1948
aVDUO_CARRY
p1949
aVSOLO
p1950
aVNONE
p1951
aVSOLO
p1952
aVDUO_SUPPORT
p1953
aVDUO_SUPPORT
p1954
aVDUO_CARRY
p1955
aVSOLO
p1956
aVNONE
p1957
aVSOLO
p1958
aVNONE
p1959
aVSOLO
p1960
aVDUO_SUPPORT
p1961
aVDUO_CARRY
p1962
aVNONE
p1963
aVDUO_SUPPORT
p1964
aVSOLO
p1965
aVNONE
p1966
aVDUO_CARRY
p1967
aVNONE
p1968
aVSOLO
p1969
aVSOLO
p1970
aVDUO_SUPPORT
p1971
aVDUO_CARRY
p1972
aVNONE
p1973
aVSOLO
p1974
aVDUO_SUPPORT
p1975
aVDUO_CARRY
p1976
aVSOLO
p1977
aVNONE
p1978
aVSOLO
p1979
aVDUO_CARRY
p1980
aVSOLO
p1981
aVDUO_SUPPORT
p1982
aVNONE
p1983
aVDUO_SUPPORT
p1984
aVDUO_CARRY
p1985
aVSOLO
p1986
aVNONE
p1987
aVSOLO
p1988
aVSOLO
p1989
aVDUO_CARRY
p1990
aVNONE
p1991
aVSOLO
p1992
aVDUO_SUPPORT
p1993
aVSOLO
p1994
aVDUO_SUPPORT
p1995
aVDUO_CARRY
p1996
aVSOLO
p1997
aVNONE
p1998
aVDUO_CARRY
p1999
aVSOLO
p2000
aVDUO_SUPPORT
p2001
aVSOLO
p2002
aVNONE
p2003
aVDUO_SUPPORT
p2004
aVSOLO
p2005
aVNONE
p2006
aVSOLO
p2007
aVDUO_CARRY
p2008
aVSOLO
p2009
aVDUO_CARRY
p2010
aVNONE
p2011
aVSOLO
p2012
aVDUO_SUPPORT
p2013
aVDUO_CARRY
p2014
aVDUO_SUPPORT
p2015
aVSOLO
p2016
aVNONE
p2017
aVSOLO
p2018
aVNONE
p2019
aVDUO_CARRY
p2020
aVSOLO
p2021
aVSOLO
p2022
aVDUO_SUPPORT
p2023
aVSOLO
p2024
aVDUO_SUPPORT
p2025
aVSOLO
p2026
aVNONE
p2027
aVDUO_CARRY
p2028
aVDUO_CARRY
p2029
aVSOLO
p2030
aVDUO_SUPPORT
p2031
aVSOLO
p2032
aVNONE
p2033
aVNONE
p2034
aVSOLO
p2035
aVDUO_SUPPORT
p2036
aVSOLO
p2037
aVDUO_CARRY
p2038
aVNONE
p2039
aVSOLO
p2040
aVDUO_SUPPORT
p2041
aVSOLO
p2042
aVDUO_CARRY
p2043
aVNONE
p2044
aVSOLO
p2045
aVDUO_SUPPORT
p2046
aVDUO_CARRY
p2047
aVSOLO
p2048
aVSOLO
p2049
aVSOLO
p2050
aVDUO_CARRY
p2051
aVDUO_SUPPORT
p2052
aVNONE
p2053
aVDUO_SUPPORT
p2054
aVDUO_CARRY
p2055
aVSOLO
p2056
aVNONE
p2057
aVSOLO
p2058
aVDUO_SUPPORT
p2059
aVSOLO
p2060
aVDUO_CARRY
p2061
aVNONE
p2062
aVSOLO
p2063
aVDUO_CARRY
p2064
aVNONE
p2065
aVSOLO
p2066
aVDUO_SUPPORT
p2067
aVSOLO
p2068
aVDUO
p2069
aVSOLO
p2070
aVDUO
p2071
aVNONE
p2072
aVSOLO
p2073
aVDUO
p2074
aVNONE
p2075
aVSOLO
p2076
aVDUO
p2077
aVSOLO
p2078
aVDUO_SUPPORT
p2079
aVSOLO
p2080
aVSOLO
p2081
aVNONE
p2082
aVDUO_CARRY
p2083
aVSOLO
p2084
aVDUO_CARRY
p2085
aVSOLO
p2086
aVDUO_SUPPORT
p2087
aVNONE
p2088
aVSOLO
p2089
aVDUO_SUPPORT
p2090
aVSOLO
p2091
aVNONE
p2092
aVDUO_CARRY
p2093
aVDUO_CARRY
p2094
aVDUO_SUPPORT
p2095
aVSOLO
p2096
aVSOLO
p2097
aVNONE
p2098
aVNONE
p2099
aVDUO_CARRY
p2100
aVSOLO
p2101
aVDUO_SUPPORT
p2102
aVSOLO
p2103
aVDUO_SUPPORT
p2104
aVDUO_CARRY
p2105
aVNONE
p2106
aVSOLO
p2107
aVSOLO
p2108
aVDUO_SUPPORT
p2109
aVSOLO
p2110
aVSOLO
p2111
aVDUO_CARRY
p2112
aVNONE
p2113
aVSOLO
p2114
aVDUO_CARRY
p2115
aVSOLO
p2116
aVDUO_SUPPORT
p2117
aVNONE
p2118
aVDUO_CARRY
p2119
aVSOLO
p2120
aVDUO_SUPPORT
p2121
aVSOLO
p2122
aVNONE
p2123
aVNONE
p2124
aVDUO_SUPPORT
p2125
aVSOLO
p2126
aVSOLO
p2127
aVDUO_CARRY
p2128
aVSOLO
p2129
aVSOLO
p2130
aVDUO_CARRY
p2131
aVDUO_SUPPORT
p2132
aVNONE
p2133
aVDUO
p2134
aVSOLO
p2135
aVDUO
p2136
aVSOLO
p2137
aVNONE
p2138
aVDUO_CARRY
p2139
aVNONE
p2140
aVSOLO
p2141
aVDUO_SUPPORT
p2142
aVSOLO
p2143
aVSOLO
p2144
aVSOLO
p2145
aVDUO_SUPPORT
p2146
aVDUO_CARRY
p2147
aVNONE
p2148
aVSOLO
p2149
aVNONE
p2150
aVDUO_CARRY
p2151
aVDUO_SUPPORT
p2152
aVSOLO
p2153
aVSOLO
p2154
aVDUO_CARRY
p2155
aVNONE
p2156
aVSOLO
p2157
aVDUO_SUPPORT
p2158
aVNONE
p2159
aVDUO_CARRY
p2160
aVSOLO
p2161
aVDUO_SUPPORT
p2162
aVSOLO
p2163
aVNONE
p2164
aVSOLO
p2165
aVSOLO
p2166
aVDUO_CARRY
p2167
aVDUO_SUPPORT
p2168
aVNONE
p2169
aVSOLO
p2170
aVNONE
p2171
aVDUO_CARRY
p2172
aVDUO_SUPPORT
p2173
aVDUO_SUPPORT
p2174
aVSOLO
p2175
aVDUO_CARRY
p2176
aVNONE
p2177
aVSOLO
p2178
aVSOLO
p2179
aVDUO_SUPPORT
p2180
aVDUO_CARRY
p2181
aVSOLO
p2182
aVNONE
p2183
aVDUO_CARRY
p2184
aVSOLO
p2185
aVNONE
p2186
aVDUO_SUPPORT
p2187
aVSOLO
p2188
aVSOLO
p2189
aVDUO_SUPPORT
p2190
aVNONE
p2191
aVDUO_CARRY
p2192
aVSOLO
p2193
aVNONE
p2194
aVDUO_CARRY
p2195
aVSOLO
p2196
aVDUO_SUPPORT
p2197
aVSOLO
p2198
aVSOLO
p2199
aVNONE
p2200
aVDUO_SUPPORT
p2201
aVDUO_CARRY
p2202
aVSOLO
p2203
aVSOLO
p2204
aVDUO_SUPPORT
p2205
aVDUO_CARRY
p2206
aVSOLO
p2207
aVNONE
p2208
aVSOLO
p2209
aVDUO_SUPPORT
p2210
aVDUO_CARRY
p2211
aVSOLO
p2212
aVNONE
p2213
aVNONE
p2214
aVSOLO
p2215
aVSOLO
p2216
aVDUO_SUPPORT
p2217
aVDUO_CARRY
p2218
aVSOLO
p2219
aVDUO_SUPPORT
p2220
aVDUO_CARRY
p2221
aVDUO_CARRY
p2222
aVDUO_SUPPORT
p2223
aVNONE
p2224
aVSOLO
p2225
aVDUO_CARRY
p2226
aVDUO_SUPPORT
p2227
aVSOLO
p2228
aVDUO_SUPPORT
p2229
aVNONE
p2230
aVDUO_CARRY
p2231
aVSOLO
p2232
aVSOLO
p2233
aVDUO_SUPPORT
p2234
aVDUO_CARRY
p2235
aVNONE
p2236
aVSOLO
p2237
aVSOLO
p2238
aVDUO_CARRY
p2239
aVNONE
p2240
aVSOLO
p2241
aVDUO_SUPPORT
p2242
aVSOLO
p2243
aVSOLO
p2244
aVDUO_CARRY
p2245
aVNONE
p2246
aVDUO_SUPPORT
p2247
aVSOLO
p2248
aVDUO_SUPPORT
p2249
aVNONE
p2250
aVDUO_CARRY
p2251
aVSOLO
p2252
aVSOLO
p2253
aVSOLO
p2254
aVNONE
p2255
aVDUO_SUPPORT
p2256
aVSOLO
p2257
aVDUO_CARRY
p2258
aVNONE
p2259
aVNONE
p2260
aVNONE
p2261
aVNONE
p2262
aVDUO
p2263
aVDUO
p2264
aVSOLO
p2265
aVDUO_SUPPORT
p2266
aVSOLO
p2267
aVNONE
p2268
aVDUO_CARRY
p2269
aVDUO_CARRY
p2270
aVSOLO
p2271
aVDUO_SUPPORT
p2272
aVNONE
p2273
aVSOLO
p2274
aVDUO_CARRY
p2275
aVNONE
p2276
aVDUO_SUPPORT
p2277
aVSOLO
p2278
aVSOLO
p2279
aVDUO_SUPPORT
p2280
aVSOLO
p2281
aVDUO_CARRY
p2282
aVSOLO
p2283
aVNONE
p2284
aVNONE
p2285
aVDUO_CARRY
p2286
aVSOLO
p2287
aVDUO_SUPPORT
p2288
aVSOLO
p2289
aVDUO_SUPPORT
p2290
aVSOLO
p2291
aVNONE
p2292
aVSOLO
p2293
aVDUO_CARRY
p2294
aVSOLO
p2295
aVSOLO
p2296
aVNONE
p2297
aVSOLO
p2298
aVNONE
p2299
aVDUO_CARRY
p2300
aVDUO_SUPPORT
p2301
aVNONE
p2302
aVNONE
p2303
aVSOLO
p2304
aVNONE
p2305
aVSOLO
p2306
aVSOLO
p2307
aVDUO_SUPPORT
p2308
aVDUO_CARRY
p2309
aVDUO_SUPPORT
p2310
aVSOLO
p2311
aVSOLO
p2312
aVNONE
p2313
aVDUO_CARRY
p2314
aVSOLO
p2315
aVNONE
p2316
aVSOLO
p2317
aVDUO_CARRY
p2318
aVDUO_SUPPORT
p2319
aVSOLO
p2320
aVDUO_CARRY
p2321
aVNONE
p2322
aVSOLO
p2323
aVDUO_SUPPORT
p2324
aVSOLO
p2325
aVSOLO
p2326
aVDUO_CARRY
p2327
aVNONE
p2328
aVDUO_SUPPORT
p2329
aVNONE
p2330
aVDUO_CARRY
p2331
aVSOLO
p2332
aVSOLO
p2333
aVDUO_SUPPORT
p2334
aVSOLO
p2335
aVDUO_CARRY
p2336
aVNONE
p2337
aVSOLO
p2338
aVDUO_SUPPORT
p2339
aVSOLO
p2340
aVSOLO
p2341
aVNONE
p2342
aVDUO_CARRY
p2343
aVDUO_SUPPORT
p2344
aVSOLO
p2345
aVNONE
p2346
aVDUO_SUPPORT
p2347
aVSOLO
p2348
aVDUO_CARRY
p2349
aVSOLO
p2350
aVDUO_CARRY
p2351
aVNONE
p2352
aVDUO_SUPPORT
p2353
aVNONE
p2354
aVNONE
p2355
aVSOLO
p2356
aVDUO_SUPPORT
p2357
aVSOLO
p2358
aVDUO_CARRY
p2359
aVDUO_SUPPORT
p2360
aVDUO_CARRY
p2361
aVSOLO
p2362
aVNONE
p2363
aVSOLO
p2364
aVSOLO
p2365
aVDUO_CARRY
p2366
aVNONE
p2367
aVDUO_SUPPORT
p2368
aVSOLO
p2369
aVDUO_CARRY
p2370
aVSOLO
p2371
aVSOLO
p2372
aVNONE
p2373
aVDUO_SUPPORT
p2374
aVNONE
p2375
aVDUO_CARRY
p2376
aVSOLO
p2377
aVDUO_SUPPORT
p2378
aVSOLO
p2379
aVDUO
p2380
aVNONE
p2381
aVSOLO
p2382
aVSOLO
p2383
aVDUO
p2384
aVSOLO
p2385
aVDUO_CARRY
p2386
aVSOLO
p2387
aVNONE
p2388
aVDUO_SUPPORT
p2389
aVNONE
p2390
aVDUO_SUPPORT
p2391
aVDUO_CARRY
p2392
aVSOLO
p2393
aVSOLO
p2394
aVSOLO
p2395
aVNONE
p2396
aVSOLO
p2397
aVDUO_CARRY
p2398
aVDUO_SUPPORT
p2399
aVSOLO
p2400
aVDUO_CARRY
p2401
aVSOLO
p2402
aVNONE
p2403
aVDUO_SUPPORT
p2404
aVSOLO
p2405
aVSOLO
p2406
aVNONE
p2407
aVDUO_CARRY
p2408
aVDUO_SUPPORT
p2409
aVDUO_CARRY
p2410
aVDUO_SUPPORT
p2411
aVSOLO
p2412
aVNONE
p2413
aVSOLO
p2414
aVDUO_CARRY
p2415
aVSOLO
p2416
aVDUO_SUPPORT
p2417
aVNONE
p2418
aVSOLO
p2419
aVDUO_CARRY
p2420
aVSOLO
p2421
aVNONE
p2422
aVSOLO
p2423
aVDUO_SUPPORT
p2424
aVSOLO
p2425
aVDUO_CARRY
p2426
aVNONE
p2427
aVDUO_SUPPORT
p2428
aVSOLO
p2429
aVSOLO
p2430
aVDUO_CARRY
p2431
aVNONE
p2432
aVSOLO
p2433
aVDUO_SUPPORT
p2434
aVNONE
p2435
aVSOLO
p2436
aVSOLO
p2437
aVSOLO
p2438
aVNONE
p2439
aVNONE
p2440
aVDUO_CARRY
p2441
aVSOLO
p2442
aVSOLO
p2443
aVDUO_SUPPORT
p2444
aVNONE
p2445
aVDUO_CARRY
p2446
aVDUO_SUPPORT
p2447
aVSOLO
p2448
aVSOLO
p2449
aVSOLO
p2450
aVDUO_CARRY
p2451
aVDUO_SUPPORT
p2452
aVSOLO
p2453
aVNONE
p2454
aVDUO_CARRY
p2455
aVSOLO
p2456
aVSOLO
p2457
aVDUO_SUPPORT
p2458
aVNONE
p2459
aVNONE
p2460
aVSOLO
p2461
aVSOLO
p2462
aVDUO_CARRY
p2463
aVDUO_SUPPORT
p2464
aVDUO_SUPPORT
p2465
aVDUO_CARRY
p2466
aVSOLO
p2467
aVNONE
p2468
aVSOLO
p2469
aVDUO_CARRY
p2470
aVSOLO
p2471
aVNONE
p2472
aVSOLO
p2473
aVDUO_SUPPORT
p2474
aVDUO_SUPPORT
p2475
aVSOLO
p2476
aVSOLO
p2477
aVDUO_CARRY
p2478
aVNONE
p2479
aVDUO_SUPPORT
p2480
aVSOLO
p2481
aVNONE
p2482
aVDUO_CARRY
p2483
aVSOLO
p2484
aVSOLO
p2485
aVNONE
p2486
aVDUO_CARRY
p2487
aVDUO_SUPPORT
p2488
aVSOLO
p2489
aVDUO_SUPPORT
p2490
aVDUO_CARRY
p2491
aVSOLO
p2492
aVSOLO
p2493
aVNONE
p2494
aVDUO_CARRY
p2495
aVDUO_SUPPORT
p2496
aVSOLO
p2497
aVSOLO
p2498
aVNONE
p2499
aVNONE
p2500
aVDUO_CARRY
p2501
aVSOLO
p2502
aVSOLO
p2503
aVDUO_SUPPORT
p2504
aVSOLO
p2505
aVSOLO
p2506
aVNONE
p2507
aVDUO_SUPPORT
p2508
aVDUO_CARRY
p2509
aVDUO_CARRY
p2510
aVSOLO
p2511
aVSOLO
p2512
aVNONE
p2513
aVDUO_SUPPORT
p2514
aVSOLO
p2515
aVNONE
p2516
aVSOLO
p2517
aVDUO_SUPPORT
p2518
aVDUO_CARRY
p2519
aVSOLO
p2520
aVDUO_SUPPORT
p2521
aVNONE
p2522
aVDUO_CARRY
p2523
aVSOLO
p2524
aVSOLO
p2525
aVDUO_CARRY
p2526
aVDUO_SUPPORT
p2527
aVNONE
p2528
aVSOLO
p2529
aVNONE
p2530
aVSOLO
p2531
aVDUO_CARRY
p2532
aVDUO_SUPPORT
p2533
aVSOLO
p2534
aVDUO_CARRY
p2535
aVDUO_SUPPORT
p2536
aVSOLO
p2537
aVNONE
p2538
aVSOLO
p2539
aVSOLO
p2540
aVDUO_CARRY
p2541
aVDUO_SUPPORT
p2542
aVSOLO
p2543
aVNONE
p2544
aVNONE
p2545
aVSOLO
p2546
aVNONE
p2547
aVSOLO
p2548
aVSOLO
p2549
aVDUO
p2550
aVDUO
p2551
aVNONE
p2552
aVSOLO
p2553
aVSOLO
p2554
aVSOLO
p2555
aVSOLO
p2556
aVDUO_CARRY
p2557
aVDUO_SUPPORT
p2558
aVNONE
p2559
aVSOLO
p2560
aVDUO
p2561
aVNONE
p2562
aVSOLO
p2563
aVDUO
p2564
aVDUO_CARRY
p2565
aVSOLO
p2566
aVDUO_SUPPORT
p2567
aVNONE
p2568
aVSOLO
p2569
aVSOLO
p2570
aVDUO_SUPPORT
p2571
aVSOLO
p2572
aVNONE
p2573
aVDUO_CARRY
p2574
aVDUO_CARRY
p2575
aVDUO_SUPPORT
p2576
aVNONE
p2577
aVSOLO
p2578
aVSOLO
p2579
aVNONE
p2580
aVDUO_SUPPORT
p2581
aVSOLO
p2582
aVDUO_CARRY
p2583
aVSOLO
p2584
aVSOLO
p2585
aVDUO_CARRY
p2586
aVNONE
p2587
aVDUO_SUPPORT
p2588
aVSOLO
p2589
aVDUO_SUPPORT
p2590
aVSOLO
p2591
aVDUO_CARRY
p2592
aVSOLO
p2593
aVNONE
p2594
aVNONE
p2595
aVSOLO
p2596
aVDUO_CARRY
p2597
aVDUO_SUPPORT
p2598
aVNONE
p2599
aVDUO_SUPPORT
p2600
aVSOLO
p2601
aVDUO_CARRY
p2602
aVNONE
p2603
aVSOLO
p2604
aVNONE
p2605
aVDUO_SUPPORT
p2606
aVDUO_CARRY
p2607
aVNONE
p2608
aVSOLO
p2609
aVNONE
p2610
aVNONE
p2611
aVSOLO
p2612
aVDUO_CARRY
p2613
aVDUO_SUPPORT
p2614
aVSOLO
p2615
aVSOLO
p2616
aVDUO_CARRY
p2617
aVSOLO
p2618
aVNONE
p2619
aVDUO_SUPPORT
p2620
aVSOLO
p2621
aVSOLO
p2622
aVNONE
p2623
aVSOLO
p2624
aVNONE
p2625
aVSOLO
p2626
aVDUO_SUPPORT
p2627
aVSOLO
p2628
aVNONE
p2629
aVDUO_CARRY
p2630
aVSOLO
p2631
aVDUO_CARRY
p2632
aVDUO_SUPPORT
p2633
aVNONE
p2634
aVSOLO
p2635
aVDUO_SUPPORT
p2636
aVSOLO
p2637
aVDUO_CARRY
p2638
aVNONE
p2639
aVSOLO
p2640
aVDUO_SUPPORT
p2641
aVSOLO
p2642
aVSOLO
p2643
aVDUO_CARRY
p2644
aVNONE
p2645
aVSOLO
p2646
aVDUO_SUPPORT
p2647
aVNONE
p2648
aVDUO_CARRY
p2649
aVSOLO
p2650
aVSOLO
p2651
aVDUO_CARRY
p2652
aVDUO_SUPPORT
p2653
aVNONE
p2654
aVSOLO
p2655
aVDUO_CARRY
p2656
aVDUO_SUPPORT
p2657
aVNONE
p2658
aVSOLO
p2659
aVSOLO
p2660
aVNONE
p2661
aVSOLO
p2662
aVDUO_CARRY
p2663
aVSOLO
p2664
aVDUO_SUPPORT
p2665
aVSOLO
p2666
aVSOLO
p2667
aVDUO_SUPPORT
p2668
aVDUO_CARRY
p2669
aVNONE
p2670
aVNONE
p2671
aVDUO_CARRY
p2672
aVSOLO
p2673
aVNONE
p2674
aVDUO_SUPPORT
p2675
aVSOLO
p2676
aVDUO_SUPPORT
p2677
aVDUO_CARRY
p2678
aVNONE
p2679
aVSOLO
p2680
aVSOLO
p2681
aVDUO_SUPPORT
p2682
aVSOLO
p2683
aVNONE
p2684
aVDUO_CARRY
p2685
aVDUO_SUPPORT
p2686
aVSOLO
p2687
aVNONE
p2688
aVDUO_CARRY
p2689
aVSOLO
p2690
aVDUO_CARRY
p2691
aVDUO_SUPPORT
p2692
aVSOLO
p2693
aVSOLO
p2694
aVNONE
p2695
aVNONE
p2696
aVDUO_CARRY
p2697
aVSOLO
p2698
aVDUO_SUPPORT
p2699
aVNONE
p2700
aVNONE
p2701
aVDUO_CARRY
p2702
aVDUO_SUPPORT
p2703
aVSOLO
p2704
aVSOLO
p2705
aVSOLO
p2706
aVDUO_SUPPORT
p2707
aVNONE
p2708
aVSOLO
p2709
aVDUO_CARRY
p2710
aVSOLO
p2711
aVSOLO
p2712
aVDUO_CARRY
p2713
aVNONE
p2714
aVDUO_SUPPORT
p2715
aVNONE
p2716
aVSOLO
p2717
aVDUO_CARRY
p2718
aVSOLO
p2719
aVDUO_SUPPORT
p2720
aVSOLO
p2721
aVSOLO
p2722
aVDUO_SUPPORT
p2723
aVDUO_CARRY
p2724
aVNONE
p2725
aVSOLO
p2726
aVNONE
p2727
aVSOLO
p2728
aVDUO
p2729
aVDUO
p2730
aVNONE
p2731
aVNONE
p2732
aVDUO_CARRY
p2733
aVSOLO
p2734
aVDUO_SUPPORT
p2735
aVDUO_SUPPORT
p2736
aVSOLO
p2737
aVDUO_CARRY
p2738
aVSOLO
p2739
aVNONE
p2740
aVSOLO
p2741
aVDUO_SUPPORT
p2742
aVSOLO
p2743
aVNONE
p2744
aVDUO_CARRY
p2745
aVSOLO
p2746
aVNONE
p2747
aVDUO_CARRY
p2748
aVDUO_SUPPORT
p2749
aVSOLO
p2750
aVDUO_CARRY
p2751
aVDUO_SUPPORT
p2752
aVSOLO
p2753
aVNONE
p2754
aVSOLO
p2755
aVDUO_CARRY
p2756
aVSOLO
p2757
aVNONE
p2758
aVSOLO
p2759
aVDUO_SUPPORT
p2760
aVSOLO
p2761
aVDUO_CARRY
p2762
aVDUO_SUPPORT
p2763
aVNONE
p2764
aVSOLO
p2765
aVSOLO
p2766
aVNONE
p2767
aVSOLO
p2768
aVDUO_CARRY
p2769
aVDUO_SUPPORT
p2770
aVNONE
p2771
aVSOLO
p2772
aVSOLO
p2773
aVDUO_SUPPORT
p2774
aVDUO_CARRY
p2775
aVNONE
p2776
aVDUO_CARRY
p2777
aVDUO_SUPPORT
p2778
aVSOLO
p2779
aVSOLO
p2780
aVDUO_CARRY
p2781
aVSOLO
p2782
aVNONE
p2783
aVDUO_SUPPORT
p2784
aVSOLO
p2785
aVSOLO
p2786
aVNONE
p2787
aVNONE
p2788
aVSOLO
p2789
aVSOLO
p2790
aVDUO_SUPPORT
p2791
aVNONE
p2792
aVDUO_CARRY
p2793
aVSOLO
p2794
aVSOLO
p2795
aVSOLO
p2796
aVNONE
p2797
aVDUO_CARRY
p2798
aVDUO_SUPPORT
p2799
aVNONE
p2800
aVDUO
p2801
aVNONE
p2802
aVDUO
p2803
aVSOLO
p2804
aVSOLO
p2805
aVDUO
p2806
aVNONE
p2807
aVSOLO
p2808
aVSOLO
p2809
aVDUO
p2810
aVNONE
p2811
aVSOLO
p2812
aVDUO_CARRY
p2813
aVSOLO
p2814
aVDUO_SUPPORT
p2815
aVDUO_SUPPORT
p2816
aVSOLO
p2817
aVSOLO
p2818
aVNONE
p2819
aVDUO_CARRY
p2820
aVSOLO
p2821
aVDUO_CARRY
p2822
aVSOLO
p2823
aVNONE
p2824
aVDUO_SUPPORT
p2825
aVDUO_SUPPORT
p2826
aVSOLO
p2827
aVDUO_CARRY
p2828
aVNONE
p2829
aVSOLO
p2830
aVSOLO
p2831
aVDUO_CARRY
p2832
aVDUO_SUPPORT
p2833
aVDUO_CARRY
p2834
aVDUO_SUPPORT
p2835
aVSOLO
p2836
aVDUO_CARRY
p2837
aVDUO_SUPPORT
p2838
aVSOLO
p2839
aVNONE
p2840
aVDUO_SUPPORT
p2841
aVSOLO
p2842
aVNONE
p2843
aVDUO_CARRY
p2844
aVSOLO
p2845
aVDUO_CARRY
p2846
aVSOLO
p2847
aVSOLO
p2848
aVNONE
p2849
aVDUO_SUPPORT
p2850
aVSOLO
p2851
aVSOLO
p2852
aVNONE
p2853
aVDUO
p2854
aVDUO
p2855
aVDUO
p2856
aVDUO
p2857
aVSOLO
p2858
aVSOLO
p2859
aVNONE
p2860
aVNONE
p2861
aVSOLO
p2862
aVSOLO
p2863
aVDUO_SUPPORT
p2864
aVDUO_CARRY
p2865
aVSOLO
p2866
aVNONE
p2867
aVDUO_CARRY
p2868
aVSOLO
p2869
aVDUO_SUPPORT
p2870
aVSOLO
p2871
aVDUO_SUPPORT
p2872
aVSOLO
p2873
aVDUO_CARRY
p2874
aVNONE
p2875
aVNONE
p2876
aVSOLO
p2877
aVDUO_CARRY
p2878
aVDUO_SUPPORT
p2879
aVSOLO
p2880
aVSOLO
p2881
aVNONE
p2882
aVDUO_CARRY
p2883
aVDUO_SUPPORT
p2884
aVSOLO
p2885
aVNONE
p2886
aVSOLO
p2887
aVDUO_SUPPORT
p2888
aVNONE
p2889
aVDUO_CARRY
p2890
aVSOLO
p2891
aVNONE
p2892
aVDUO_CARRY
p2893
aVSOLO
p2894
aVDUO_SUPPORT
p2895
aVDUO_CARRY
p2896
aVDUO_SUPPORT
p2897
aVNONE
p2898
aVSOLO
p2899
aVSOLO
p2900
aVNONE
p2901
aVSOLO
p2902
aVDUO_CARRY
p2903
aVDUO_SUPPORT
p2904
aVSOLO
p2905
aVDUO_SUPPORT
p2906
aVNONE
p2907
aVDUO_CARRY
p2908
aVSOLO
p2909
aVSOLO
p2910
aVDUO_SUPPORT
p2911
aVNONE
p2912
aVDUO_CARRY
p2913
aVSOLO
p2914
aVSOLO
p2915
aVNONE
p2916
aVDUO_CARRY
p2917
aVDUO_SUPPORT
p2918
aVSOLO
p2919
aVSOLO
p2920
aVDUO
p2921
aVSOLO
p2922
aVDUO
p2923
aVSOLO
p2924
aVNONE
p2925
aVSOLO
p2926
aVDUO_SUPPORT
p2927
aVDUO_CARRY
p2928
aVNONE
p2929
aVSOLO
p2930
aVSOLO
p2931
aVSOLO
p2932
aVNONE
p2933
aVDUO_SUPPORT
p2934
aVDUO_CARRY
p2935
aVSOLO
p2936
aVDUO_CARRY
p2937
aVDUO_SUPPORT
p2938
aVNONE
p2939
aVSOLO
p2940
aVSOLO
p2941
aVSOLO
p2942
aVNONE
p2943
aVDUO_CARRY
p2944
aVDUO_SUPPORT
p2945
aVSOLO
p2946
aVNONE
p2947
aVDUO_CARRY
p2948
aVSOLO
p2949
aVDUO_SUPPORT
p2950
aVSOLO
p2951
aVSOLO
p2952
aVDUO_SUPPORT
p2953
aVNONE
p2954
aVDUO_CARRY
p2955
aVDUO_SUPPORT
p2956
aVDUO_CARRY
p2957
aVSOLO
p2958
aVNONE
p2959
aVSOLO
p2960
aVDUO_CARRY
p2961
aVSOLO
p2962
aVSOLO
p2963
aVDUO_SUPPORT
p2964
aVNONE
p2965
aVDUO_CARRY
p2966
aVNONE
p2967
aVSOLO
p2968
aVDUO_SUPPORT
p2969
aVSOLO
p2970
aVSOLO
p2971
aVDUO_CARRY
p2972
aVNONE
p2973
aVSOLO
p2974
aVDUO_SUPPORT
p2975
aVDUO_CARRY
p2976
aVSOLO
p2977
aVDUO_SUPPORT
p2978
aVNONE
p2979
aVSOLO
p2980
aVNONE
p2981
aVSOLO
p2982
aVSOLO
p2983
aVDUO_CARRY
p2984
aVDUO_SUPPORT
p2985
aVDUO_SUPPORT
p2986
aVSOLO
p2987
aVNONE
p2988
aVSOLO
p2989
aVDUO_CARRY
p2990
aVNONE
p2991
aVDUO_SUPPORT
p2992
aVDUO_CARRY
p2993
aVSOLO
p2994
aVSOLO
p2995
aVSOLO
p2996
aVNONE
p2997
aVSOLO
p2998
aVDUO_SUPPORT
p2999
aVDUO_CARRY
p3000
aVDUO_SUPPORT
p3001
aVDUO_CARRY
p3002
aVSOLO
p3003
aVNONE
p3004
aVSOLO
p3005
aVNONE
p3006
aVDUO_CARRY
p3007
aVDUO_SUPPORT
p3008
aVSOLO
p3009
aVSOLO
p3010
aVDUO_CARRY
p3011
aVSOLO
p3012
aVDUO_SUPPORT
p3013
aVSOLO
p3014
aVNONE
p3015
aVSOLO
p3016
aVDUO_CARRY
p3017
aVDUO_SUPPORT
p3018
aVSOLO
p3019
aVNONE
p3020
aVDUO_CARRY
p3021
aVDUO_SUPPORT
p3022
aVSOLO
p3023
aVSOLO
p3024
aVNONE
p3025
aVDUO_CARRY
p3026
aVSOLO
p3027
aVDUO_SUPPORT
p3028
aVSOLO
p3029
aVNONE
p3030
aVSOLO
p3031
aVDUO_CARRY
p3032
aVSOLO
p3033
aVNONE
p3034
aVDUO_SUPPORT
p3035
aVSOLO
p3036
aVSOLO
p3037
aVNONE
p3038
aVDUO_SUPPORT
p3039
aVDUO_CARRY
p3040
aVDUO_SUPPORT
p3041
aVSOLO
p3042
aVSOLO
p3043
aVDUO_CARRY
p3044
aVNONE
p3045
aVNONE
p3046
aVSOLO
p3047
aVDUO_SUPPORT
p3048
aVDUO_CARRY
p3049
aVSOLO
p3050
aVNONE
p3051
aVSOLO
p3052
aVSOLO
p3053
aVNONE
p3054
aVSOLO
p3055
aVNONE
p3056
aVDUO_SUPPORT
p3057
aVDUO_CARRY
p3058
aVSOLO
p3059
aVSOLO
p3060
aVNONE
p3061
aVSOLO
p3062
aVDUO_CARRY
p3063
aVSOLO
p3064
aVDUO_SUPPORT
p3065
aVSOLO
p3066
aVSOLO
p3067
aVNONE
p3068
aVDUO_CARRY
p3069
aVDUO_SUPPORT
p3070
aVDUO
p3071
aVSOLO
p3072
aVSOLO
p3073
aVNONE
p3074
aVDUO
p3075
aVSOLO
p3076
aVDUO
p3077
aVSOLO
p3078
aVDUO
p3079
aVNONE
p3080
aVNONE
p3081
aVSOLO
p3082
aVDUO_CARRY
p3083
aVDUO_SUPPORT
p3084
aVSOLO
p3085
aVSOLO
p3086
aVDUO_SUPPORT
p3087
aVNONE
p3088
aVDUO_CARRY
p3089
aVSOLO
p3090
aVSOLO
p3091
aVSOLO
p3092
aVNONE
p3093
aVDUO_SUPPORT
p3094
aVDUO_CARRY
p3095
aVDUO_SUPPORT
p3096
aVDUO_CARRY
p3097
aVSOLO
p3098
aVSOLO
p3099
aVNONE
p3100
aVSOLO
p3101
aVNONE
p3102
aVSOLO
p3103
aVDUO_CARRY
p3104
aVDUO_SUPPORT
p3105
aVDUO_SUPPORT
p3106
aVSOLO
p3107
aVNONE
p3108
aVSOLO
p3109
aVDUO_CARRY
p3110
aVSOLO
p3111
aVNONE
p3112
aVDUO_CARRY
p3113
aVDUO_SUPPORT
p3114
aVSOLO
p3115
aVSOLO
p3116
aVNONE
p3117
aVDUO_CARRY
p3118
aVSOLO
p3119
aVDUO_SUPPORT
p3120
aVNONE
p3121
aVDUO_CARRY
p3122
aVSOLO
p3123
aVDUO_SUPPORT
p3124
aVSOLO
p3125
aVDUO_CARRY
p3126
aVSOLO
p3127
aVSOLO
p3128
aVDUO_SUPPORT
p3129
aVNONE
p3130
aVDUO_CARRY
p3131
aVNONE
p3132
aVSOLO
p3133
aVDUO_SUPPORT
p3134
aVSOLO
p3135
aVSOLO
p3136
aVSOLO
p3137
aVDUO_CARRY
p3138
aVDUO_SUPPORT
p3139
aVNONE
p3140
aVDUO_SUPPORT
p3141
aVDUO_CARRY
p3142
aVNONE
p3143
aVSOLO
p3144
aVSOLO
p3145
aVSOLO
p3146
aVSOLO
p3147
aVNONE
p3148
aVDUO_CARRY
p3149
aVDUO_SUPPORT
p3150
aVNONE
p3151
aVNONE
p3152
aVSOLO
p3153
aVSOLO
p3154
aVNONE
p3155
aVNONE
p3156
aVSOLO
p3157
aVSOLO
p3158
aVDUO_CARRY
p3159
aVDUO_SUPPORT
p3160
aVNONE
p3161
aVSOLO
p3162
aVSOLO
p3163
aVDUO_SUPPORT
p3164
aVDUO_CARRY
p3165
aVSOLO
p3166
aVSOLO
p3167
aVNONE
p3168
aVDUO_SUPPORT
p3169
aVDUO_CARRY
p3170
aVSOLO
p3171
aVDUO_SUPPORT
p3172
aVNONE
p3173
aVSOLO
p3174
aVDUO_CARRY
p3175
aVSOLO
p3176
aVSOLO
p3177
aVDUO_CARRY
p3178
aVNONE
p3179
aVDUO_SUPPORT
p3180
aVSOLO
p3181
aVDUO_CARRY
p3182
aVNONE
p3183
aVDUO_SUPPORT
p3184
aVSOLO
p3185
aVDUO_CARRY
p3186
aVDUO_SUPPORT
p3187
aVSOLO
p3188
aVSOLO
p3189
aVNONE
p3190
aVNONE
p3191
aVSOLO
p3192
aVDUO_CARRY
p3193
aVSOLO
p3194
aVDUO_SUPPORT
p3195
aVDUO_CARRY
p3196
aVDUO_SUPPORT
p3197
aVSOLO
p3198
aVSOLO
p3199
aVNONE
p3200
aVNONE
p3201
aVSOLO
p3202
aVSOLO
p3203
aVDUO_CARRY
p3204
aVDUO_SUPPORT
p3205
aVSOLO
p3206
aVDUO_SUPPORT
p3207
aVDUO_CARRY
p3208
aVNONE
p3209
aVSOLO
p3210
aVDUO_SUPPORT
p3211
aVNONE
p3212
aVSOLO
p3213
aVDUO_CARRY
p3214
aVSOLO
p3215
aVNONE
p3216
aVSOLO
p3217
aVSOLO
p3218
aVNONE
p3219
aVSOLO
p3220
aVDUO_SUPPORT
p3221
aVDUO_CARRY
p3222
aVSOLO
p3223
aVNONE
p3224
aVSOLO
p3225
aVSOLO
p3226
aVSOLO
p3227
aVNONE
p3228
aVDUO_CARRY
p3229
aVDUO_SUPPORT
p3230
aVSOLO
p3231
aVSOLO
p3232
aVNONE
p3233
aVDUO_SUPPORT
p3234
aVDUO_CARRY
p3235
aVNONE
p3236
aVSOLO
p3237
aVSOLO
p3238
aVDUO_CARRY
p3239
aVDUO_SUPPORT
p3240
aVDUO_SUPPORT
p3241
aVSOLO
p3242
aVNONE
p3243
aVSOLO
p3244
aVDUO_CARRY
p3245
aVSOLO
p3246
aVNONE
p3247
aVDUO_CARRY
p3248
aVDUO_SUPPORT
p3249
aVSOLO
p3250
aVNONE
p3251
aVSOLO
p3252
aVSOLO
p3253
aVDUO_SUPPORT
p3254
aVDUO_CARRY
p3255
aVNONE
p3256
aVSOLO
p3257
aVDUO_CARRY
p3258
aVDUO_SUPPORT
p3259
aVSOLO
p3260
aVSOLO
p3261
aVSOLO
p3262
aVNONE
p3263
aVDUO_SUPPORT
p3264
aVDUO_CARRY
p3265
aVSOLO
p3266
aVDUO_CARRY
p3267
aVSOLO
p3268
aVDUO_SUPPORT
p3269
aVNONE
p3270
aVSOLO
p3271
aVNONE
p3272
aVDUO_CARRY
p3273
aVSOLO
p3274
aVDUO_SUPPORT
p3275
aVDUO_CARRY
p3276
aVDUO_SUPPORT
p3277
aVSOLO
p3278
aVSOLO
p3279
aVNONE
p3280
aVDUO_SUPPORT
p3281
aVSOLO
p3282
aVDUO_CARRY
p3283
aVSOLO
p3284
aVNONE
p3285
aVDUO_SUPPORT
p3286
aVNONE
p3287
aVSOLO
p3288
aVSOLO
p3289
aVDUO_CARRY
p3290
aVSOLO
p3291
aVDUO_CARRY
p3292
aVSOLO
p3293
aVDUO_SUPPORT
p3294
aVNONE
p3295
aVDUO_CARRY
p3296
aVNONE
p3297
aVNONE
p3298
aVDUO_SUPPORT
p3299
aVSOLO
p3300
aVDUO_SUPPORT
p3301
aVSOLO
p3302
aVSOLO
p3303
aVDUO_CARRY
p3304
aVNONE
p3305
aVNONE
p3306
aVDUO_CARRY
p3307
aVDUO_SUPPORT
p3308
aVSOLO
p3309
aVSOLO
p3310
aVDUO_SUPPORT
p3311
aVNONE
p3312
aVSOLO
p3313
aVDUO_CARRY
p3314
aVSOLO
p3315
aVDUO_CARRY
p3316
aVSOLO
p3317
aVSOLO
p3318
aVNONE
p3319
aVDUO_SUPPORT
p3320
aVNONE
p3321
aVSOLO
p3322
aVSOLO
p3323
aVDUO_CARRY
p3324
aVDUO_SUPPORT
p3325
aVDUO_CARRY
p3326
aVDUO_SUPPORT
p3327
aVSOLO
p3328
aVNONE
p3329
aVSOLO
p3330
aVSOLO
p3331
aVNONE
p3332
aVDUO_SUPPORT
p3333
aVSOLO
p3334
aVDUO_CARRY
p3335
aVDUO_CARRY
p3336
aVSOLO
p3337
aVDUO_SUPPORT
p3338
aVNONE
p3339
aVSOLO
p3340
aVDUO_SUPPORT
p3341
aVNONE
p3342
aVSOLO
p3343
aVSOLO
p3344
aVDUO_CARRY
p3345
aVDUO_CARRY
p3346
aVDUO_SUPPORT
p3347
aVSOLO
p3348
aVSOLO
p3349
aVNONE
p3350
aVDUO_SUPPORT
p3351
aVDUO_CARRY
p3352
aVSOLO
p3353
aVNONE
p3354
aVSOLO
p3355
aVNONE
p3356
aVSOLO
p3357
aVSOLO
p3358
aVDUO_CARRY
p3359
aVDUO_SUPPORT
p3360
aVDUO_CARRY
p3361
aVSOLO
p3362
aVNONE
p3363
aVSOLO
p3364
aVDUO_SUPPORT
p3365
aVSOLO
p3366
aVDUO_CARRY
p3367
aVDUO_SUPPORT
p3368
aVSOLO
p3369
aVNONE
p3370
aVSOLO
p3371
aVNONE
p3372
aVSOLO
p3373
aVDUO_SUPPORT
p3374
aVDUO_CARRY
p3375
aVSOLO
p3376
aVDUO_CARRY
p3377
aVDUO_SUPPORT
p3378
aVNONE
p3379
aVSOLO
p3380
aVSOLO
p3381
aVSOLO
p3382
aVNONE
p3383
aVDUO_SUPPORT
p3384
aVDUO_CARRY
p3385
aVNONE
p3386
aVDUO_SUPPORT
p3387
aVDUO_CARRY
p3388
aVSOLO
p3389
aVSOLO
p3390
aVNONE
p3391
aVSOLO
p3392
aVDUO_SUPPORT
p3393
aVSOLO
p3394
aVDUO_CARRY
p3395
aVSOLO
p3396
aVSOLO
p3397
aVDUO_SUPPORT
p3398
aVDUO_CARRY
p3399
aVNONE
p3400
aVSOLO
p3401
aVSOLO
p3402
aVNONE
p3403
aVDUO_CARRY
p3404
aVDUO_SUPPORT
p3405
aVDUO_SUPPORT
p3406
aVSOLO
p3407
aVNONE
p3408
aVDUO_CARRY
p3409
aVSOLO
p3410
aVSOLO
p3411
aVSOLO
p3412
aVDUO_CARRY
p3413
aVNONE
p3414
aVDUO_SUPPORT
p3415
aVSOLO
p3416
aVDUO_SUPPORT
p3417
aVDUO_CARRY
p3418
aVSOLO
p3419
aVNONE
p3420
aVDUO_CARRY
p3421
aVDUO_SUPPORT
p3422
aVSOLO
p3423
aVNONE
p3424
aVSOLO
p3425
aVNONE
p3426
aVDUO_SUPPORT
p3427
aVDUO_CARRY
p3428
aVSOLO
p3429
aVSOLO
p3430
aVNONE
p3431
aVDUO_SUPPORT
p3432
aVSOLO
p3433
aVDUO_CARRY
p3434
aVSOLO
p3435
aVSOLO
p3436
aVSOLO
p3437
aVDUO_SUPPORT
p3438
aVNONE
p3439
aVDUO_CARRY
p3440
aVSOLO
p3441
aVNONE
p3442
aVSOLO
p3443
aVDUO
p3444
aVDUO
p3445
aVDUO_CARRY
p3446
aVSOLO
p3447
aVSOLO
p3448
aVNONE
p3449
aVDUO_SUPPORT
p3450
aVDUO_CARRY
p3451
aVSOLO
p3452
aVSOLO
p3453
aVNONE
p3454
aVDUO_SUPPORT
p3455
aVDUO
p3456
aVSOLO
p3457
aVDUO
p3458
aVNONE
p3459
aVSOLO
p3460
aVSOLO
p3461
aVDUO_CARRY
p3462
aVDUO_SUPPORT
p3463
aVNONE
p3464
aVSOLO
p3465
aVSOLO
p3466
aVDUO_CARRY
p3467
aVDUO_SUPPORT
p3468
aVNONE
p3469
aVSOLO
p3470
aVNONE
p3471
aVNONE
p3472
aVNONE
p3473
aVDUO_CARRY
p3474
aVDUO_SUPPORT
p3475
aVNONE
p3476
aVNONE
p3477
aVSOLO
p3478
aVDUO_SUPPORT
p3479
aVDUO_CARRY
p3480
aVNONE
p3481
aVDUO_CARRY
p3482
aVSOLO
p3483
aVSOLO
p3484
aVDUO_SUPPORT
p3485
aVSOLO
p3486
aVNONE
p3487
aVDUO_SUPPORT
p3488
aVSOLO
p3489
aVDUO_CARRY
p3490
aVSOLO
p3491
aVDUO_CARRY
p3492
aVDUO_SUPPORT
p3493
aVNONE
p3494
aVSOLO
p3495
aVSOLO
p3496
aVSOLO
p3497
aVDUO_SUPPORT
p3498
aVNONE
p3499
aVDUO_CARRY
p3500
aVDUO_SUPPORT
p3501
aVNONE
p3502
aVDUO_CARRY
p3503
aVSOLO
p3504
aVSOLO
p3505
aVNONE
p3506
aVDUO
p3507
aVSOLO
p3508
aVSOLO
p3509
aVDUO
p3510
aVDUO_CARRY
p3511
aVDUO_SUPPORT
p3512
aVDUO_SUPPORT
p3513
aVSOLO
p3514
aVDUO_CARRY
p3515
aVDUO_CARRY
p3516
aVDUO_SUPPORT
p3517
aVSOLO
p3518
aVSOLO
p3519
aVNONE
p3520
aVDUO_CARRY
p3521
aVNONE
p3522
aVDUO_SUPPORT
p3523
aVSOLO
p3524
aVSOLO
p3525
aVDUO_SUPPORT
p3526
aVNONE
p3527
aVSOLO
p3528
aVSOLO
p3529
aVDUO_CARRY
p3530
aVDUO_CARRY
p3531
aVDUO_SUPPORT
p3532
aVSOLO
p3533
aVSOLO
p3534
aVNONE
p3535
aVDUO_SUPPORT
p3536
aVNONE
p3537
aVDUO_CARRY
p3538
aVSOLO
p3539
aVSOLO
p3540
aVNONE
p3541
aVDUO_SUPPORT
p3542
aVDUO_CARRY
p3543
aVSOLO
p3544
aVSOLO
p3545
aVDUO_SUPPORT
p3546
aVDUO_CARRY
p3547
aVSOLO
p3548
aVNONE
p3549
aVSOLO
p3550
aVDUO_SUPPORT
p3551
aVDUO_CARRY
p3552
aVDUO_SUPPORT
p3553
aVSOLO
p3554
aVDUO_CARRY
p3555
aVSOLO
p3556
aVNONE
p3557
aVDUO_CARRY
p3558
aVDUO_SUPPORT
p3559
aVSOLO
p3560
aVSOLO
p3561
aVNONE
p3562
aVDUO_SUPPORT
p3563
aVDUO_CARRY
p3564
aVNONE
p3565
aVSOLO
p3566
aVDUO_CARRY
p3567
aVSOLO
p3568
aVDUO_SUPPORT
p3569
aVNONE
p3570
aVSOLO
p3571
aVDUO_SUPPORT
p3572
aVNONE
p3573
aVSOLO
p3574
aVDUO_CARRY
p3575
aVSOLO
p3576
aVSOLO
p3577
aVNONE
p3578
aVDUO_SUPPORT
p3579
aVDUO_CARRY
p3580
aVNONE
p3581
aVDUO_CARRY
p3582
aVSOLO
p3583
aVDUO_SUPPORT
p3584
aVSOLO
p3585
aVSOLO
p3586
aVDUO_SUPPORT
p3587
aVDUO_SUPPORT
p3588
aVDUO_CARRY
p3589
aVDUO_CARRY
p3590
aVDUO_CARRY
p3591
aVSOLO
p3592
aVSOLO
p3593
aVNONE
p3594
aVDUO_SUPPORT
p3595
aVSOLO
p3596
aVDUO_CARRY
p3597
aVNONE
p3598
aVSOLO
p3599
aVDUO_SUPPORT
p3600
aVSOLO
p3601
aVDUO_SUPPORT
p3602
aVSOLO
p3603
aVDUO_CARRY
p3604
aVNONE
p3605
aVDUO_SUPPORT
p3606
aVDUO_CARRY
p3607
aVNONE
p3608
aVSOLO
p3609
aVSOLO
p3610
aVSOLO
p3611
aVDUO_SUPPORT
p3612
aVDUO_CARRY
p3613
aVSOLO
p3614
aVNONE
p3615
aVDUO_SUPPORT
p3616
aVNONE
p3617
aVSOLO
p3618
aVDUO_CARRY
p3619
aVSOLO
p3620
aVNONE
p3621
aVSOLO
p3622
aVDUO_CARRY
p3623
aVDUO_SUPPORT
p3624
aVSOLO
p3625
aVSOLO
p3626
aVNONE
p3627
aVSOLO
p3628
aVDUO_CARRY
p3629
aVDUO_SUPPORT
p3630
aVDUO_SUPPORT
p3631
aVSOLO
p3632
aVNONE
p3633
aVDUO_CARRY
p3634
aVSOLO
p3635
aVSOLO
p3636
aVNONE
p3637
aVDUO_SUPPORT
p3638
aVDUO_CARRY
p3639
aVSOLO
p3640
aVNONE
p3641
aVSOLO
p3642
aVSOLO
p3643
aVDUO_CARRY
p3644
aVDUO_SUPPORT
p3645
aVSOLO
p3646
aVDUO
p3647
aVSOLO
p3648
aVNONE
p3649
aVDUO
p3650
aVDUO_CARRY
p3651
aVSOLO
p3652
aVNONE
p3653
aVSOLO
p3654
aVDUO_SUPPORT
p3655
aVSOLO
p3656
aVDUO_CARRY
p3657
aVSOLO
p3658
aVDUO_SUPPORT
p3659
aVNONE
p3660
aVNONE
p3661
aVSOLO
p3662
aVDUO_CARRY
p3663
aVDUO_SUPPORT
p3664
aVSOLO
p3665
aVSOLO
p3666
aVDUO_CARRY
p3667
aVDUO_SUPPORT
p3668
aVNONE
p3669
aVSOLO
p3670
aVSOLO
p3671
aVNONE
p3672
aVDUO_SUPPORT
p3673
aVDUO_CARRY
p3674
aVSOLO
p3675
aVNONE
p3676
aVSOLO
p3677
aVSOLO
p3678
aVDUO_SUPPORT
p3679
aVDUO_CARRY
p3680
aVDUO_CARRY
p3681
aVSOLO
p3682
aVSOLO
p3683
aVNONE
p3684
aVDUO_SUPPORT
p3685
aVDUO
p3686
aVNONE
p3687
aVSOLO
p3688
aVDUO
p3689
aVSOLO
p3690
aVSOLO
p3691
aVNONE
p3692
aVDUO_CARRY
p3693
aVDUO_SUPPORT
p3694
aVSOLO
p3695
aVSOLO
p3696
aVDUO_CARRY
p3697
aVSOLO
p3698
aVNONE
p3699
aVDUO_SUPPORT
p3700
aVDUO_CARRY
p3701
aVSOLO
p3702
aVDUO_SUPPORT
p3703
aVDUO_CARRY
p3704
aVDUO_SUPPORT
p3705
aVSOLO
p3706
aVDUO_CARRY
p3707
aVDUO_SUPPORT
p3708
aVNONE
p3709
aVSOLO
p3710
aVDUO_CARRY
p3711
aVSOLO
p3712
aVSOLO
p3713
aVDUO_SUPPORT
p3714
aVNONE
p3715
aVSOLO
p3716
aVSOLO
p3717
aVDUO_CARRY
p3718
aVDUO_SUPPORT
p3719
aVNONE
p3720
aVSOLO
p3721
aVSOLO
p3722
aVDUO_CARRY
p3723
aVNONE
p3724
aVDUO_SUPPORT
p3725
aVSOLO
p3726
aVSOLO
p3727
aVDUO_SUPPORT
p3728
aVNONE
p3729
aVDUO_CARRY
p3730
aVSOLO
p3731
aVNONE
p3732
aVDUO_SUPPORT
p3733
aVSOLO
p3734
aVDUO_CARRY
p3735
aVDUO_SUPPORT
p3736
aVDUO_CARRY
p3737
aVSOLO
p3738
aVNONE
p3739
aVSOLO
p3740
aVNONE
p3741
aVSOLO
p3742
aVDUO_SUPPORT
p3743
aVDUO_CARRY
p3744
aVSOLO
p3745
aVDUO_CARRY
p3746
aVSOLO
p3747
aVNONE
p3748
aVDUO_SUPPORT
p3749
aVSOLO
p3750
aVSOLO
p3751
aVSOLO
p3752
aVNONE
p3753
aVDUO_CARRY
p3754
aVDUO_SUPPORT
p3755
aVSOLO
p3756
aVSOLO
p3757
aVNONE
p3758
aVDUO_CARRY
p3759
aVDUO_SUPPORT
p3760
aVSOLO
p3761
aVDUO
p3762
aVNONE
p3763
aVSOLO
p3764
aVDUO
p3765
aVNONE
p3766
aVDUO
p3767
aVSOLO
p3768
aVDUO
p3769
aVSOLO
p3770
aVSOLO
p3771
aVSOLO
p3772
aVNONE
p3773
aVDUO_CARRY
p3774
aVDUO_SUPPORT
p3775
aVDUO_SUPPORT
p3776
aVSOLO
p3777
aVNONE
p3778
aVSOLO
p3779
aVDUO_CARRY
p3780
aVSOLO
p3781
aVDUO_CARRY
p3782
aVDUO_SUPPORT
p3783
aVNONE
p3784
aVSOLO
p3785
aVDUO_SUPPORT
p3786
aVDUO_CARRY
p3787
aVNONE
p3788
aVSOLO
p3789
aVSOLO
p3790
aVNONE
p3791
aVSOLO
p3792
aVDUO_CARRY
p3793
aVSOLO
p3794
aVDUO_SUPPORT
p3795
aVDUO_SUPPORT
p3796
aVSOLO
p3797
aVSOLO
p3798
aVDUO_CARRY
p3799
aVNONE
p3800
aVDUO_SUPPORT
p3801
aVSOLO
p3802
aVDUO_CARRY
p3803
aVNONE
p3804
aVSOLO
p3805
aVSOLO
p3806
aVNONE
p3807
aVDUO_CARRY
p3808
aVSOLO
p3809
aVDUO_SUPPORT
p3810
aVDUO_CARRY
p3811
aVSOLO
p3812
aVDUO_SUPPORT
p3813
aVDUO_SUPPORT
p3814
aVDUO_CARRY
p3815
aVSOLO
p3816
aVDUO_CARRY
p3817
aVDUO_SUPPORT
p3818
aVNONE
p3819
aVSOLO
p3820
aVDUO_CARRY
p3821
aVSOLO
p3822
aVNONE
p3823
aVDUO_SUPPORT
p3824
aVSOLO
p3825
aVDUO_CARRY
p3826
aVSOLO
p3827
aVNONE
p3828
aVSOLO
p3829
aVDUO_SUPPORT
p3830
aVDUO_CARRY
p3831
aVSOLO
p3832
aVNONE
p3833
aVSOLO
p3834
aVDUO_SUPPORT
p3835
aVNONE
p3836
aVDUO_SUPPORT
p3837
aVSOLO
p3838
aVDUO_CARRY
p3839
aVSOLO
p3840
aVDUO_CARRY
p3841
aVSOLO
p3842
aVNONE
p3843
aVDUO_SUPPORT
p3844
aVSOLO
p3845
aVSOLO
p3846
aVDUO_SUPPORT
p3847
aVDUO_CARRY
p3848
aVNONE
p3849
aVSOLO
p3850
aVDUO_CARRY
p3851
aVSOLO
p3852
aVDUO_SUPPORT
p3853
aVNONE
p3854
aVSOLO
p3855
aVSOLO
p3856
aVSOLO
p3857
aVDUO_CARRY
p3858
aVNONE
p3859
aVDUO_SUPPORT
p3860
aVDUO_SUPPORT
p3861
aVNONE
p3862
aVSOLO
p3863
aVSOLO
p3864
aVDUO_CARRY
p3865
aVSOLO
p3866
aVDUO_SUPPORT
p3867
aVSOLO
p3868
aVDUO_CARRY
p3869
aVNONE
p3870
aVDUO_SUPPORT
p3871
aVDUO_CARRY
p3872
aVSOLO
p3873
aVNONE
p3874
aVSOLO
p3875
aVNONE
p3876
aVNONE
p3877
aVDUO_SUPPORT
p3878
aVDUO_CARRY
p3879
aVNONE
p3880
aVNONE
p3881
aVSOLO
p3882
aVDUO_SUPPORT
p3883
aVSOLO
p3884
aVDUO_CARRY
p3885
aVDUO_CARRY
p3886
aVSOLO
p3887
aVNONE
p3888
aVDUO_SUPPORT
p3889
aVSOLO
p3890
aVDUO
p3891
aVSOLO
p3892
aVDUO
p3893
aVNONE
p3894
aVSOLO
p3895
aVDUO
p3896
aVSOLO
p3897
aVSOLO
p3898
aVNONE
p3899
aVDUO
p3900
aVSOLO
p3901
aVNONE
p3902
aVDUO
p3903
aVDUO
p3904
aVSOLO
p3905
aVNONE
p3906
aVDUO
p3907
aVDUO
p3908
aVSOLO
p3909
aVSOLO
p3910
aVSOLO
p3911
aVSOLO
p3912
aVDUO_CARRY
p3913
aVDUO_SUPPORT
p3914
aVNONE
p3915
aVNONE
p3916
aVSOLO
p3917
aVSOLO
p3918
aVDUO_CARRY
p3919
aVDUO_SUPPORT
p3920
aVDUO_CARRY
p3921
aVSOLO
p3922
aVSOLO
p3923
aVDUO_SUPPORT
p3924
aVNONE
p3925
aVDUO_CARRY
p3926
aVNONE
p3927
aVSOLO
p3928
aVSOLO
p3929
aVDUO_SUPPORT
p3930
aVDUO_CARRY
p3931
aVSOLO
p3932
aVNONE
p3933
aVDUO_SUPPORT
p3934
aVSOLO
p3935
aVDUO_CARRY
p3936
aVSOLO
p3937
aVDUO_SUPPORT
p3938
aVNONE
p3939
aVSOLO
p3940
aVNONE
p3941
aVSOLO
p3942
aVDUO_CARRY
p3943
aVSOLO
p3944
aVDUO_SUPPORT
p3945
aVNONE
p3946
aVDUO_CARRY
p3947
aVSOLO
p3948
aVDUO_SUPPORT
p3949
aVSOLO
p3950
aVDUO_SUPPORT
p3951
aVSOLO
p3952
aVSOLO
p3953
aVDUO_CARRY
p3954
aVNONE
p3955
aVDUO_CARRY
p3956
aVNONE
p3957
aVSOLO
p3958
aVSOLO
p3959
aVDUO_SUPPORT
p3960
aVDUO_CARRY
p3961
aVDUO_SUPPORT
p3962
aVNONE
p3963
aVSOLO
p3964
aVSOLO
p3965
aVNONE
p3966
aVDUO_CARRY
p3967
aVSOLO
p3968
aVDUO_SUPPORT
p3969
aVSOLO
p3970
aVSOLO
p3971
aVDUO_CARRY
p3972
aVDUO_SUPPORT
p3973
aVSOLO
p3974
aVNONE
p3975
aVNONE
p3976
aVDUO_CARRY
p3977
aVDUO_SUPPORT
p3978
aVSOLO
p3979
aVSOLO
p3980
aVSOLO
p3981
aVNONE
p3982
aVDUO_CARRY
p3983
aVSOLO
p3984
aVDUO_SUPPORT
p3985
aVNONE
p3986
aVDUO_SUPPORT
p3987
aVDUO_CARRY
p3988
aVSOLO
p3989
aVSOLO
p3990
aVNONE
p3991
aVSOLO
p3992
aVDUO_SUPPORT
p3993
aVSOLO
p3994
aVDUO_CARRY
p3995
aVSOLO
p3996
aVDUO_CARRY
p3997
aVDUO_SUPPORT
p3998
aVSOLO
p3999
aVNONE
p4000
aVNONE
p4001
aVNONE
p4002
aVNONE
p4003
aVNONE
p4004
aVDUO
p4005
aVDUO
p4006
aVDUO_CARRY
p4007
aVSOLO
p4008
aVNONE
p4009
aVDUO_SUPPORT
p4010
aVSOLO
p4011
aVDUO_CARRY
p4012
aVDUO_SUPPORT
p4013
aVDUO_SUPPORT
p4014
aVNONE
p4015
aVDUO_CARRY
p4016
aVSOLO
p4017
aVSOLO
p4018
aVNONE
p4019
aVDUO_SUPPORT
p4020
aVDUO_CARRY
p4021
aVNONE
p4022
aVDUO_CARRY
p4023
aVSOLO
p4024
aVSOLO
p4025
aVDUO_SUPPORT
p4026
aVDUO_CARRY
p4027
aVNONE
p4028
aVSOLO
p4029
aVSOLO
p4030
aVDUO_SUPPORT
p4031
aVDUO_CARRY
p4032
aVNONE
p4033
aVSOLO
p4034
aVSOLO
p4035
aVDUO_SUPPORT
p4036
aVNONE
p4037
aVDUO_CARRY
p4038
aVSOLO
p4039
aVSOLO
p4040
aVDUO_SUPPORT
p4041
aVSOLO
p4042
aVDUO_CARRY
p4043
aVSOLO
p4044
aVNONE
p4045
aVDUO_SUPPORT
p4046
aVDUO_CARRY
p4047
aVNONE
p4048
aVDUO_SUPPORT
p4049
aVSOLO
p4050
aVSOLO
p4051
aVDUO_CARRY
p4052
aVSOLO
p4053
aVDUO_SUPPORT
p4054
aVSOLO
p4055
aVNONE
p4056
aVSOLO
p4057
aVDUO_SUPPORT
p4058
aVNONE
p4059
aVDUO_CARRY
p4060
aVSOLO
p4061
aVNONE
p4062
aVDUO_SUPPORT
p4063
aVSOLO
p4064
aVSOLO
p4065
aVDUO_CARRY
p4066
aVSOLO
p4067
aVDUO_SUPPORT
p4068
aVSOLO
p4069
aVDUO_CARRY
p4070
aVNONE
p4071
aVSOLO
p4072
aVDUO_SUPPORT
p4073
aVDUO_CARRY
p4074
aVSOLO
p4075
aVNONE
p4076
aVSOLO
p4077
aVNONE
p4078
aVNONE
p4079
aVSOLO
p4080
aVNONE
p4081
aVNONE
p4082
aVDUO_SUPPORT
p4083
aVSOLO
p4084
aVSOLO
p4085
aVDUO_CARRY
p4086
aVDUO_SUPPORT
p4087
aVSOLO
p4088
aVSOLO
p4089
aVNONE
p4090
aVDUO_CARRY
p4091
aVSOLO
p4092
aVNONE
p4093
aVDUO_CARRY
p4094
aVSOLO
p4095
aVDUO_SUPPORT
p4096
aVNONE
p4097
aVDUO_CARRY
p4098
aVSOLO
p4099
aVDUO_SUPPORT
p4100
aVSOLO
p4101
aVDUO_SUPPORT
p4102
aVDUO_CARRY
p4103
aVNONE
p4104
aVSOLO
p4105
aVSOLO
p4106
aVSOLO
p4107
aVNONE
p4108
aVSOLO
p4109
aVNONE
p4110
aVSOLO
p4111
aVDUO_CARRY
p4112
aVDUO_SUPPORT
p4113
aVSOLO
p4114
aVSOLO
p4115
aVNONE
p4116
aVSOLO
p4117
aVSOLO
p4118
aVNONE
p4119
aVDUO_SUPPORT
p4120
aVDUO_CARRY
p4121
aVNONE
p4122
aVDUO_CARRY
p4123
aVSOLO
p4124
aVSOLO
p4125
aVDUO_SUPPORT
p4126
aVNONE
p4127
aVSOLO
p4128
aVDUO_SUPPORT
p4129
aVSOLO
p4130
aVDUO_CARRY
p4131
aVDUO_CARRY
p4132
aVSOLO
p4133
aVSOLO
p4134
aVDUO_SUPPORT
p4135
aVNONE
p4136
aVSOLO
p4137
aVNONE
p4138
aVDUO_SUPPORT
p4139
aVNONE
p4140
aVDUO_CARRY
p4141
aVDUO_CARRY
p4142
aVDUO_SUPPORT
p4143
aVNONE
p4144
aVSOLO
p4145
aVSOLO
p4146
aVSOLO
p4147
aVSOLO
p4148
aVDUO_SUPPORT
p4149
aVDUO_CARRY
p4150
aVNONE
p4151
aVDUO_SUPPORT
p4152
aVSOLO
p4153
aVNONE
p4154
aVDUO_CARRY
p4155
aVSOLO
p4156
aVSOLO
p4157
aVDUO_CARRY
p4158
aVNONE
p4159
aVDUO_SUPPORT
p4160
aVSOLO
p4161
aVSOLO
p4162
aVDUO_CARRY
p4163
aVDUO_SUPPORT
p4164
aVNONE
p4165
aVSOLO
p4166
aVSOLO
p4167
aVDUO_CARRY
p4168
aVDUO_SUPPORT
p4169
aVNONE
p4170
aVSOLO
p4171
aVNONE
p4172
aVSOLO
p4173
aVSOLO
p4174
aVDUO_CARRY
p4175
aVDUO_SUPPORT
p4176
aVDUO_SUPPORT
p4177
aVSOLO
p4178
aVNONE
p4179
aVSOLO
p4180
aVDUO_CARRY
p4181
aVDUO_CARRY
p4182
aVSOLO
p4183
aVDUO_SUPPORT
p4184
aVSOLO
p4185
aVNONE
p4186
aVDUO_CARRY
p4187
aVDUO_SUPPORT
p4188
aVSOLO
p4189
aVSOLO
p4190
aVNONE
p4191
aVSOLO
p4192
aVNONE
p4193
aVDUO_CARRY
p4194
aVDUO_SUPPORT
p4195
aVNONE
p4196
aVDUO_CARRY
p4197
aVSOLO
p4198
aVSOLO
p4199
aVNONE
p4200
aVDUO_SUPPORT
p4201
aVSOLO
p4202
aVNONE
p4203
aVDUO_SUPPORT
p4204
aVDUO_CARRY
p4205
aVSOLO
p4206
aVSOLO
p4207
aVDUO_SUPPORT
p4208
aVDUO_CARRY
p4209
aVNONE
p4210
aVSOLO
p4211
aVDUO_CARRY
p4212
aVSOLO
p4213
aVSOLO
p4214
aVNONE
p4215
aVDUO_SUPPORT
p4216
aVNONE
p4217
aVSOLO
p4218
aVDUO_SUPPORT
p4219
aVDUO_CARRY
p4220
aVSOLO
p4221
aVNONE
p4222
aVDUO_SUPPORT
p4223
aVDUO_CARRY
p4224
aVSOLO
p4225
aVSOLO
p4226
aVSOLO
p4227
aVDUO_SUPPORT
p4228
aVDUO_CARRY
p4229
aVSOLO
p4230
aVNONE
p4231
aVSOLO
p4232
aVSOLO
p4233
aVDUO_CARRY
p4234
aVDUO_SUPPORT
p4235
aVNONE
p4236
aVNONE
p4237
aVDUO_CARRY
p4238
aVSOLO
p4239
aVSOLO
p4240
aVDUO_SUPPORT
p4241
aVSOLO
p4242
aVDUO_CARRY
p4243
aVDUO_SUPPORT
p4244
aVNONE
p4245
aVSOLO
p4246
aVDUO_CARRY
p4247
aVSOLO
p4248
aVSOLO
p4249
aVNONE
p4250
aVDUO_SUPPORT
p4251
aVDUO_CARRY
p4252
aVDUO_SUPPORT
p4253
aVNONE
p4254
aVSOLO
p4255
aVSOLO
p4256
aVDUO_SUPPORT
p4257
aVSOLO
p4258
aVNONE
p4259
aVSOLO
p4260
aVDUO_CARRY
p4261
aVSOLO
p4262
aVDUO_SUPPORT
p4263
aVSOLO
p4264
aVNONE
p4265
aVDUO_CARRY
p4266
aVDUO_CARRY
p4267
aVSOLO
p4268
aVDUO_SUPPORT
p4269
aVSOLO
p4270
aVNONE
p4271
aVDUO_CARRY
p4272
aVDUO_SUPPORT
p4273
aVSOLO
p4274
aVNONE
p4275
aVSOLO
p4276
aVDUO_CARRY
p4277
aVSOLO
p4278
aVSOLO
p4279
aVDUO_SUPPORT
p4280
aVNONE
p4281
aVNONE
p4282
aVSOLO
p4283
aVDUO_CARRY
p4284
aVSOLO
p4285
aVDUO_SUPPORT
p4286
aVDUO_CARRY
p4287
aVDUO_SUPPORT
p4288
aVSOLO
p4289
aVSOLO
p4290
aVNONE
p4291
aVNONE
p4292
aVSOLO
p4293
aVSOLO
p4294
aVDUO_SUPPORT
p4295
aVDUO_CARRY
p4296
aVSOLO
p4297
aVDUO_CARRY
p4298
aVNONE
p4299
aVSOLO
p4300
aVDUO_SUPPORT
p4301
aVSOLO
p4302
aVNONE
p4303
aVDUO_SUPPORT
p4304
aVDUO_CARRY
p4305
aVSOLO
p4306
aVSOLO
p4307
aVNONE
p4308
aVSOLO
p4309
aVDUO_SUPPORT
p4310
aVDUO_CARRY
p4311
aVSOLO
p4312
aVNONE
p4313
aVDUO_CARRY
p4314
aVSOLO
p4315
aVDUO_SUPPORT
p4316
aVSOLO
p4317
aVNONE
p4318
aVDUO_CARRY
p4319
aVSOLO
p4320
aVDUO_SUPPORT
p4321
aVDUO_CARRY
p4322
aVSOLO
p4323
aVNONE
p4324
aVSOLO
p4325
aVDUO_SUPPORT
p4326
aVDUO_CARRY
p4327
aVDUO_CARRY
p4328
aVSOLO
p4329
aVDUO_SUPPORT
p4330
aVDUO_SUPPORT
p4331
aVDUO_CARRY
p4332
aVDUO_SUPPORT
p4333
aVDUO
p4334
aVSOLO
p4335
aVDUO
p4336
aVNONE
p4337
aVDUO
p4338
aVSOLO
p4339
aVDUO
p4340
aVSOLO
p4341
aVNONE
p4342
aVNONE
p4343
aVSOLO
p4344
aVDUO_SUPPORT
p4345
aVDUO_CARRY
p4346
aVSOLO
p4347
aVSOLO
p4348
aVSOLO
p4349
aVNONE
p4350
aVNONE
p4351
aVDUO_CARRY
p4352
aVDUO_SUPPORT
p4353
aVSOLO
p4354
aVNONE
p4355
aVSOLO
p4356
aVSOLO
p4357
aVSOLO
p4358
aVNONE
p4359
aVSOLO
p4360
aVNONE
p4361
aVDUO_SUPPORT
p4362
aVSOLO
p4363
aVDUO_CARRY
p4364
aVNONE
p4365
aVSOLO
p4366
aVSOLO
p4367
aVDUO_SUPPORT
p4368
aVDUO_CARRY
p4369
aVNONE
p4370
aVSOLO
p4371
aVDUO
p4372
aVDUO
p4373
aVNONE
p4374
aVSOLO
p4375
aVSOLO
p4376
aVSOLO
p4377
aVDUO_CARRY
p4378
aVDUO_SUPPORT
p4379
aVNONE
p4380
aVSOLO
p4381
aVSOLO
p4382
aVSOLO
p4383
aVDUO_CARRY
p4384
aVNONE
p4385
aVDUO_SUPPORT
p4386
aVDUO_SUPPORT
p4387
aVNONE
p4388
aVSOLO
p4389
aVDUO_CARRY
p4390
aVSOLO
p4391
aVDUO_CARRY
p4392
aVDUO_SUPPORT
p4393
aVNONE
p4394
aVSOLO
p4395
aVSOLO
p4396
aVNONE
p4397
aVSOLO
p4398
aVDUO_CARRY
p4399
aVDUO_SUPPORT
p4400
aVSOLO
p4401
aVDUO_CARRY
p4402
aVDUO_SUPPORT
p4403
aVDUO_SUPPORT
p4404
aVDUO_CARRY
p4405
aVSOLO
p4406
aVSOLO
p4407
aVSOLO
p4408
aVDUO_SUPPORT
p4409
aVNONE
p4410
aVDUO_CARRY
p4411
aVSOLO
p4412
aVSOLO
p4413
aVDUO_SUPPORT
p4414
aVNONE
p4415
aVDUO_CARRY
p4416
aVSOLO
p4417
aVNONE
p4418
aVSOLO
p4419
aVDUO_SUPPORT
p4420
aVDUO_CARRY
p4421
aVSOLO
p4422
aVSOLO
p4423
aVDUO_SUPPORT
p4424
aVNONE
p4425
aVDUO_CARRY
p4426
aVSOLO
p4427
aVSOLO
p4428
aVNONE
p4429
aVDUO_CARRY
p4430
aVDUO_SUPPORT
p4431
aVDUO_CARRY
p4432
aVDUO_SUPPORT
p4433
aVSOLO
p4434
aVNONE
p4435
aVSOLO
p4436
aVNONE
p4437
aVSOLO
p4438
aVDUO_SUPPORT
p4439
aVDUO_CARRY
p4440
aVSOLO
p4441
aVDUO_SUPPORT
p4442
aVSOLO
p4443
aVSOLO
p4444
aVDUO_CARRY
p4445
aVNONE
p4446
aVDUO_SUPPORT
p4447
aVDUO_CARRY
p4448
aVNONE
p4449
aVSOLO
p4450
aVSOLO
p4451
aVSOLO
p4452
aVSOLO
p4453
aVDUO_SUPPORT
p4454
aVDUO_CARRY
p4455
aVNONE
p4456
aVSOLO
p4457
aVNONE
p4458
aVNONE
p4459
aVNONE
p4460
aVDUO
p4461
aVDUO
p4462
aVSOLO
p4463
aVNONE
p4464
aVDUO_CARRY
p4465
aVDUO_SUPPORT
p4466
aVSOLO
p4467
aVDUO_CARRY
p4468
aVSOLO
p4469
aVNONE
p4470
aVSOLO
p4471
aVDUO_SUPPORT
p4472
aVSOLO
p4473
aVSOLO
p4474
aVNONE
p4475
aVDUO_CARRY
p4476
aVDUO_SUPPORT
p4477
aVDUO_CARRY
p4478
aVSOLO
p4479
aVNONE
p4480
aVDUO_SUPPORT
p4481
aVSOLO
p4482
aVDUO
p4483
aVSOLO
p4484
aVSOLO
p4485
aVNONE
p4486
aVDUO
p4487
aVDUO_CARRY
p4488
aVDUO_SUPPORT
p4489
aVNONE
p4490
aVSOLO
p4491
aVSOLO
p4492
aVNONE
p4493
aVDUO_SUPPORT
p4494
aVSOLO
p4495
aVDUO_CARRY
p4496
aVSOLO
p4497
aVDUO_SUPPORT
p4498
aVSOLO
p4499
aVDUO_CARRY
p4500
aVSOLO
p4501
aVNONE
p4502
aVSOLO
p4503
aVNONE
p4504
aVDUO_CARRY
p4505
aVSOLO
p4506
aVDUO_SUPPORT
p4507
aVSOLO
p4508
aVDUO_SUPPORT
p4509
aVNONE
p4510
aVSOLO
p4511
aVDUO_CARRY
p4512
aVNONE
p4513
aVNONE
p4514
aVSOLO
p4515
aVNONE
p4516
aVNONE
p4517
aVNONE
p4518
aVNONE
p4519
aVSOLO
p4520
aVSOLO
p4521
aVDUO_CARRY
p4522
aVDUO_SUPPORT
p4523
aVDUO_SUPPORT
p4524
aVSOLO
p4525
aVDUO_CARRY
p4526
aVNONE
p4527
aVSOLO
p4528
aVSOLO
p4529
aVSOLO
p4530
aVNONE
p4531
aVDUO_CARRY
p4532
aVDUO_SUPPORT
p4533
aVDUO_CARRY
p4534
aVSOLO
p4535
aVNONE
p4536
aVDUO_SUPPORT
p4537
aVSOLO
p4538
aVSOLO
p4539
aVSOLO
p4540
aVDUO_SUPPORT
p4541
aVNONE
p4542
aVDUO_CARRY
p4543
aVDUO_CARRY
p4544
aVSOLO
p4545
aVSOLO
p4546
aVDUO_SUPPORT
p4547
aVNONE
p4548
aVSOLO
p4549
aVSOLO
p4550
aVDUO_CARRY
p4551
aVNONE
p4552
aVDUO_SUPPORT
p4553
aVDUO_CARRY
p4554
aVSOLO
p4555
aVNONE
p4556
aVSOLO
p4557
aVDUO_SUPPORT
p4558
aVSOLO
p4559
aVDUO_SUPPORT
p4560
aVDUO_CARRY
p4561
aVSOLO
p4562
aVNONE
p4563
aVDUO_CARRY
p4564
aVDUO_SUPPORT
p4565
aVSOLO
p4566
aVSOLO
p4567
aVNONE
p4568
aVSOLO
p4569
aVNONE
p4570
aVDUO_CARRY
p4571
aVSOLO
p4572
aVDUO_SUPPORT
p4573
aVSOLO
p4574
aVDUO_SUPPORT
p4575
aVNONE
p4576
aVSOLO
p4577
aVDUO_CARRY
p4578
aVNONE
p4579
aVDUO_CARRY
p4580
aVSOLO
p4581
aVNONE
p4582
aVDUO_SUPPORT
p4583
aVNONE
p4584
aVSOLO
p4585
aVDUO_SUPPORT
p4586
aVSOLO
p4587
aVDUO_CARRY
p4588
aVSOLO
p4589
aVDUO_CARRY
p4590
aVSOLO
p4591
aVNONE
p4592
aVDUO_SUPPORT
p4593
aVDUO_CARRY
p4594
aVDUO_SUPPORT
p4595
aVSOLO
p4596
aVNONE
p4597
aVSOLO
p4598
aVNONE
p4599
aVSOLO
p4600
aVNONE
p4601
aVNONE
p4602
aVSOLO
p4603
aVSOLO
p4604
aVNONE
p4605
aVDUO
p4606
aVSOLO
p4607
aVDUO
p4608
aVSOLO
p4609
aVDUO_CARRY
p4610
aVSOLO
p4611
aVNONE
p4612
aVDUO_SUPPORT
p4613
aVNONE
p4614
aVSOLO
p4615
aVDUO_CARRY
p4616
aVDUO_SUPPORT
p4617
aVSOLO
p4618
aVSOLO
p4619
aVSOLO
p4620
aVNONE
p4621
aVDUO_SUPPORT
p4622
aVDUO_CARRY
p4623
aVDUO_CARRY
p4624
aVSOLO
p4625
aVNONE
p4626
aVDUO_SUPPORT
p4627
aVSOLO
p4628
aVDUO_SUPPORT
p4629
aVSOLO
p4630
aVSOLO
p4631
aVDUO_CARRY
p4632
aVNONE
p4633
aVSOLO
p4634
aVDUO_SUPPORT
p4635
aVDUO_CARRY
p4636
aVSOLO
p4637
aVNONE
p4638
aVNONE
p4639
aVSOLO
p4640
aVDUO_SUPPORT
p4641
aVSOLO
p4642
aVDUO_CARRY
p4643
aVNONE
p4644
aVSOLO
p4645
aVDUO_SUPPORT
p4646
aVDUO_CARRY
p4647
aVSOLO
p4648
aVSOLO
p4649
aVDUO_SUPPORT
p4650
aVNONE
p4651
aVDUO_CARRY
p4652
aVSOLO
p4653
aVSOLO
p4654
aVSOLO
p4655
aVDUO_CARRY
p4656
aVNONE
p4657
aVDUO_SUPPORT
p4658
aVNONE
p4659
aVSOLO
p4660
aVDUO_CARRY
p4661
aVDUO_SUPPORT
p4662
aVSOLO
p4663
aVSOLO
p4664
aVSOLO
p4665
aVDUO_SUPPORT
p4666
aVDUO_CARRY
p4667
aVNONE
p4668
aVSOLO
p4669
aVSOLO
p4670
aVDUO_CARRY
p4671
aVNONE
p4672
aVDUO_SUPPORT
p4673
aVNONE
p4674
aVSOLO
p4675
aVDUO_SUPPORT
p4676
aVDUO_CARRY
p4677
aVSOLO
p4678
aVNONE
p4679
aVSOLO
p4680
aVDUO_CARRY
p4681
aVDUO_SUPPORT
p4682
aVSOLO
p4683
aVSOLO
p4684
aVNONE
p4685
aVSOLO
p4686
aVDUO_CARRY
p4687
aVDUO_SUPPORT
p4688
aVNONE
p4689
aVDUO_CARRY
p4690
aVSOLO
p4691
aVDUO_SUPPORT
p4692
aVSOLO
p4693
aVNONE
p4694
aVSOLO
p4695
aVDUO_CARRY
p4696
aVSOLO
p4697
aVDUO_SUPPORT
p4698
aVDUO_CARRY
p4699
aVDUO_SUPPORT
p4700
aVNONE
p4701
aVSOLO
p4702
aVSOLO
p4703
aVNONE
p4704
aVSOLO
p4705
aVDUO_CARRY
p4706
aVDUO_SUPPORT
p4707
aVSOLO
p4708
aVSOLO
p4709
aVNONE
p4710
aVDUO_CARRY
p4711
aVDUO_SUPPORT
p4712
aVSOLO
p4713
aVSOLO
p4714
aVDUO_CARRY
p4715
aVDUO_SUPPORT
p4716
aVNONE
p4717
aVSOLO
p4718
aVDUO_CARRY
p4719
aVDUO_SUPPORT
p4720
aVNONE
p4721
aVSOLO
p4722
aVSOLO
p4723
aVDUO_SUPPORT
p4724
aVNONE
p4725
aVDUO_CARRY
p4726
aVSOLO
p4727
aVSOLO
p4728
aVNONE
p4729
aVSOLO
p4730
aVSOLO
p4731
aVDUO_SUPPORT
p4732
aVDUO_CARRY
p4733
aVNONE
p4734
aVSOLO
p4735
aVDUO_CARRY
p4736
aVDUO_SUPPORT
p4737
aVSOLO
p4738
aVDUO_CARRY
p4739
aVSOLO
p4740
aVNONE
p4741
aVDUO_SUPPORT
p4742
aVSOLO
p4743
aVSOLO
p4744
aVDUO_CARRY
p4745
aVDUO_SUPPORT
p4746
aVSOLO
p4747
aVNONE
p4748
aVSOLO
p4749
aVDUO_CARRY
p4750
aVSOLO
p4751
aVNONE
p4752
aVDUO_SUPPORT
p4753
aVDUO_SUPPORT
p4754
aVSOLO
p4755
aVNONE
p4756
aVSOLO
p4757
aVDUO_CARRY
p4758
aVNONE
p4759
aVSOLO
p4760
aVDUO_CARRY
p4761
aVSOLO
p4762
aVDUO_SUPPORT
p4763
aVDUO_CARRY
p4764
aVNONE
p4765
aVSOLO
p4766
aVDUO_SUPPORT
p4767
aVSOLO
p4768
aVSOLO
p4769
aVDUO_CARRY
p4770
aVNONE
p4771
aVDUO_SUPPORT
p4772
aVSOLO
p4773
aVDUO_SUPPORT
p4774
aVSOLO
p4775
aVSOLO
p4776
aVNONE
p4777
aVDUO_CARRY
p4778
aVSOLO
p4779
aVDUO_CARRY
p4780
aVNONE
p4781
aVDUO_SUPPORT
p4782
aVSOLO
p4783
aVSOLO
p4784
aVNONE
p4785
aVSOLO
p4786
aVSOLO
p4787
aVNONE
p4788
aVDUO_CARRY
p4789
aVSOLO
p4790
aVDUO_SUPPORT
p4791
aVNONE
p4792
aVSOLO
p4793
aVSOLO
p4794
aVDUO_SUPPORT
p4795
aVSOLO
p4796
aVNONE
p4797
aVDUO_CARRY
p4798
aVDUO_SUPPORT
p4799
aVNONE
p4800
aVSOLO
p4801
aVDUO_CARRY
p4802
aVSOLO
p4803
aVNONE
p4804
aVSOLO
p4805
aVDUO_CARRY
p4806
aVSOLO
p4807
aVDUO_SUPPORT
p4808
aVNONE
p4809
aVDUO_CARRY
p4810
aVSOLO
p4811
aVDUO_SUPPORT
p4812
aVSOLO
p4813
aVDUO_SUPPORT
p4814
aVSOLO
p4815
aVSOLO
p4816
aVNONE
p4817
aVDUO_CARRY
p4818
aVDUO_CARRY
p4819
aVSOLO
p4820
aVDUO_SUPPORT
p4821
aVNONE
p4822
aVSOLO
p4823
aVSOLO
p4824
aVDUO_CARRY
p4825
aVDUO_SUPPORT
p4826
aVSOLO
p4827
aVNONE
p4828
aVDUO_CARRY
p4829
aVSOLO
p4830
aVDUO_SUPPORT
p4831
aVSOLO
p4832
aVNONE
p4833
aVSOLO
p4834
aVSOLO
p4835
aVDUO_SUPPORT
p4836
aVNONE
p4837
aVDUO_CARRY
p4838
aVSOLO
p4839
aVNONE
p4840
aVSOLO
p4841
aVSOLO
p4842
aVNONE
p4843
aVNONE
p4844
aVNONE
p4845
aVNONE
p4846
aVSOLO
p4847
aVNONE
p4848
aVNONE
p4849
aVDUO_SUPPORT
p4850
aVSOLO
p4851
aVSOLO
p4852
aVDUO_CARRY
p4853
aVDUO_SUPPORT
p4854
aVSOLO
p4855
aVDUO_CARRY
p4856
aVNONE
p4857
aVSOLO
p4858
aVDUO_CARRY
p4859
aVNONE
p4860
aVSOLO
p4861
aVDUO_SUPPORT
p4862
aVSOLO
p4863
aVNONE
p4864
aVDUO_SUPPORT
p4865
aVSOLO
p4866
aVDUO_CARRY
p4867
aVNONE
p4868
aVSOLO
p4869
aVSOLO
p4870
aVNONE
p4871
aVDUO_SUPPORT
p4872
aVDUO_CARRY
p4873
aVDUO_CARRY
p4874
aVSOLO
p4875
aVDUO_SUPPORT
p4876
aVNONE
p4877
aVSOLO
p4878
aVDUO_CARRY
p4879
aVDUO_SUPPORT
p4880
aVSOLO
p4881
aVSOLO
p4882
aVNONE
p4883
aVDUO_CARRY
p4884
aVDUO_SUPPORT
p4885
aVSOLO
p4886
aVSOLO
p4887
aVNONE
p4888
aVNONE
p4889
aVDUO_SUPPORT
p4890
aVSOLO
p4891
aVDUO_CARRY
p4892
aVSOLO
p4893
aVNONE
p4894
aVDUO_CARRY
p4895
aVSOLO
p4896
aVSOLO
p4897
aVDUO_SUPPORT
p4898
a.