(lp0
VNONE
p1
aVDUO_SUPPORT
p2
aVDUO_CARRY
p3
aVSOLO
p4
aVSOLO
p5
aVSOLO
p6
aVDUO_CARRY
p7
aVSOLO
p8
aVNONE
p9
aVDUO_SUPPORT
p10
aVDUO_CARRY
p11
aVNONE
p12
aVSOLO
p13
aVDUO_SUPPORT
p14
aVSOLO
p15
aVNONE
p16
aVSOLO
p17
aVSOLO
p18
aVNONE
p19
aVNONE
p20
aVNONE
p21
aVDUO_SUPPORT
p22
aVSOLO
p23
aVSOLO
p24
aVDUO_CARRY
p25
aVSOLO
p26
aVDUO
p27
aVDUO
p28
aVDUO
p29
aVDUO
p30
aVNONE
p31
aVDUO_CARRY
p32
aVDUO_SUPPORT
p33
aVSOLO
p34
aVSOLO
p35
aVSOLO
p36
aVDUO_CARRY
p37
aVDUO_SUPPORT
p38
aVSOLO
p39
aVNONE
p40
aVNONE
p41
aVSOLO
p42
aVDUO_SUPPORT
p43
aVDUO_CARRY
p44
aVSOLO
p45
aVNONE
p46
aVSOLO
p47
aVSOLO
p48
aVDUO_SUPPORT
p49
aVDUO_CARRY
p50
aVSOLO
p51
aVDUO_CARRY
p52
aVDUO_SUPPORT
p53
aVNONE
p54
aVSOLO
p55
aVDUO_CARRY
p56
aVSOLO
p57
aVNONE
p58
aVSOLO
p59
aVDUO_SUPPORT
p60
aVNONE
p61
aVSOLO
p62
aVDUO_SUPPORT
p63
aVSOLO
p64
aVDUO_CARRY
p65
aVSOLO
p66
aVDUO_SUPPORT
p67
aVSOLO
p68
aVDUO_CARRY
p69
aVNONE
p70
aVSOLO
p71
aVSOLO
p72
aVNONE
p73
aVDUO_SUPPORT
p74
aVDUO_CARRY
p75
aVDUO_CARRY
p76
aVDUO_SUPPORT
p77
aVNONE
p78
aVSOLO
p79
aVSOLO
p80
aVSOLO
p81
aVDUO_CARRY
p82
aVNONE
p83
aVSOLO
p84
aVDUO_SUPPORT
p85
aVSOLO
p86
aVDUO_SUPPORT
p87
aVSOLO
p88
aVNONE
p89
aVDUO_CARRY
p90
aVDUO_CARRY
p91
aVSOLO
p92
aVSOLO
p93
aVDUO_SUPPORT
p94
aVNONE
p95
aVSOLO
p96
aVNONE
p97
aVDUO_CARRY
p98
aVDUO_SUPPORT
p99
aVSOLO
p100
aVSOLO
p101
aVNONE
p102
aVDUO_SUPPORT
p103
aVDUO_CARRY
p104
aVSOLO
p105
aVNONE
p106
aVNONE
p107
aVNONE
p108
aVDUO_CARRY
p109
aVNONE
p110
aVSOLO
p111
aVSOLO
p112
aVDUO_SUPPORT
p113
aVSOLO
p114
aVDUO_CARRY
p115
aVSOLO
p116
aVDUO_SUPPORT
p117
aVNONE
p118
aVDUO_CARRY
p119
aVNONE
p120
aVNONE
p121
aVNONE
p122
aVDUO_SUPPORT
p123
aVSOLO
p124
aVNONE
p125
aVSOLO
p126
aVNONE
p127
aVSOLO
p128
aVNONE
p129
aVSOLO
p130
aVDUO_CARRY
p131
aVDUO_SUPPORT
p132
aVSOLO
p133
aVNONE
p134
aVDUO
p135
aVSOLO
p136
aVDUO
p137
aVSOLO
p138
aVSOLO
p139
aVDUO
p140
aVSOLO
p141
aVDUO
p142
aVNONE
p143
aVNONE
p144
aVSOLO
p145
aVSOLO
p146
aVDUO_CARRY
p147
aVDUO_SUPPORT
p148
aVDUO_SUPPORT
p149
aVNONE
p150
aVDUO_CARRY
p151
aVSOLO
p152
aVSOLO
p153
aVDUO_SUPPORT
p154
aVSOLO
p155
aVNONE
p156
aVSOLO
p157
aVDUO_CARRY
p158
aVDUO_SUPPORT
p159
aVDUO_CARRY
p160
aVSOLO
p161
aVNONE
p162
aVSOLO
p163
aVNONE
p164
aVDUO_CARRY
p165
aVSOLO
p166
aVSOLO
p167
aVDUO_SUPPORT
p168
aVDUO_SUPPORT
p169
aVDUO_CARRY
p170
aVSOLO
p171
aVSOLO
p172
aVNONE
p173
aVNONE
p174
aVSOLO
p175
aVSOLO
p176
aVDUO_CARRY
p177
aVDUO_SUPPORT
p178
aVDUO_SUPPORT
p179
aVSOLO
p180
aVNONE
p181
aVDUO_CARRY
p182
aVSOLO
p183
aVSOLO
p184
aVDUO_CARRY
p185
aVDUO_SUPPORT
p186
aVNONE
p187
aVSOLO
p188
aVDUO_CARRY
p189
aVNONE
p190
aVDUO_SUPPORT
p191
aVSOLO
p192
aVSOLO
p193
aVNONE
p194
aVSOLO
p195
aVSOLO
p196
aVDUO_SUPPORT
p197
aVDUO_CARRY
p198
aVSOLO
p199
aVDUO_SUPPORT
p200
aVDUO_CARRY
p201
aVNONE
p202
aVSOLO
p203
aVNONE
p204
aVDUO_CARRY
p205
aVNONE
p206
aVSOLO
p207
aVDUO_SUPPORT
p208
aVDUO_CARRY
p209
aVSOLO
p210
aVSOLO
p211
aVDUO_SUPPORT
p212
aVNONE
p213
aVSOLO
p214
aVDUO_CARRY
p215
aVSOLO
p216
aVNONE
p217
aVDUO_SUPPORT
p218
aVNONE
p219
aVDUO_SUPPORT
p220
aVDUO_CARRY
p221
aVSOLO
p222
aVSOLO
p223
aVSOLO
p224
aVDUO_CARRY
p225
aVSOLO
p226
aVNONE
p227
aVDUO_SUPPORT
p228
aVNONE
p229
aVNONE
p230
aVDUO_CARRY
p231
aVDUO_SUPPORT
p232
aVSOLO
p233
aVDUO_CARRY
p234
aVNONE
p235
aVDUO_SUPPORT
p236
aVSOLO
p237
aVSOLO
p238
aVDUO_SUPPORT
p239
aVSOLO
p240
aVDUO_CARRY
p241
aVNONE
p242
aVSOLO
p243
aVDUO_CARRY
p244
aVSOLO
p245
aVDUO_SUPPORT
p246
aVNONE
p247
aVSOLO
p248
aVDUO_SUPPORT
p249
aVSOLO
p250
aVNONE
p251
aVDUO_CARRY
p252
aVSOLO
p253
aVSOLO
p254
aVDUO_CARRY
p255
aVSOLO
p256
aVDUO_SUPPORT
p257
aVNONE
p258
aVNONE
p259
aVSOLO
p260
aVSOLO
p261
aVDUO_SUPPORT
p262
aVDUO_CARRY
p263
aVNONE
p264
aVDUO_CARRY
p265
aVSOLO
p266
aVDUO_SUPPORT
p267
aVSOLO
p268
aVDUO_SUPPORT
p269
aVNONE
p270
aVDUO_CARRY
p271
aVSOLO
p272
aVSOLO
p273
aVNONE
p274
aVSOLO
p275
aVNONE
p276
aVDUO_CARRY
p277
aVDUO_SUPPORT
p278
aVSOLO
p279
aVSOLO
p280
aVDUO_CARRY
p281
aVNONE
p282
aVDUO_SUPPORT
p283
aVSOLO
p284
aVDUO_CARRY
p285
aVNONE
p286
aVSOLO
p287
aVDUO_SUPPORT
p288
aVNONE
p289
aVSOLO
p290
aVDUO_SUPPORT
p291
aVSOLO
p292
aVDUO_CARRY
p293
aVSOLO
p294
aVSOLO
p295
aVNONE
p296
aVSOLO
p297
aVNONE
p298
aVDUO_SUPPORT
p299
aVDUO_CARRY
p300
aVNONE
p301
aVSOLO
p302
aVSOLO
p303
aVSOLO
p304
aVNONE
p305
aVSOLO
p306
aVDUO_SUPPORT
p307
aVDUO_CARRY
p308
aVNONE
p309
aVSOLO
p310
aVDUO_SUPPORT
p311
aVDUO_CARRY
p312
aVSOLO
p313
aVSOLO
p314
aVDUO_SUPPORT
p315
aVNONE
p316
aVSOLO
p317
aVDUO_CARRY
p318
aVSOLO
p319
aVDUO_CARRY
p320
aVSOLO
p321
aVNONE
p322
aVDUO_SUPPORT
p323
aVNONE
p324
aVDUO_CARRY
p325
aVSOLO
p326
aVDUO_SUPPORT
p327
aVSOLO
p328
aVNONE
p329
aVDUO_SUPPORT
p330
aVSOLO
p331
aVDUO_CARRY
p332
aVSOLO
p333
aVNONE
p334
aVSOLO
p335
aVDUO_CARRY
p336
aVDUO_SUPPORT
p337
aVNONE
p338
aVSOLO
p339
aVDUO_CARRY
p340
aVDUO_SUPPORT
p341
aVSOLO
p342
aVNONE
p343
aVDUO_SUPPORT
p344
aVSOLO
p345
aVDUO_CARRY
p346
aVNONE
p347
aVSOLO
p348
aVSOLO
p349
aVSOLO
p350
aVDUO_CARRY
p351
aVNONE
p352
aVDUO_SUPPORT
p353
aVSOLO
p354
aVNONE
p355
aVSOLO
p356
aVDUO_CARRY
p357
aVDUO_SUPPORT
p358
aVDUO_SUPPORT
p359
aVSOLO
p360
aVDUO_CARRY
p361
aVNONE
p362
aVSOLO
p363
aVNONE
p364
aVNONE
p365
aVSOLO
p366
aVNONE
p367
aVNONE
p368
aVSOLO
p369
aVSOLO
p370
aVDUO_CARRY
p371
aVNONE
p372
aVDUO_SUPPORT
p373
aVSOLO
p374
aVDUO_CARRY
p375
aVDUO_SUPPORT
p376
aVNONE
p377
aVSOLO
p378
aVDUO_CARRY
p379
aVSOLO
p380
aVNONE
p381
aVSOLO
p382
aVDUO_SUPPORT
p383
aVDUO_SUPPORT
p384
aVSOLO
p385
aVNONE
p386
aVSOLO
p387
aVDUO_CARRY
p388
aVDUO_CARRY
p389
aVDUO_SUPPORT
p390
aVSOLO
p391
aVSOLO
p392
aVNONE
p393
aVSOLO
p394
aVSOLO
p395
aVNONE
p396
aVDUO_SUPPORT
p397
aVDUO_CARRY
p398
aVSOLO
p399
aVNONE
p400
aVDUO_CARRY
p401
aVSOLO
p402
aVDUO_SUPPORT
p403
aVSOLO
p404
aVNONE
p405
aVDUO_CARRY
p406
aVSOLO
p407
aVDUO_SUPPORT
p408
aVNONE
p409
aVDUO_SUPPORT
p410
aVDUO_CARRY
p411
aVSOLO
p412
aVSOLO
p413
aVNONE
p414
aVDUO_SUPPORT
p415
aVSOLO
p416
aVSOLO
p417
aVDUO_CARRY
p418
aVSOLO
p419
aVNONE
p420
aVSOLO
p421
aVDUO_CARRY
p422
aVDUO_SUPPORT
p423
aVSOLO
p424
aVDUO_SUPPORT
p425
aVDUO_CARRY
p426
aVNONE
p427
aVSOLO
p428
aVNONE
p429
aVSOLO
p430
aVDUO_CARRY
p431
aVSOLO
p432
aVDUO_SUPPORT
p433
aVDUO_SUPPORT
p434
aVNONE
p435
aVSOLO
p436
aVSOLO
p437
aVDUO_CARRY
p438
aVSOLO
p439
aVNONE
p440
aVDUO_SUPPORT
p441
aVSOLO
p442
aVDUO_CARRY
p443
aVDUO_CARRY
p444
aVSOLO
p445
aVDUO_SUPPORT
p446
aVSOLO
p447
aVNONE
p448
aVSOLO
p449
aVDUO_CARRY
p450
aVDUO_SUPPORT
p451
aVSOLO
p452
aVNONE
p453
aVNONE
p454
aVDUO_SUPPORT
p455
aVSOLO
p456
aVDUO_CARRY
p457
aVSOLO
p458
aVNONE
p459
aVSOLO
p460
aVDUO_SUPPORT
p461
aVSOLO
p462
aVDUO_CARRY
p463
aVSOLO
p464
aVDUO_CARRY
p465
aVNONE
p466
aVSOLO
p467
aVDUO_SUPPORT
p468
aVSOLO
p469
aVNONE
p470
aVDUO_CARRY
p471
aVDUO_SUPPORT
p472
aVSOLO
p473
aVDUO_SUPPORT
p474
aVSOLO
p475
aVNONE
p476
aVSOLO
p477
aVDUO_CARRY
p478
aVNONE
p479
aVDUO_CARRY
p480
aVSOLO
p481
aVDUO_SUPPORT
p482
aVSOLO
p483
aVSOLO
p484
aVDUO_CARRY
p485
aVSOLO
p486
aVDUO_SUPPORT
p487
aVNONE
p488
aVDUO_CARRY
p489
aVNONE
p490
aVDUO_SUPPORT
p491
aVSOLO
p492
aVSOLO
p493
aVNONE
p494
aVSOLO
p495
aVSOLO
p496
aVDUO_SUPPORT
p497
aVDUO_CARRY
p498
aVDUO_CARRY
p499
aVSOLO
p500
aVNONE
p501
aVDUO_SUPPORT
p502
aVSOLO
p503
aVDUO_CARRY
p504
aVSOLO
p505
aVDUO_SUPPORT
p506
aVSOLO
p507
aVNONE
p508
aVSOLO
p509
aVDUO_SUPPORT
p510
aVNONE
p511
aVDUO_CARRY
p512
aVSOLO
p513
aVSOLO
p514
aVDUO_SUPPORT
p515
aVNONE
p516
aVSOLO
p517
aVDUO_CARRY
p518
aVSOLO
p519
aVDUO_CARRY
p520
aVDUO_SUPPORT
p521
aVSOLO
p522
aVNONE
p523
aVDUO_SUPPORT
p524
aVSOLO
p525
aVDUO_CARRY
p526
aVSOLO
p527
aVNONE
p528
aVDUO_SUPPORT
p529
aVSOLO
p530
aVSOLO
p531
aVNONE
p532
aVDUO_CARRY
p533
aVSOLO
p534
aVDUO_CARRY
p535
aVDUO_SUPPORT
p536
aVSOLO
p537
aVNONE
p538
aVDUO_SUPPORT
p539
aVSOLO
p540
aVNONE
p541
aVSOLO
p542
aVDUO_CARRY
p543
aVNONE
p544
aVDUO_SUPPORT
p545
aVSOLO
p546
aVSOLO
p547
aVDUO_CARRY
p548
aVSOLO
p549
aVDUO_CARRY
p550
aVDUO_SUPPORT
p551
aVNONE
p552
aVSOLO
p553
aVSOLO
p554
aVDUO_SUPPORT
p555
aVDUO_CARRY
p556
aVSOLO
p557
aVNONE
p558
aVSOLO
p559
aVSOLO
p560
aVNONE
p561
aVSOLO
p562
aVNONE
p563
aVSOLO
p564
aVNONE
p565
aVDUO_CARRY
p566
aVDUO_SUPPORT
p567
aVSOLO
p568
aVNONE
p569
aVSOLO
p570
aVNONE
p571
aVSOLO
p572
aVSOLO
p573
aVSOLO
p574
aVDUO_SUPPORT
p575
aVDUO_CARRY
p576
aVNONE
p577
aVSOLO
p578
aVDUO_CARRY
p579
aVDUO_SUPPORT
p580
aVSOLO
p581
aVSOLO
p582
aVNONE
p583
aVSOLO
p584
aVDUO_CARRY
p585
aVSOLO
p586
aVDUO_SUPPORT
p587
aVNONE
p588
aVDUO_SUPPORT
p589
aVDUO_CARRY
p590
aVSOLO
p591
aVSOLO
p592
aVNONE
p593
aVDUO_SUPPORT
p594
aVDUO_CARRY
p595
aVSOLO
p596
aVNONE
p597
aVSOLO
p598
aVNONE
p599
aVDUO_CARRY
p600
aVSOLO
p601
aVSOLO
p602
aVDUO_SUPPORT
p603
aVSOLO
p604
aVDUO_SUPPORT
p605
aVNONE
p606
aVSOLO
p607
aVDUO_CARRY
p608
aVDUO_SUPPORT
p609
aVSOLO
p610
aVSOLO
p611
aVNONE
p612
aVDUO_CARRY
p613
aVSOLO
p614
aVDUO_SUPPORT
p615
aVDUO_CARRY
p616
aVNONE
p617
aVNONE
p618
aVDUO_CARRY
p619
aVNONE
p620
aVSOLO
p621
aVSOLO
p622
aVDUO_SUPPORT
p623
aVDUO_CARRY
p624
aVNONE
p625
aVSOLO
p626
aVSOLO
p627
aVDUO_SUPPORT
p628
aVDUO_SUPPORT
p629
aVSOLO
p630
aVNONE
p631
aVDUO_CARRY
p632
aVSOLO
p633
aVDUO_CARRY
p634
aVNONE
p635
aVSOLO
p636
aVSOLO
p637
aVDUO_SUPPORT
p638
aVDUO_SUPPORT
p639
aVDUO_CARRY
p640
aVSOLO
p641
aVSOLO
p642
aVNONE
p643
aVSOLO
p644
aVDUO_CARRY
p645
aVDUO_SUPPORT
p646
aVNONE
p647
aVSOLO
p648
aVNONE
p649
aVDUO_SUPPORT
p650
aVSOLO
p651
aVSOLO
p652
aVDUO_CARRY
p653
aVDUO_CARRY
p654
aVSOLO
p655
aVDUO_SUPPORT
p656
aVSOLO
p657
aVNONE
p658
aVSOLO
p659
aVDUO_CARRY
p660
aVSOLO
p661
aVDUO_SUPPORT
p662
aVNONE
p663
aVDUO_CARRY
p664
aVSOLO
p665
aVNONE
p666
aVSOLO
p667
aVDUO_SUPPORT
p668
aVNONE
p669
aVDUO_SUPPORT
p670
aVSOLO
p671
aVSOLO
p672
aVDUO_CARRY
p673
aVDUO_SUPPORT
p674
aVNONE
p675
aVDUO_CARRY
p676
aVSOLO
p677
aVSOLO
p678
aVDUO_CARRY
p679
aVNONE
p680
aVSOLO
p681
aVSOLO
p682
aVDUO_SUPPORT
p683
aVNONE
p684
aVSOLO
p685
aVDUO_CARRY
p686
aVDUO_SUPPORT
p687
aVSOLO
p688
aVSOLO
p689
aVNONE
p690
aVSOLO
p691
aVDUO_SUPPORT
p692
aVDUO_CARRY
p693
aVSOLO
p694
aVDUO_SUPPORT
p695
aVSOLO
p696
aVNONE
p697
aVDUO_CARRY
p698
aVDUO_SUPPORT
p699
aVNONE
p700
aVDUO_CARRY
p701
aVSOLO
p702
aVSOLO
p703
aVSOLO
p704
aVDUO_CARRY
p705
aVNONE
p706
aVSOLO
p707
aVDUO_SUPPORT
p708
aVNONE
p709
aVDUO_CARRY
p710
aVDUO_SUPPORT
p711
aVSOLO
p712
aVSOLO
p713
aVDUO_SUPPORT
p714
aVSOLO
p715
aVNONE
p716
aVSOLO
p717
aVDUO_CARRY
p718
aVSOLO
p719
aVSOLO
p720
aVNONE
p721
aVDUO_SUPPORT
p722
aVDUO_CARRY
p723
aVNONE
p724
aVSOLO
p725
aVDUO_CARRY
p726
aVSOLO
p727
aVDUO_SUPPORT
p728
aVSOLO
p729
aVDUO_CARRY
p730
aVSOLO
p731
aVNONE
p732
aVDUO_SUPPORT
p733
aVDUO_CARRY
p734
aVDUO_SUPPORT
p735
aVSOLO
p736
aVSOLO
p737
aVNONE
p738
aVNONE
p739
aVDUO_SUPPORT
p740
aVSOLO
p741
aVSOLO
p742
aVDUO_CARRY
p743
aVNONE
p744
aVSOLO
p745
aVSOLO
p746
aVDUO_CARRY
p747
aVDUO_SUPPORT
p748
aVNONE
p749
aVDUO_CARRY
p750
aVDUO_SUPPORT
p751
aVSOLO
p752
aVSOLO
p753
aVNONE
p754
aVDUO_SUPPORT
p755
aVSOLO
p756
aVSOLO
p757
aVDUO_CARRY
p758
aVDUO
p759
aVNONE
p760
aVDUO
p761
aVSOLO
p762
aVDUO_SUPPORT
p763
aVNONE
p764
aVDUO_CARRY
p765
aVSOLO
p766
aVSOLO
p767
aVDUO_CARRY
p768
aVSOLO
p769
aVNONE
p770
aVDUO_SUPPORT
p771
aVDUO
p772
aVDUO_CARRY
p773
aVDUO
p774
aVDUO_SUPPORT
p775
aVSOLO
p776
aVNONE
p777
aVSOLO
p778
aVDUO_CARRY
p779
aVDUO_SUPPORT
p780
aVSOLO
p781
aVDUO_CARRY
p782
aVSOLO
p783
aVNONE
p784
aVSOLO
p785
aVDUO_SUPPORT
p786
aVDUO
p787
aVNONE
p788
aVSOLO
p789
aVSOLO
p790
aVDUO
p791
aVDUO_SUPPORT
p792
aVSOLO
p793
aVNONE
p794
aVSOLO
p795
aVDUO_CARRY
p796
aVSOLO
p797
aVNONE
p798
aVDUO_SUPPORT
p799
aVSOLO
p800
aVDUO_CARRY
p801
aVDUO_CARRY
p802
aVSOLO
p803
aVDUO_SUPPORT
p804
aVSOLO
p805
aVNONE
p806
aVDUO_CARRY
p807
aVNONE
p808
aVSOLO
p809
aVDUO_SUPPORT
p810
aVNONE
p811
aVSOLO
p812
aVDUO_CARRY
p813
aVSOLO
p814
aVNONE
p815
aVDUO_SUPPORT
p816
aVDUO_CARRY
p817
aVSOLO
p818
aVNONE
p819
aVDUO_SUPPORT
p820
aVNONE
p821
aVDUO_CARRY
p822
aVNONE
p823
aVSOLO
p824
aVDUO_SUPPORT
p825
aVSOLO
p826
aVNONE
p827
aVDUO_CARRY
p828
aVDUO_SUPPORT
p829
aVSOLO
p830
aVSOLO
p831
aVNONE
p832
aVSOLO
p833
aVSOLO
p834
aVDUO_CARRY
p835
aVDUO_SUPPORT
p836
aVSOLO
p837
aVSOLO
p838
aVDUO_CARRY
p839
aVDUO_SUPPORT
p840
aVNONE
p841
aVSOLO
p842
aVDUO_SUPPORT
p843
aVNONE
p844
aVDUO_CARRY
p845
aVSOLO
p846
aVDUO_CARRY
p847
aVSOLO
p848
aVNONE
p849
aVSOLO
p850
aVDUO_SUPPORT
p851
aVSOLO
p852
aVNONE
p853
aVSOLO
p854
aVSOLO
p855
aVNONE
p856
aVSOLO
p857
aVDUO_CARRY
p858
aVNONE
p859
aVDUO_SUPPORT
p860
aVSOLO
p861
aVNONE
p862
aVSOLO
p863
aVDUO_CARRY
p864
aVSOLO
p865
aVDUO_SUPPORT
p866
aVDUO_SUPPORT
p867
aVSOLO
p868
aVNONE
p869
aVDUO_CARRY
p870
aVSOLO
p871
aVSOLO
p872
aVSOLO
p873
aVDUO_CARRY
p874
aVDUO_SUPPORT
p875
aVNONE
p876
aVNONE
p877
aVSOLO
p878
aVSOLO
p879
aVDUO_CARRY
p880
aVDUO_SUPPORT
p881
aVDUO_CARRY
p882
aVSOLO
p883
aVSOLO
p884
aVNONE
p885
aVDUO_SUPPORT
p886
aVNONE
p887
aVSOLO
p888
aVDUO_CARRY
p889
aVDUO_SUPPORT
p890
aVSOLO
p891
aVNONE
p892
aVSOLO
p893
aVDUO_SUPPORT
p894
aVDUO_CARRY
p895
aVSOLO
p896
aVDUO_SUPPORT
p897
aVSOLO
p898
aVSOLO
p899
aVNONE
p900
aVDUO_CARRY
p901
aVSOLO
p902
aVDUO_CARRY
p903
aVNONE
p904
aVDUO_SUPPORT
p905
aVSOLO
p906
aVDUO_SUPPORT
p907
aVDUO_CARRY
p908
aVSOLO
p909
aVSOLO
p910
aVNONE
p911
aVSOLO
p912
aVNONE
p913
aVDUO_CARRY
p914
aVDUO_SUPPORT
p915
aVSOLO
p916
aVSOLO
p917
aVDUO_CARRY
p918
aVDUO_SUPPORT
p919
aVNONE
p920
aVSOLO
p921
aVNONE
p922
aVSOLO
p923
aVNONE
p924
aVDUO_SUPPORT
p925
aVSOLO
p926
aVDUO_CARRY
p927
aVSOLO
p928
aVNONE
p929
aVNONE
p930
aVDUO_SUPPORT
p931
aVDUO_CARRY
p932
aVSOLO
p933
aVSOLO
p934
aVDUO_SUPPORT
p935
aVSOLO
p936
aVNONE
p937
aVSOLO
p938
aVDUO_CARRY
p939
aVNONE
p940
aVSOLO
p941
aVSOLO
p942
aVDUO_SUPPORT
p943
aVDUO_CARRY
p944
aVDUO_CARRY
p945
aVNONE
p946
aVSOLO
p947
aVDUO_SUPPORT
p948
aVSOLO
p949
aVDUO_CARRY
p950
aVSOLO
p951
aVNONE
p952
aVDUO_SUPPORT
p953
aVSOLO
p954
aVSOLO
p955
aVDUO_SUPPORT
p956
aVDUO_CARRY
p957
aVSOLO
p958
aVNONE
p959
aVNONE
p960
aVDUO_CARRY
p961
aVNONE
p962
aVSOLO
p963
aVDUO_SUPPORT
p964
aVSOLO
p965
aVDUO_CARRY
p966
aVSOLO
p967
aVNONE
p968
aVDUO_SUPPORT
p969
aVDUO_SUPPORT
p970
aVSOLO
p971
aVDUO_CARRY
p972
aVSOLO
p973
aVNONE
p974
aVDUO_CARRY
p975
aVSOLO
p976
aVNONE
p977
aVSOLO
p978
aVDUO_SUPPORT
p979
aVNONE
p980
aVSOLO
p981
aVDUO_SUPPORT
p982
aVDUO_CARRY
p983
aVNONE
p984
aVSOLO
p985
aVDUO_SUPPORT
p986
aVDUO_CARRY
p987
aVSOLO
p988
aVNONE
p989
aVSOLO
p990
aVDUO_CARRY
p991
aVSOLO
p992
aVDUO_SUPPORT
p993
aVNONE
p994
aVSOLO
p995
aVDUO_CARRY
p996
aVNONE
p997
aVSOLO
p998
aVDUO_SUPPORT
p999
aVDUO_SUPPORT
p1000
aVSOLO
p1001
aVNONE
p1002
aVSOLO
p1003
aVDUO_CARRY
p1004
aVDUO_CARRY
p1005
aVDUO_SUPPORT
p1006
aVSOLO
p1007
aVNONE
p1008
aVSOLO
p1009
aVSOLO
p1010
aVDUO_SUPPORT
p1011
aVSOLO
p1012
aVNONE
p1013
aVDUO_CARRY
p1014
aVNONE
p1015
aVSOLO
p1016
aVDUO_SUPPORT
p1017
aVSOLO
p1018
aVDUO_CARRY
p1019
aVNONE
p1020
aVSOLO
p1021
aVDUO_SUPPORT
p1022
aVDUO_CARRY
p1023
aVSOLO
p1024
aVDUO_SUPPORT
p1025
aVDUO_CARRY
p1026
aVSOLO
p1027
aVNONE
p1028
aVSOLO
p1029
aVDUO_SUPPORT
p1030
aVSOLO
p1031
aVDUO_CARRY
p1032
aVNONE
p1033
aVSOLO
p1034
aVDUO
p1035
aVNONE
p1036
aVSOLO
p1037
aVDUO
p1038
aVSOLO
p1039
aVDUO_SUPPORT
p1040
aVSOLO
p1041
aVSOLO
p1042
aVNONE
p1043
aVDUO_CARRY
p1044
aVSOLO
p1045
aVDUO_SUPPORT
p1046
aVSOLO
p1047
aVNONE
p1048
aVDUO_CARRY
p1049
aVNONE
p1050
aVDUO_CARRY
p1051
aVSOLO
p1052
aVDUO_SUPPORT
p1053
aVSOLO
p1054
aVDUO_SUPPORT
p1055
aVSOLO
p1056
aVSOLO
p1057
aVDUO_CARRY
p1058
aVNONE
p1059
aVNONE
p1060
aVDUO_SUPPORT
p1061
aVSOLO
p1062
aVSOLO
p1063
aVDUO_CARRY
p1064
aVSOLO
p1065
aVSOLO
p1066
aVDUO_CARRY
p1067
aVDUO_SUPPORT
p1068
aVNONE
p1069
aVSOLO
p1070
aVSOLO
p1071
aVDUO_SUPPORT
p1072
aVDUO_CARRY
p1073
aVNONE
p1074
aVSOLO
p1075
aVNONE
p1076
aVDUO_CARRY
p1077
aVDUO_SUPPORT
p1078
aVSOLO
p1079
aVNONE
p1080
aVSOLO
p1081
aVSOLO
p1082
aVDUO_CARRY
p1083
aVDUO_SUPPORT
p1084
aVNONE
p1085
aVSOLO
p1086
aVNONE
p1087
aVDUO_CARRY
p1088
aVDUO_SUPPORT
p1089
aVDUO_CARRY
p1090
aVSOLO
p1091
aVNONE
p1092
aVDUO_SUPPORT
p1093
aVSOLO
p1094
aVSOLO
p1095
aVDUO_SUPPORT
p1096
aVNONE
p1097
aVDUO_CARRY
p1098
aVSOLO
p1099
aVSOLO
p1100
aVNONE
p1101
aVDUO_SUPPORT
p1102
aVDUO_CARRY
p1103
aVSOLO
p1104
aVSOLO
p1105
aVDUO_SUPPORT
p1106
aVDUO_CARRY
p1107
aVSOLO
p1108
aVNONE
p1109
aVSOLO
p1110
aVDUO_SUPPORT
p1111
aVDUO_CARRY
p1112
aVDUO_CARRY
p1113
aVDUO_SUPPORT
p1114
aVDUO_SUPPORT
p1115
aVNONE
p1116
aVDUO_CARRY
p1117
aVSOLO
p1118
aVSOLO
p1119
aVDUO_CARRY
p1120
aVNONE
p1121
aVSOLO
p1122
aVDUO_SUPPORT
p1123
aVSOLO
p1124
aVSOLO
p1125
aVNONE
p1126
aVDUO_SUPPORT
p1127
aVSOLO
p1128
aVDUO_CARRY
p1129
aVNONE
p1130
aVDUO
p1131
aVDUO
p1132
aVSOLO
p1133
aVDUO_SUPPORT
p1134
aVSOLO
p1135
aVNONE
p1136
aVDUO_CARRY
p1137
aVDUO_CARRY
p1138
aVNONE
p1139
aVDUO_SUPPORT
p1140
aVSOLO
p1141
aVSOLO
p1142
aVNONE
p1143
aVDUO_CARRY
p1144
aVSOLO
p1145
aVDUO_SUPPORT
p1146
aVSOLO
p1147
aVSOLO
p1148
aVSOLO
p1149
aVNONE
p1150
aVSOLO
p1151
aVNONE
p1152
aVDUO_SUPPORT
p1153
aVSOLO
p1154
aVSOLO
p1155
aVNONE
p1156
aVDUO_CARRY
p1157
aVSOLO
p1158
aVDUO_CARRY
p1159
aVNONE
p1160
aVSOLO
p1161
aVDUO_SUPPORT
p1162
aVSOLO
p1163
aVSOLO
p1164
aVDUO_CARRY
p1165
aVNONE
p1166
aVDUO_SUPPORT
p1167
aVSOLO
p1168
aVDUO_CARRY
p1169
aVNONE
p1170
aVSOLO
p1171
aVDUO_SUPPORT
p1172
aVSOLO
p1173
aVDUO_CARRY
p1174
aVNONE
p1175
aVDUO_SUPPORT
p1176
aVNONE
p1177
aVDUO_SUPPORT
p1178
aVDUO_CARRY
p1179
aVSOLO
p1180
aVNONE
p1181
aVSOLO
p1182
aVDUO_CARRY
p1183
aVSOLO
p1184
aVSOLO
p1185
aVNONE
p1186
aVDUO_SUPPORT
p1187
aVDUO
p1188
aVNONE
p1189
aVSOLO
p1190
aVSOLO
p1191
aVDUO
p1192
aVNONE
p1193
aVDUO_SUPPORT
p1194
aVDUO_CARRY
p1195
aVSOLO
p1196
aVSOLO
p1197
aVSOLO
p1198
aVDUO_CARRY
p1199
aVSOLO
p1200
aVNONE
p1201
aVDUO_SUPPORT
p1202
aVDUO_CARRY
p1203
aVDUO_SUPPORT
p1204
aVSOLO
p1205
aVNONE
p1206
aVSOLO
p1207
aVDUO_CARRY
p1208
aVSOLO
p1209
aVNONE
p1210
aVSOLO
p1211
aVDUO_SUPPORT
p1212
aVSOLO
p1213
aVDUO_CARRY
p1214
aVNONE
p1215
aVDUO_SUPPORT
p1216
aVSOLO
p1217
aVNONE
p1218
aVSOLO
p1219
aVSOLO
p1220
aVSOLO
p1221
aVNONE
p1222
aVNONE
p1223
aVDUO_CARRY
p1224
aVDUO_SUPPORT
p1225
aVSOLO
p1226
aVSOLO
p1227
aVDUO_CARRY
p1228
aVSOLO
p1229
aVSOLO
p1230
aVDUO_SUPPORT
p1231
aVNONE
p1232
aVDUO_SUPPORT
p1233
aVDUO_CARRY
p1234
aVSOLO
p1235
aVNONE
p1236
aVSOLO
p1237
aVDUO_SUPPORT
p1238
aVSOLO
p1239
aVSOLO
p1240
aVDUO_CARRY
p1241
aVNONE
p1242
aVSOLO
p1243
aVNONE
p1244
aVDUO_CARRY
p1245
aVDUO_SUPPORT
p1246
aVSOLO
p1247
aVNONE
p1248
aVDUO_CARRY
p1249
aVSOLO
p1250
aVSOLO
p1251
aVDUO_SUPPORT
p1252
aVSOLO
p1253
aVSOLO
p1254
aVNONE
p1255
aVDUO_SUPPORT
p1256
aVDUO_CARRY
p1257
aVSOLO
p1258
aVDUO_SUPPORT
p1259
aVNONE
p1260
aVDUO_CARRY
p1261
aVSOLO
p1262
aVNONE
p1263
aVSOLO
p1264
aVDUO_CARRY
p1265
aVDUO_SUPPORT
p1266
aVSOLO
p1267
aVSOLO
p1268
aVDUO_CARRY
p1269
aVDUO_SUPPORT
p1270
aVSOLO
p1271
aVNONE
p1272
aVDUO
p1273
aVDUO
p1274
aVNONE
p1275
aVSOLO
p1276
aVSOLO
p1277
aVSOLO
p1278
aVSOLO
p1279
aVDUO_CARRY
p1280
aVDUO_SUPPORT
p1281
aVNONE
p1282
aVDUO_CARRY
p1283
aVSOLO
p1284
aVDUO_SUPPORT
p1285
aVNONE
p1286
aVSOLO
p1287
aVDUO_CARRY
p1288
aVDUO_SUPPORT
p1289
aVNONE
p1290
aVSOLO
p1291
aVSOLO
p1292
aVDUO_SUPPORT
p1293
aVSOLO
p1294
aVDUO_CARRY
p1295
aVSOLO
p1296
aVNONE
p1297
aVDUO_SUPPORT
p1298
aVSOLO
p1299
aVDUO_CARRY
p1300
aVNONE
p1301
aVSOLO
p1302
aVNONE
p1303
aVSOLO
p1304
aVNONE
p1305
aVNONE
p1306
aVSOLO
p1307
aVDUO_CARRY
p1308
aVDUO_SUPPORT
p1309
aVSOLO
p1310
aVSOLO
p1311
aVDUO_SUPPORT
p1312
aVSOLO
p1313
aVNONE
p1314
aVDUO_CARRY
p1315
aVSOLO
p1316
aVDUO_CARRY
p1317
aVDUO_SUPPORT
p1318
aVNONE
p1319
aVSOLO
p1320
aVSOLO
p1321
aVDUO_SUPPORT
p1322
aVNONE
p1323
aVDUO_CARRY
p1324
aVSOLO
p1325
aVDUO_CARRY
p1326
aVDUO_SUPPORT
p1327
aVNONE
p1328
aVSOLO
p1329
aVSOLO
p1330
aVNONE
p1331
aVSOLO
p1332
aVDUO_CARRY
p1333
aVSOLO
p1334
aVDUO_SUPPORT
p1335
aVNONE
p1336
aVDUO_CARRY
p1337
aVSOLO
p1338
aVNONE
p1339
aVDUO_SUPPORT
p1340
aVDUO_SUPPORT
p1341
aVSOLO
p1342
aVNONE
p1343
aVDUO_CARRY
p1344
aVSOLO
p1345
aVNONE
p1346
aVDUO_CARRY
p1347
aVSOLO
p1348
aVDUO_SUPPORT
p1349
aVNONE
p1350
aVNONE
p1351
aVDUO_CARRY
p1352
aVDUO_SUPPORT
p1353
aVSOLO
p1354
aVSOLO
p1355
aVSOLO
p1356
aVSOLO
p1357
aVDUO_CARRY
p1358
aVNONE
p1359
aVDUO_SUPPORT
p1360
aVSOLO
p1361
aVNONE
p1362
aVSOLO
p1363
aVDUO
p1364
aVDUO
p1365
aVNONE
p1366
aVNONE
p1367
aVDUO_CARRY
p1368
aVSOLO
p1369
aVDUO_SUPPORT
p1370
aVSOLO
p1371
aVNONE
p1372
aVDUO_CARRY
p1373
aVDUO_SUPPORT
p1374
aVSOLO
p1375
aVDUO_CARRY
p1376
aVSOLO
p1377
aVNONE
p1378
aVSOLO
p1379
aVDUO_SUPPORT
p1380
aVSOLO
p1381
aVDUO_CARRY
p1382
aVDUO_SUPPORT
p1383
aVNONE
p1384
aVSOLO
p1385
aVNONE
p1386
aVSOLO
p1387
aVSOLO
p1388
aVDUO_SUPPORT
p1389
aVDUO_CARRY
p1390
aVSOLO
p1391
aVNONE
p1392
aVNONE
p1393
aVSOLO
p1394
aVSOLO
p1395
aVDUO_SUPPORT
p1396
aVNONE
p1397
aVDUO_CARRY
p1398
aVSOLO
p1399
aVSOLO
p1400
aVDUO
p1401
aVNONE
p1402
aVDUO
p1403
aVSOLO
p1404
aVSOLO
p1405
aVDUO_SUPPORT
p1406
aVSOLO
p1407
aVSOLO
p1408
aVNONE
p1409
aVDUO_CARRY
p1410
aVDUO_SUPPORT
p1411
aVSOLO
p1412
aVDUO_CARRY
p1413
aVNONE
p1414
aVSOLO
p1415
aVSOLO
p1416
aVDUO_CARRY
p1417
aVDUO_SUPPORT
p1418
aVDUO_CARRY
p1419
aVDUO_SUPPORT
p1420
aVDUO_SUPPORT
p1421
aVSOLO
p1422
aVNONE
p1423
aVDUO_CARRY
p1424
aVSOLO
p1425
aVDUO
p1426
aVDUO
p1427
aVSOLO
p1428
aVSOLO
p1429
aVNONE
p1430
aVNONE
p1431
aVSOLO
p1432
aVSOLO
p1433
aVDUO_SUPPORT
p1434
aVDUO_CARRY
p1435
aVSOLO
p1436
aVDUO_SUPPORT
p1437
aVSOLO
p1438
aVDUO_CARRY
p1439
aVNONE
p1440
aVNONE
p1441
aVSOLO
p1442
aVDUO_SUPPORT
p1443
aVNONE
p1444
aVDUO_CARRY
p1445
aVDUO_CARRY
p1446
aVDUO_SUPPORT
p1447
aVNONE
p1448
aVSOLO
p1449
aVSOLO
p1450
aVDUO_SUPPORT
p1451
aVNONE
p1452
aVDUO_CARRY
p1453
aVSOLO
p1454
aVSOLO
p1455
aVNONE
p1456
aVDUO_CARRY
p1457
aVDUO_SUPPORT
p1458
aVSOLO
p1459
aVSOLO
p1460
aVSOLO
p1461
aVDUO_SUPPORT
p1462
aVDUO_CARRY
p1463
aVNONE
p1464
aVSOLO
p1465
aVSOLO
p1466
aVSOLO
p1467
aVNONE
p1468
aVDUO_SUPPORT
p1469
aVDUO_CARRY
p1470
aVSOLO
p1471
aVNONE
p1472
aVDUO_CARRY
p1473
aVSOLO
p1474
aVDUO_SUPPORT
p1475
aVDUO_SUPPORT
p1476
aVDUO_CARRY
p1477
aVSOLO
p1478
aVNONE
p1479
aVSOLO
p1480
aVDUO_CARRY
p1481
aVSOLO
p1482
aVSOLO
p1483
aVDUO_SUPPORT
p1484
aVNONE
p1485
aVSOLO
p1486
aVDUO_CARRY
p1487
aVNONE
p1488
aVSOLO
p1489
aVDUO_SUPPORT
p1490
aVDUO_SUPPORT
p1491
aVSOLO
p1492
aVNONE
p1493
aVSOLO
p1494
aVDUO_CARRY
p1495
aVSOLO
p1496
aVNONE
p1497
aVSOLO
p1498
aVDUO_SUPPORT
p1499
aVDUO_CARRY
p1500
aVDUO_SUPPORT
p1501
aVDUO_CARRY
p1502
aVSOLO
p1503
aVNONE
p1504
aVSOLO
p1505
aVSOLO
p1506
aVDUO_CARRY
p1507
aVDUO_SUPPORT
p1508
aVSOLO
p1509
aVNONE
p1510
aVDUO_CARRY
p1511
aVSOLO
p1512
aVDUO_SUPPORT
p1513
aVSOLO
p1514
aVNONE
p1515
aVSOLO
p1516
aVSOLO
p1517
aVNONE
p1518
aVDUO_SUPPORT
p1519
aVDUO_CARRY
p1520
aVDUO_SUPPORT
p1521
aVSOLO
p1522
aVSOLO
p1523
aVDUO_CARRY
p1524
aVNONE
p1525
aVNONE
p1526
aVDUO_SUPPORT
p1527
aVDUO_CARRY
p1528
aVSOLO
p1529
aVSOLO
p1530
aVSOLO
p1531
aVSOLO
p1532
aVNONE
p1533
aVDUO_CARRY
p1534
aVDUO_SUPPORT
p1535
aVSOLO
p1536
aVDUO
p1537
aVSOLO
p1538
aVDUO
p1539
aVNONE
p1540
aVNONE
p1541
aVSOLO
p1542
aVDUO_CARRY
p1543
aVDUO_SUPPORT
p1544
aVSOLO
p1545
aVDUO_SUPPORT
p1546
aVDUO_CARRY
p1547
aVSOLO
p1548
aVSOLO
p1549
aVNONE
p1550
aVDUO_SUPPORT
p1551
aVSOLO
p1552
aVNONE
p1553
aVSOLO
p1554
aVDUO_CARRY
p1555
aVSOLO
p1556
aVNONE
p1557
aVDUO_CARRY
p1558
aVSOLO
p1559
aVDUO_SUPPORT
p1560
aVNONE
p1561
aVDUO_CARRY
p1562
aVSOLO
p1563
aVDUO_SUPPORT
p1564
aVSOLO
p1565
aVSOLO
p1566
aVSOLO
p1567
aVDUO_CARRY
p1568
aVDUO_SUPPORT
p1569
aVNONE
p1570
aVDUO_SUPPORT
p1571
aVDUO_CARRY
p1572
aVNONE
p1573
aVSOLO
p1574
aVSOLO
p1575
aVNONE
p1576
aVNONE
p1577
aVSOLO
p1578
aVSOLO
p1579
aVNONE
p1580
aVSOLO
p1581
aVSOLO
p1582
aVNONE
p1583
aVDUO_SUPPORT
p1584
aVDUO_CARRY
p1585
aVSOLO
p1586
aVDUO_SUPPORT
p1587
aVNONE
p1588
aVSOLO
p1589
aVDUO_CARRY
p1590
aVSOLO
p1591
aVDUO_CARRY
p1592
aVNONE
p1593
aVDUO_SUPPORT
p1594
aVSOLO
p1595
aVNONE
p1596
aVSOLO
p1597
aVDUO_CARRY
p1598
aVSOLO
p1599
aVDUO_SUPPORT
p1600
aVNONE
p1601
aVSOLO
p1602
aVSOLO
p1603
aVDUO_CARRY
p1604
aVDUO_SUPPORT
p1605
aVNONE
p1606
aVSOLO
p1607
aVSOLO
p1608
aVNONE
p1609
aVSOLO
p1610
aVSOLO
p1611
aVSOLO
p1612
aVNONE
p1613
aVDUO_CARRY
p1614
aVDUO_SUPPORT
p1615
aVNONE
p1616
aVSOLO
p1617
aVSOLO
p1618
aVDUO_CARRY
p1619
aVDUO_SUPPORT
p1620
aVSOLO
p1621
aVNONE
p1622
aVDUO_CARRY
p1623
aVDUO_SUPPORT
p1624
aVSOLO
p1625
aVNONE
p1626
aVSOLO
p1627
aVSOLO
p1628
aVDUO_SUPPORT
p1629
aVDUO_CARRY
p1630
aVSOLO
p1631
aVDUO_CARRY
p1632
aVSOLO
p1633
aVDUO_SUPPORT
p1634
aVNONE
p1635
aVSOLO
p1636
aVNONE
p1637
aVDUO_CARRY
p1638
aVSOLO
p1639
aVDUO_SUPPORT
p1640
aVDUO_SUPPORT
p1641
aVSOLO
p1642
aVDUO_CARRY
p1643
aVSOLO
p1644
aVNONE
p1645
aVDUO_CARRY
p1646
aVNONE
p1647
aVNONE
p1648
aVDUO_SUPPORT
p1649
aVSOLO
p1650
aVNONE
p1651
aVDUO_CARRY
p1652
aVDUO_SUPPORT
p1653
aVSOLO
p1654
aVSOLO
p1655
aVDUO_SUPPORT
p1656
aVNONE
p1657
aVSOLO
p1658
aVDUO_CARRY
p1659
aVSOLO
p1660
aVDUO_CARRY
p1661
aVDUO_SUPPORT
p1662
aVSOLO
p1663
aVNONE
p1664
aVSOLO
p1665
aVSOLO
p1666
aVNONE
p1667
aVDUO_SUPPORT
p1668
aVSOLO
p1669
aVDUO_CARRY
p1670
aVDUO_SUPPORT
p1671
aVNONE
p1672
aVSOLO
p1673
aVSOLO
p1674
aVDUO_CARRY
p1675
aVNONE
p1676
aVSOLO
p1677
aVSOLO
p1678
aVDUO_CARRY
p1679
aVDUO_SUPPORT
p1680
aVSOLO
p1681
aVDUO_CARRY
p1682
aVDUO_SUPPORT
p1683
aVSOLO
p1684
aVNONE
p1685
aVSOLO
p1686
aVDUO_CARRY
p1687
aVDUO_SUPPORT
p1688
aVNONE
p1689
aVSOLO
p1690
aVNONE
p1691
aVDUO_SUPPORT
p1692
aVDUO_CARRY
p1693
aVSOLO
p1694
aVSOLO
p1695
aVNONE
p1696
aVSOLO
p1697
aVDUO_SUPPORT
p1698
aVSOLO
p1699
aVDUO_CARRY
p1700
aVSOLO
p1701
aVSOLO
p1702
aVNONE
p1703
aVDUO_CARRY
p1704
aVDUO_SUPPORT
p1705
aVSOLO
p1706
aVSOLO
p1707
aVDUO_CARRY
p1708
aVNONE
p1709
aVDUO_SUPPORT
p1710
aVNONE
p1711
aVDUO_SUPPORT
p1712
aVDUO_CARRY
p1713
aVSOLO
p1714
aVSOLO
p1715
aVNONE
p1716
aVDUO_SUPPORT
p1717
aVSOLO
p1718
aVDUO_CARRY
p1719
aVSOLO
p1720
aVDUO_CARRY
p1721
aVSOLO
p1722
aVSOLO
p1723
aVNONE
p1724
aVDUO_SUPPORT
p1725
aVDUO_CARRY
p1726
aVSOLO
p1727
aVSOLO
p1728
aVNONE
p1729
aVDUO_SUPPORT
p1730
aVSOLO
p1731
aVDUO_CARRY
p1732
aVDUO_SUPPORT
p1733
aVNONE
p1734
aVSOLO
p1735
aVNONE
p1736
aVNONE
p1737
aVSOLO
p1738
aVDUO_SUPPORT
p1739
aVDUO_CARRY
p1740
aVSOLO
p1741
aVNONE
p1742
aVDUO_SUPPORT
p1743
aVSOLO
p1744
aVDUO_CARRY
p1745
aVSOLO
p1746
aVSOLO
p1747
aVDUO_SUPPORT
p1748
aVNONE
p1749
aVDUO_CARRY
p1750
aVDUO_SUPPORT
p1751
aVNONE
p1752
aVDUO_CARRY
p1753
aVSOLO
p1754
aVSOLO
p1755
aVDUO_CARRY
p1756
aVDUO_SUPPORT
p1757
aVDUO_SUPPORT
p1758
aVSOLO
p1759
aVDUO_CARRY
p1760
aVDUO_SUPPORT
p1761
aVNONE
p1762
aVSOLO
p1763
aVSOLO
p1764
aVDUO_CARRY
p1765
aVDUO_SUPPORT
p1766
aVNONE
p1767
aVDUO_CARRY
p1768
aVSOLO
p1769
aVSOLO
p1770
aVDUO_SUPPORT
p1771
aVDUO_CARRY
p1772
aVSOLO
p1773
aVNONE
p1774
aVSOLO
p1775
aVDUO_SUPPORT
p1776
aVDUO_CARRY
p1777
aVDUO_SUPPORT
p1778
aVSOLO
p1779
aVDUO_CARRY
p1780
aVSOLO
p1781
aVDUO_CARRY
p1782
aVSOLO
p1783
aVDUO_SUPPORT
p1784
aVNONE
p1785
aVSOLO
p1786
aVDUO_SUPPORT
p1787
aVNONE
p1788
aVSOLO
p1789
aVDUO_CARRY
p1790
aVNONE
p1791
aVDUO_CARRY
p1792
aVSOLO
p1793
aVDUO_SUPPORT
p1794
aVSOLO
p1795
aVSOLO
p1796
aVDUO_CARRY
p1797
aVNONE
p1798
aVSOLO
p1799
aVDUO_SUPPORT
p1800
aVDUO_SUPPORT
p1801
aVDUO_CARRY
p1802
aVNONE
p1803
aVSOLO
p1804
aVSOLO
p1805
aVSOLO
p1806
aVDUO_SUPPORT
p1807
aVDUO_CARRY
p1808
aVSOLO
p1809
aVNONE
p1810
aVNONE
p1811
aVSOLO
p1812
aVDUO_CARRY
p1813
aVDUO_SUPPORT
p1814
aVSOLO
p1815
aVDUO_SUPPORT
p1816
aVSOLO
p1817
aVNONE
p1818
aVDUO_CARRY
p1819
aVSOLO
p1820
aVNONE
p1821
aVSOLO
p1822
aVSOLO
p1823
aVDUO_CARRY
p1824
aVDUO_SUPPORT
p1825
aVSOLO
p1826
aVDUO_CARRY
p1827
aVSOLO
p1828
aVDUO_SUPPORT
p1829
aVNONE
p1830
aVSOLO
p1831
aVDUO_CARRY
p1832
aVDUO_SUPPORT
p1833
aVNONE
p1834
aVSOLO
p1835
aVSOLO
p1836
aVNONE
p1837
aVDUO_SUPPORT
p1838
aVDUO_CARRY
p1839
aVSOLO
p1840
aVDUO
p1841
aVNONE
p1842
aVSOLO
p1843
aVDUO
p1844
aVSOLO
p1845
aVSOLO
p1846
aVNONE
p1847
aVDUO_CARRY
p1848
aVDUO_SUPPORT
p1849
aVSOLO
p1850
aVSOLO
p1851
aVDUO_CARRY
p1852
aVDUO_SUPPORT
p1853
aVNONE
p1854
aVSOLO
p1855
aVSOLO
p1856
aVSOLO
p1857
aVDUO_CARRY
p1858
aVDUO_SUPPORT
p1859
aVNONE
p1860
aVSOLO
p1861
aVSOLO
p1862
aVDUO_CARRY
p1863
aVNONE
p1864
aVDUO_SUPPORT
p1865
aVDUO_SUPPORT
p1866
aVDUO_CARRY
p1867
aVSOLO
p1868
aVNONE
p1869
aVSOLO
p1870
aVDUO_CARRY
p1871
aVSOLO
p1872
aVNONE
p1873
aVDUO_SUPPORT
p1874
aVSOLO
p1875
aVSOLO
p1876
aVSOLO
p1877
aVNONE
p1878
aVDUO_CARRY
p1879
aVDUO_SUPPORT
p1880
aVSOLO
p1881
aVDUO
p1882
aVNONE
p1883
aVSOLO
p1884
aVDUO
p1885
aVDUO_SUPPORT
p1886
aVSOLO
p1887
aVNONE
p1888
aVSOLO
p1889
aVDUO_CARRY
p1890
aVDUO_SUPPORT
p1891
aVDUO_CARRY
p1892
aVNONE
p1893
aVSOLO
p1894
aVSOLO
p1895
aVNONE
p1896
aVSOLO
p1897
aVDUO_CARRY
p1898
aVSOLO
p1899
aVDUO_SUPPORT
p1900
aVDUO_SUPPORT
p1901
aVSOLO
p1902
aVDUO_CARRY
p1903
aVNONE
p1904
aVSOLO
p1905
aVDUO_CARRY
p1906
aVSOLO
p1907
aVDUO_SUPPORT
p1908
aVDUO_SUPPORT
p1909
aVDUO_CARRY
p1910
aVDUO_CARRY
p1911
aVSOLO
p1912
aVNONE
p1913
aVSOLO
p1914
aVDUO_SUPPORT
p1915
aVDUO_CARRY
p1916
aVSOLO
p1917
aVNONE
p1918
aVSOLO
p1919
aVDUO_SUPPORT
p1920
aVSOLO
p1921
aVDUO_SUPPORT
p1922
aVDUO_CARRY
p1923
aVNONE
p1924
aVSOLO
p1925
aVDUO_CARRY
p1926
aVSOLO
p1927
aVDUO_SUPPORT
p1928
aVNONE
p1929
aVSOLO
p1930
aVSOLO
p1931
aVDUO_SUPPORT
p1932
aVSOLO
p1933
aVDUO_CARRY
p1934
aVNONE
p1935
aVDUO_SUPPORT
p1936
aVDUO_CARRY
p1937
aVSOLO
p1938
aVNONE
p1939
aVSOLO
p1940
aVNONE
p1941
aVSOLO
p1942
aVDUO_SUPPORT
p1943
aVSOLO
p1944
aVDUO_CARRY
p1945
aVDUO
p1946
aVSOLO
p1947
aVDUO
p1948
aVNONE
p1949
aVSOLO
p1950
aVSOLO
p1951
aVNONE
p1952
aVDUO
p1953
aVDUO
p1954
aVSOLO
p1955
aVSOLO
p1956
aVSOLO
p1957
aVDUO_CARRY
p1958
aVDUO_SUPPORT
p1959
aVNONE
p1960
aVDUO_CARRY
p1961
aVNONE
p1962
aVSOLO
p1963
aVSOLO
p1964
aVDUO_SUPPORT
p1965
aVDUO_CARRY
p1966
aVSOLO
p1967
aVNONE
p1968
aVDUO_SUPPORT
p1969
aVSOLO
p1970
aVNONE
p1971
aVDUO_CARRY
p1972
aVSOLO
p1973
aVDUO_SUPPORT
p1974
aVSOLO
p1975
aVDUO_CARRY
p1976
aVNONE
p1977
aVSOLO
p1978
aVSOLO
p1979
aVDUO_SUPPORT
p1980
aVNONE
p1981
aVDUO_CARRY
p1982
aVSOLO
p1983
aVDUO_SUPPORT
p1984
aVSOLO
p1985
aVNONE
p1986
aVDUO_CARRY
p1987
aVDUO_SUPPORT
p1988
aVSOLO
p1989
aVSOLO
p1990
aVNONE
p1991
aVDUO_SUPPORT
p1992
aVDUO_CARRY
p1993
aVSOLO
p1994
aVSOLO
p1995
aVNONE
p1996
aVSOLO
p1997
aVDUO_SUPPORT
p1998
aVSOLO
p1999
aVDUO_CARRY
p2000
aVNONE
p2001
aVNONE
p2002
aVNONE
p2003
aVDUO_CARRY
p2004
aVDUO_SUPPORT
p2005
aVDUO_SUPPORT
p2006
aVNONE
p2007
aVDUO_CARRY
p2008
aVSOLO
p2009
aVSOLO
p2010
aVNONE
p2011
aVDUO_SUPPORT
p2012
aVDUO_CARRY
p2013
aVDUO_CARRY
p2014
aVNONE
p2015
aVSOLO
p2016
aVSOLO
p2017
aVDUO_SUPPORT
p2018
aVNONE
p2019
aVDUO_CARRY
p2020
aVSOLO
p2021
aVSOLO
p2022
aVDUO_SUPPORT
p2023
aVDUO_CARRY
p2024
aVSOLO
p2025
aVDUO_SUPPORT
p2026
aVSOLO
p2027
aVNONE
p2028
aVNONE
p2029
aVDUO_SUPPORT
p2030
aVSOLO
p2031
aVSOLO
p2032
aVDUO_CARRY
p2033
aVSOLO
p2034
aVDUO_SUPPORT
p2035
aVDUO_CARRY
p2036
aVSOLO
p2037
aVNONE
p2038
aVSOLO
p2039
aVNONE
p2040
aVNONE
p2041
aVSOLO
p2042
aVNONE
p2043
aVSOLO
p2044
aVNONE
p2045
aVDUO_CARRY
p2046
aVSOLO
p2047
aVDUO_SUPPORT
p2048
aVDUO_SUPPORT
p2049
aVDUO_CARRY
p2050
aVNONE
p2051
aVSOLO
p2052
aVSOLO
p2053
aVDUO_CARRY
p2054
aVDUO_SUPPORT
p2055
aVSOLO
p2056
aVSOLO
p2057
aVNONE
p2058
aVSOLO
p2059
aVSOLO
p2060
aVNONE
p2061
aVDUO_SUPPORT
p2062
aVDUO_CARRY
p2063
aVDUO_CARRY
p2064
aVSOLO
p2065
aVSOLO
p2066
aVDUO_SUPPORT
p2067
aVNONE
p2068
aVDUO_CARRY
p2069
aVDUO_SUPPORT
p2070
aVNONE
p2071
aVSOLO
p2072
aVSOLO
p2073
aVDUO_SUPPORT
p2074
aVSOLO
p2075
aVNONE
p2076
aVDUO_CARRY
p2077
aVSOLO
p2078
aVSOLO
p2079
aVDUO_CARRY
p2080
aVDUO_SUPPORT
p2081
aVNONE
p2082
aVSOLO
p2083
aVSOLO
p2084
aVDUO_CARRY
p2085
aVDUO_SUPPORT
p2086
aVNONE
p2087
aVSOLO
p2088
aVDUO_CARRY
p2089
aVSOLO
p2090
aVDUO_SUPPORT
p2091
aVSOLO
p2092
aVNONE
p2093
aVSOLO
p2094
aVNONE
p2095
aVDUO_CARRY
p2096
aVDUO_SUPPORT
p2097
aVNONE
p2098
aVDUO_CARRY
p2099
aVSOLO
p2100
aVSOLO
p2101
aVNONE
p2102
aVDUO_SUPPORT
p2103
aVSOLO
p2104
aVDUO_SUPPORT
p2105
aVDUO_CARRY
p2106
aVNONE
p2107
aVSOLO
p2108
aVNONE
p2109
aVDUO_SUPPORT
p2110
aVDUO_CARRY
p2111
aVSOLO
p2112
aVSOLO
p2113
aVSOLO
p2114
aVDUO_SUPPORT
p2115
aVDUO_CARRY
p2116
aVSOLO
p2117
aVNONE
p2118
aVNONE
p2119
aVDUO_CARRY
p2120
aVSOLO
p2121
aVSOLO
p2122
aVDUO_SUPPORT
p2123
aVDUO_CARRY
p2124
aVSOLO
p2125
aVSOLO
p2126
aVNONE
p2127
aVDUO_SUPPORT
p2128
aVSOLO
p2129
aVDUO_SUPPORT
p2130
aVSOLO
p2131
aVNONE
p2132
aVDUO_CARRY
p2133
aVDUO_CARRY
p2134
aVDUO_SUPPORT
p2135
aVSOLO
p2136
aVNONE
p2137
aVSOLO
p2138
aVDUO_CARRY
p2139
aVSOLO
p2140
aVSOLO
p2141
aVDUO_SUPPORT
p2142
aVNONE
p2143
aVNONE
p2144
aVSOLO
p2145
aVSOLO
p2146
aVDUO_SUPPORT
p2147
aVDUO_CARRY
p2148
aVSOLO
p2149
aVNONE
p2150
aVDUO_SUPPORT
p2151
aVDUO_CARRY
p2152
aVSOLO
p2153
aVSOLO
p2154
aVNONE
p2155
aVSOLO
p2156
aVDUO_SUPPORT
p2157
aVDUO_CARRY
p2158
aVSOLO
p2159
aVNONE
p2160
aVDUO_CARRY
p2161
aVSOLO
p2162
aVDUO_SUPPORT
p2163
aVDUO_CARRY
p2164
aVDUO_CARRY
p2165
aVSOLO
p2166
aVDUO_SUPPORT
p2167
aVDUO_SUPPORT
p2168
aVNONE
p2169
aVNONE
p2170
aVSOLO
p2171
aVDUO_SUPPORT
p2172
aVDUO_CARRY
p2173
aVDUO_CARRY
p2174
aVDUO_SUPPORT
p2175
aVSOLO
p2176
aVNONE
p2177
aVSOLO
p2178
aVDUO_SUPPORT
p2179
aVSOLO
p2180
aVDUO_CARRY
p2181
aVNONE
p2182
aVSOLO
p2183
aVDUO
p2184
aVDUO
p2185
aVNONE
p2186
aVSOLO
p2187
aVSOLO
p2188
aVSOLO
p2189
aVSOLO
p2190
aVDUO_CARRY
p2191
aVNONE
p2192
aVDUO_SUPPORT
p2193
aVDUO_SUPPORT
p2194
aVNONE
p2195
aVSOLO
p2196
aVDUO_CARRY
p2197
aVSOLO
p2198
aVDUO_CARRY
p2199
aVDUO_SUPPORT
p2200
aVDUO_SUPPORT
p2201
aVDUO_CARRY
p2202
aVSOLO
p2203
aVSOLO
p2204
aVSOLO
p2205
aVDUO_SUPPORT
p2206
aVNONE
p2207
aVDUO_CARRY
p2208
aVSOLO
p2209
aVNONE
p2210
aVSOLO
p2211
aVDUO_SUPPORT
p2212
aVDUO_CARRY
p2213
aVDUO_CARRY
p2214
aVDUO_SUPPORT
p2215
aVSOLO
p2216
aVNONE
p2217
aVSOLO
p2218
aVDUO_SUPPORT
p2219
aVSOLO
p2220
aVSOLO
p2221
aVDUO_CARRY
p2222
aVNONE
p2223
aVSOLO
p2224
aVSOLO
p2225
aVDUO_SUPPORT
p2226
aVDUO_CARRY
p2227
aVNONE
p2228
aVSOLO
p2229
aVNONE
p2230
aVNONE
p2231
aVDUO_CARRY
p2232
aVSOLO
p2233
aVNONE
p2234
aVSOLO
p2235
aVDUO_SUPPORT
p2236
aVDUO_CARRY
p2237
aVSOLO
p2238
aVNONE
p2239
aVDUO_SUPPORT
p2240
aVSOLO
p2241
aVDUO
p2242
aVSOLO
p2243
aVSOLO
p2244
aVNONE
p2245
aVDUO
p2246
aVNONE
p2247
aVDUO_SUPPORT
p2248
aVSOLO
p2249
aVDUO_CARRY
p2250
aVSOLO
p2251
aVSOLO
p2252
aVNONE
p2253
aVDUO_CARRY
p2254
aVSOLO
p2255
aVDUO_SUPPORT
p2256
aVNONE
p2257
aVNONE
p2258
aVNONE
p2259
aVNONE
p2260
aVSOLO
p2261
aVSOLO
p2262
aVDUO_CARRY
p2263
aVDUO_SUPPORT
p2264
aVDUO_CARRY
p2265
aVSOLO
p2266
aVNONE
p2267
aVDUO_SUPPORT
p2268
aVSOLO
p2269
aVSOLO
p2270
aVSOLO
p2271
aVDUO_SUPPORT
p2272
aVNONE
p2273
aVDUO_CARRY
p2274
aVDUO_CARRY
p2275
aVSOLO
p2276
aVNONE
p2277
aVSOLO
p2278
aVDUO_SUPPORT
p2279
aVSOLO
p2280
aVDUO_SUPPORT
p2281
aVDUO_CARRY
p2282
aVSOLO
p2283
aVNONE
p2284
aVSOLO
p2285
aVDUO_SUPPORT
p2286
aVNONE
p2287
aVSOLO
p2288
aVDUO_CARRY
p2289
aVNONE
p2290
aVSOLO
p2291
aVDUO_SUPPORT
p2292
aVSOLO
p2293
aVDUO_CARRY
p2294
aVDUO_CARRY
p2295
aVDUO_SUPPORT
p2296
aVSOLO
p2297
aVNONE
p2298
aVSOLO
p2299
aVNONE
p2300
aVSOLO
p2301
aVNONE
p2302
aVNONE
p2303
aVSOLO
p2304
aVNONE
p2305
aVSOLO
p2306
aVDUO_CARRY
p2307
aVDUO_SUPPORT
p2308
aVSOLO
p2309
aVSOLO
p2310
aVSOLO
p2311
aVNONE
p2312
aVDUO_SUPPORT
p2313
aVDUO_CARRY
p2314
aVSOLO
p2315
aVDUO_SUPPORT
p2316
aVDUO_CARRY
p2317
aVSOLO
p2318
aVNONE
p2319
aVNONE
p2320
aVSOLO
p2321
aVDUO_SUPPORT
p2322
aVSOLO
p2323
aVDUO_CARRY
p2324
aVSOLO
p2325
aVSOLO
p2326
aVDUO_CARRY
p2327
aVNONE
p2328
aVDUO_SUPPORT
p2329
aVSOLO
p2330
aVSOLO
p2331
aVDUO_SUPPORT
p2332
aVDUO_CARRY
p2333
aVNONE
p2334
aVSOLO
p2335
aVSOLO
p2336
aVDUO_CARRY
p2337
aVNONE
p2338
aVDUO_SUPPORT
p2339
aVSOLO
p2340
aVNONE
p2341
aVSOLO
p2342
aVDUO_CARRY
p2343
aVDUO_SUPPORT
p2344
aVNONE
p2345
aVSOLO
p2346
aVDUO_CARRY
p2347
aVSOLO
p2348
aVDUO_SUPPORT
p2349
aVDUO_CARRY
p2350
aVDUO_SUPPORT
p2351
aVNONE
p2352
aVSOLO
p2353
aVSOLO
p2354
aVSOLO
p2355
aVNONE
p2356
aVDUO_CARRY
p2357
aVDUO_SUPPORT
p2358
aVSOLO
p2359
aVDUO_CARRY
p2360
aVDUO_SUPPORT
p2361
aVNONE
p2362
aVSOLO
p2363
aVSOLO
p2364
aVNONE
p2365
aVSOLO
p2366
aVDUO_CARRY
p2367
aVDUO_SUPPORT
p2368
aVSOLO
p2369
aVDUO_CARRY
p2370
aVSOLO
p2371
aVNONE
p2372
aVDUO_SUPPORT
p2373
aVSOLO
p2374
aVSOLO
p2375
aVDUO_CARRY
p2376
aVSOLO
p2377
aVNONE
p2378
aVDUO_SUPPORT
p2379
aVNONE
p2380
aVSOLO
p2381
aVDUO_CARRY
p2382
aVSOLO
p2383
aVDUO_SUPPORT
p2384
aVDUO_SUPPORT
p2385
aVSOLO
p2386
aVSOLO
p2387
aVNONE
p2388
aVDUO_CARRY
p2389
aVSOLO
p2390
aVNONE
p2391
aVSOLO
p2392
aVSOLO
p2393
aVNONE
p2394
aVSOLO
p2395
aVDUO_SUPPORT
p2396
aVSOLO
p2397
aVNONE
p2398
aVDUO_CARRY
p2399
aVNONE
p2400
aVSOLO
p2401
aVDUO_CARRY
p2402
aVSOLO
p2403
aVDUO_SUPPORT
p2404
aVNONE
p2405
aVDUO_CARRY
p2406
aVSOLO
p2407
aVDUO_SUPPORT
p2408
aVSOLO
p2409
aVSOLO
p2410
aVDUO_CARRY
p2411
aVDUO_SUPPORT
p2412
aVSOLO
p2413
aVNONE
p2414
aVSOLO
p2415
aVSOLO
p2416
aVDUO_SUPPORT
p2417
aVNONE
p2418
aVDUO_CARRY
p2419
aVSOLO
p2420
aVNONE
p2421
aVSOLO
p2422
aVSOLO
p2423
aVNONE
p2424
aVDUO_SUPPORT
p2425
aVSOLO
p2426
aVDUO_CARRY
p2427
aVNONE
p2428
aVSOLO
p2429
aVDUO_CARRY
p2430
aVNONE
p2431
aVSOLO
p2432
aVDUO_SUPPORT
p2433
aVSOLO
p2434
aVDUO_CARRY
p2435
aVSOLO
p2436
aVDUO_SUPPORT
p2437
aVNONE
p2438
aVSOLO
p2439
aVDUO_CARRY
p2440
aVDUO_SUPPORT
p2441
aVSOLO
p2442
aVSOLO
p2443
aVNONE
p2444
aVNONE
p2445
aVDUO_CARRY
p2446
aVSOLO
p2447
aVSOLO
p2448
aVDUO_SUPPORT
p2449
a.