(lp0
VMarksman
p1
aVSupport
p2
aVFighter
p3
aVMage
p4
aVFighter
p5
aVMarksman
p6
aVSupport
p7
aVMarksman
p8
aVAssassin
p9
aVFighter
p10
aVMage
p11
aVMarksman
p12
aVFighter
p13
aVFighter
p14
aVSupport
p15
aVFighter
p16
aVFighter
p17
aVTank
p18
aVMage
p19
aVMarksman
p20
ag16
ag20
aVFighter
p21
aVTank
p22
aVFighter
p23
aVMarksman
p24
aVTank
p25
aVAssassin
p26
aVAssassin
p27
aVFighter
p28
ag5
aVMarksman
p29
aVSupport
p30
aVMage
p31
aVFighter
p32
aVMarksman
p33
aVFighter
p34
ag25
ag19
aVSupport
p35
aVMage
p36
ag24
aVFighter
p37
ag2
aVMage
p38
ag16
aVSupport
p39
aVMage
p40
ag6
ag33
aVFighter
p41
ag39
ag12
ag9
ag23
aVSupport
p42
aVAssassin
p43
ag26
ag10
aVMarksman
p44
ag27
aVSupport
p45
aVTank
p46
ag20
ag28
aVTank
p47
ag12
ag39
aVMage
p48
aVTank
p49
aVFighter
p50
ag20
ag26
aVMage
p51
ag39
ag10
aVMarksman
p52
ag35
ag43
aVAssassin
p53
aVMarksman
p54
ag39
aVAssassin
p55
ag16
ag26
ag3
ag49
ag15
aVMarksman
p56
ag13
ag3
ag10
ag30
aVTank
p57
ag56
ag52
ag38
aVAssassin
p58
aVFighter
p59
ag22
ag18
aVFighter
p60
ag25
ag9
ag44
ag50
ag20
aVSupport
p61
ag16
aVAssassin
p62
ag56
aVFighter
p63
ag53
aVMage
p64
ag18
ag16
ag59
ag27
ag13
ag2
aVMarksman
p65
ag63
ag22
ag30
ag8
ag41
ag2
aVFighter
p66
ag19
aVMage
p67
ag63
aVFighter
p68
ag6
ag67
ag12
ag54
ag15
ag43
ag56
aVFighter
p69
ag56
ag2
ag16
aVMage
p70
aVTank
p71
ag30
ag5
aVSupport
p72
ag18
ag20
ag33
ag35
ag3
aVFighter
p73
ag13
ag60
aVTank
p74
aVMarksman
p75
ag18
ag42
ag44
ag55
ag31
ag19
aVFighter
p76
ag40
ag29
ag16
ag63
ag45
ag44
ag21
ag60
ag16
ag7
ag37
ag2
aVMage
p77
ag55
ag33
ag20
ag38
ag21
ag31
ag3
ag49
aVMage
p78
ag56
ag16
ag35
ag11
ag56
ag2
ag16
ag34
ag59
ag58
ag20
ag31
ag23
ag59
ag31
ag27
ag1
ag47
ag76
aVTank
p79
ag18
ag20
aVFighter
p80
aVFighter
p81
ag59
ag51
ag56
ag37
ag77
aVMarksman
p82
ag59
ag52
ag19
ag31
ag79
ag12
aVFighter
p83
ag17
ag57
ag19
ag24
ag79
ag50
ag56
ag60
ag20
aVMage
p84
ag22
aVTank
p85
ag20
ag62
ag17
ag36
ag35
ag60
ag16
ag2
ag12
ag10
ag70
ag3
ag1
aVTank
p86
ag4
ag20
ag39
ag60
ag58
ag25
ag84
ag16
ag57
ag1
ag59
ag36
ag63
ag24
ag22
ag26
ag52
ag39
ag38
ag34
ag16
ag65
ag29
ag63
ag2
aVMage
p87
ag83
ag2
ag38
ag44
ag26
ag10
ag16
ag24
ag87
ag77
ag16
ag84
ag13
ag20
ag39
ag42
ag38
ag66
ag56
ag17
ag22
ag36
ag29
ag27
ag21
ag1
ag50
ag51
ag34
ag57
ag28
ag29
ag6
ag9
ag45
ag2
ag21
ag16
ag38
ag20
ag2
ag29
aVMage
p88
ag16
ag34
ag82
ag79
ag11
ag1
ag50
ag55
ag82
aVFighter
p89
ag38
ag7
ag52
aVFighter
p90
ag39
ag40
ag66
ag2
ag54
ag38
ag37
aVFighter
p91
ag27
ag21
ag86
ag3
ag20
ag31
ag58
ag57
ag20
ag17
ag65
ag13
ag37
ag1
ag2
ag51
ag17
ag22
ag82
ag60
aVMage
p92
ag45
aVTank
p93
ag24
ag80
ag42
ag37
ag24
ag78
ag57
ag30
ag33
ag35
ag25
ag59
ag54
ag37
ag18
ag23
ag60
ag2
ag17
ag3
ag82
ag62
ag58
ag13
ag30
ag47
ag24
ag34
ag70
ag18
ag8
ag76
ag17
ag39
ag56
ag16
aVMarksman
p94
ag20
ag63
aVMage
p95
ag3
ag1
ag83
ag29
ag95
ag69
ag39
ag59
ag44
ag25
ag26
ag57
ag44
ag48
ag34
ag39
ag72
ag7
ag70
ag29
ag65
ag59
ag44
ag21
ag49
ag45
ag60
ag17
ag33
ag51
ag59
ag35
ag3
ag2
ag20
ag65
ag19
ag82
ag16
ag35
ag13
ag59
aVMage
p96
ag8
ag13
ag25
ag93
ag57
ag16
ag49
ag29
aVMage
p97
ag16
ag34
ag82
ag39
ag96
ag40
ag55
ag1
ag2
ag36
ag56
ag32
ag7
ag5
ag95
ag60
ag40
ag24
ag2
ag25
ag39
ag33
ag16
ag70
ag90
ag7
ag63
ag44
ag25
ag51
ag56
ag48
ag7
ag37
ag49
ag16
aVFighter
p98
ag31
ag24
ag86
ag34
ag1
aVFighter
p99
ag15
ag78
ag2
ag84
ag36
ag56
ag63
ag60
ag54
ag51
ag2
ag36
ag65
ag19
ag89
ag39
ag82
ag3
ag38
ag60
ag45
ag44
ag37
ag2
ag24
ag78
ag16
ag38
ag56
ag16
ag96
ag30
ag3
ag20
ag49
ag39
ag26
ag2
ag58
ag24
ag23
ag55
ag56
ag30
ag39
ag37
ag60
ag77
ag89
ag42
ag54
ag4
ag55
ag24
ag63
ag57
ag96
ag52
ag41
ag82
ag25
ag39
ag16
ag45
ag90
ag97
ag20
ag43
ag1
ag16
ag28
ag22
ag57
ag24
ag26
ag21
ag58
ag79
ag38
ag18
ag13
ag20
ag65
ag23
ag39
ag97
ag1
ag43
ag63
ag44
ag3
ag18
ag70
ag56
ag92
ag17
ag72
ag7
ag20
ag58
ag27
ag34
ag9
ag77
ag59
ag54
ag19
ag30
ag46
ag82
ag7
ag29
ag37
ag9
ag86
ag56
ag21
ag60
ag57
ag26
ag52
ag29
ag16
ag95
ag93
ag20
ag97
ag13
ag57
ag16
ag19
ag20
ag28
ag58
aVMarksman
p100
ag27
ag92
ag26
ag29
ag10
ag66
ag39
ag24
ag16
ag31
ag30
ag48
ag19
ag3
ag41
ag31
ag30
ag66
ag33
ag67
ag18
ag21
ag4
aVMage
p101
ag65
ag29
ag18
ag3
ag35
ag26
ag44
aVMage
p102
ag58
ag27
ag44
ag2
ag83
ag57
ag24
ag11
ag30
ag16
ag42
ag33
ag16
ag13
ag51
ag37
ag29
ag2
ag30
ag76
ag2
ag63
ag44
ag58
ag19
ag3
ag96
ag60
ag18
ag75
ag59
ag34
ag58
ag24
ag57
ag81
ag30
ag56
ag65
ag39
ag31
ag93
ag80
ag20
ag7
ag44
ag36
ag57
ag30
ag63
ag51
ag34
ag44
ag16
ag40
ag24
ag2
ag3
ag70
ag93
ag21
ag3
ag62
ag20
ag39
ag97
ag12
ag36
ag51
ag4
ag18
ag97
ag3
ag20
ag43
ag79
ag27
ag6
ag100
ag47
ag38
ag44
ag2
ag36
ag10
ag30
ag86
ag79
ag12
ag3
aVMarksman
p103
ag43
ag16
ag41
ag27
ag18
ag36
ag29
ag52
ag10
ag42
ag89
ag58
ag30
ag29
ag56
ag47
ag23
aVSupport
p104
ag11
ag92
ag82
ag58
ag79
ag57
ag56
ag39
ag60
ag28
ag25
ag63
ag70
ag25
aVSupport
p105
ag75
ag11
ag3
ag2
ag20
ag89
ag21
ag59
ag9
ag29
ag2
ag11
ag58
ag24
ag34
ag42
ag104
ag55
ag54
ag28
ag15
ag77
ag58
ag35
ag59
ag20
ag65
ag86
ag54
ag88
ag49
ag16
ag68
ag31
ag56
ag38
ag65
ag48
ag37
ag3
ag7
ag66
ag57
ag87
ag21
ag54
ag7
ag29
ag36
ag47
ag27
ag38
ag3
ag30
ag24
ag57
ag11
ag63
ag44
ag4
ag3
ag60
ag51
ag24
ag66
ag70
ag39
ag43
ag60
ag80
ag33
ag65
ag41
ag82
ag19
ag35
ag2
ag65
ag84
ag10
ag52
ag4
ag73
ag35
ag58
ag21
ag36
ag5
ag24
ag45
ag27
ag83
ag16
ag7
ag31
ag56
ag16
ag27
ag44
ag18
ag60
ag29
ag80
ag47
ag41
ag55
ag29
ag28
ag55
ag86
ag38
ag59
ag56
ag2
ag19
ag36
ag55
ag93
ag17
ag56
ag54
ag16
ag59
ag38
ag7
ag20
ag65
ag97
ag2
aVMarksman
p106
ag20
ag28
ag54
ag43
ag7
ag63
ag60
ag33
ag58
ag30
ag2
ag29
ag39
ag70
ag93
ag3
ag30
ag60
ag29
ag31
ag16
ag23
ag66
ag75
ag39
ag4
ag34
ag29
ag36
ag57
ag70
ag7
ag84
ag25
ag100
ag8
aVFighter
p107
ag12
ag26
ag18
ag34
ag36
ag78
aVFighter
p108
ag42
aVFighter
p109
ag49
ag29
ag27
ag7
ag65
ag8
ag1
ag58
ag2
ag21
ag20
ag16
ag39
ag21
ag101
ag63
ag12
ag47
ag19
ag51
ag58
ag63
ag38
ag7
ag29
ag15
ag51
ag16
ag41
ag33
ag24
ag17
ag3
ag31
ag60
ag58
ag18
ag44
ag90
ag9
ag87
ag3
ag89
ag1
ag15
ag20
ag21
ag7
aVAssassin
p110
ag54
ag44
ag9
ag22
ag3
ag26
ag89
ag31
ag61
ag29
aVMage
p111
ag79
ag2
ag3
ag48
ag82
ag30
ag36
ag71
ag44
ag31
ag16
ag20
ag39
ag42
ag38
ag63
ag29
aVMage
p112
ag60
ag59
ag84
ag51
ag12
ag71
ag16
ag35
ag38
ag24
ag21
ag3
ag63
ag105
ag44
ag80
ag16
ag39
ag51
ag93
ag3
ag33
ag21
ag75
ag45
ag111
ag3
ag36
ag77
ag37
ag20
ag31
ag39
ag42
ag36
ag9
ag56
ag49
ag29
ag77
ag44
ag48
ag36
ag57
ag8
ag95
ag88
ag16
ag7
ag63
aVTank
p113
ag24
ag30
ag82
ag4
aVFighter
p114
ag59
ag60
ag10
ag57
ag54
ag25
ag111
ag36
ag94
ag2
ag30
ag63
ag45
ag52
ag13
ag53
ag111
ag29
ag18
ag21
ag25
ag85
ag44
ag30
ag89
ag10
ag19
ag16
ag24
ag2
ag4
ag62
ag29
ag17
ag7
ag63
ag53
ag90
ag51
ag107
ag33
ag16
ag86
ag20
ag5
ag38
ag34
ag35
ag52
ag16
ag90
ag65
ag17
ag29
ag80
ag15
ag103
ag15
ag51
ag58
ag16
ag90
ag27
ag34
ag31
ag24
ag69
ag34
ag43
ag92
ag56
ag9
ag20
ag81
ag7
ag3
ag2
ag41
ag43
ag6
ag37
ag93
ag65
ag27
ag111
ag25
ag2
ag20
ag60
ag47
ag97
ag103
ag51
ag16
ag49
ag63
ag20
ag2
ag53
ag43
ag54
ag16
ag56
ag27
ag17
ag57
ag95
ag7
aVAssassin
p115
ag63
ag1
ag20
ag55
aVFighter
p116
ag26
aVMage
p117
ag42
ag10
ag23
ag3
ag33
ag16
ag34
ag24
ag48
ag57
ag20
ag51
ag24
ag3
ag89
ag54
ag7
ag34
ag78
ag66
ag20
ag3
ag43
ag21
ag2
ag75
ag23
ag17
ag39
ag16
ag24
ag16
ag112
ag4
ag35
ag34
ag31
ag84
ag65
ag58
ag34
ag48
ag75
ag35
ag25
ag42
ag84
ag3
ag29
ag89
ag20
ag16
ag49
ag38
ag18
ag29
ag28
ag17
ag2
ag62
ag42
ag20
ag97
ag51
ag37
ag77
ag21
ag58
ag31
ag56
ag16
ag35
ag11
ag48
ag20
ag9
ag44
ag15
aVAssassin
p118
ag85
ag45
ag23
ag111
ag29
aVMage
p119
ag37
ag18
aVAssassin
p120
ag16
ag52
ag16
ag34
ag44
ag39
ag51
ag20
ag64
ag104
ag38
ag53
ag95
ag2
ag47
ag50
ag20
ag77
ag8
ag34
ag35
ag25
ag65
ag42
ag63
ag70
ag44
ag24
ag5
ag115
ag27
ag22
ag16
ag7
ag30
ag60
ag20
ag52
ag97
ag2
ag3
ag44
ag105
ag16
ag56
ag49
ag78
ag13
ag22
ag44
ag3
aVMage
p121
ag61
ag95
ag41
ag36
ag54
ag24
ag58
ag63
ag51
ag31
ag16
ag31
ag24
ag15
ag21
ag47
ag63
ag39
ag44
ag111
ag20
ag55
ag63
ag22
ag51
ag28
ag25
ag23
ag18
ag44
ag17
ag2
ag27
ag16
ag82
ag52
ag94
ag3
ag30
ag63
ag77
ag25
ag20
ag59
ag60
ag18
ag87
ag63
ag50
ag56
ag48
ag16
ag24
ag58
ag35
ag13
ag44
ag42
ag71
ag18
ag65
ag40
ag103
ag30
ag63
ag16
ag29
ag45
ag13
ag77
ag4
ag27
ag36
ag5
ag106
ag92
ag103
ag26
ag3
ag72
ag63
ag24
ag48
ag7
ag3
ag40
ag21
ag26
ag18
ag29
ag3
ag89
ag20
ag78
ag45
ag95
ag58
ag41
ag42
ag1
ag19
ag24
ag77
ag3
ag35
ag51
ag28
ag56
ag43
ag16
ag12
ag52
ag28
ag15
ag25
ag20
ag1
ag41
ag80
ag73
ag58
ag42
ag51
ag41
ag44
ag38
ag16
ag20
ag2
ag19
ag42
ag30
ag4
ag54
ag57
ag111
ag3
ag56
ag39
ag59
ag118
ag8
ag92
ag34
ag43
ag55
ag7
ag59
ag54
ag62
ag36
ag21
ag80
ag1
ag18
ag65
ag42
ag48
ag59
ag56
ag73
ag60
ag49
ag17
ag28
ag84
ag60
ag39
ag16
ag75
ag77
ag31
ag109
ag36
ag113
ag120
ag77
ag56
ag17
ag65
ag35
ag75
ag40
ag63
ag3
ag86
ag26
ag70
ag91
ag2
ag85
ag29
ag48
ag45
ag16
ag56
ag65
ag4
ag20
ag45
ag60
ag38
ag39
ag90
ag59
ag44
ag29
ag55
ag66
ag9
ag7
ag31
ag37
ag63
ag78
ag24
ag2
ag47
ag63
ag27
ag109
ag93
ag54
ag3
ag10
ag43
ag2
ag63
ag66
ag78
ag94
ag7
ag60
ag36
ag44
ag43
ag30
ag16
ag35
ag37
ag24
ag8
ag22
ag3
ag17
ag43
ag20
ag37
ag2
ag101
ag16
ag51
ag17
ag24
ag31
ag59
ag45
ag29
ag19
ag54
ag10
ag20
ag55
ag30
ag57
ag26
ag37
ag30
ag9
ag59
ag54
ag19
ag1
ag28
ag3
ag35
ag79
ag93
ag2
ag75
ag48
ag56
ag38
ag55
ag35
ag53
ag24
ag16
ag43
ag15
ag17
ag80
ag45
ag49
ag42
ag29
ag16
ag42
ag94
ag15
ag56
ag59
ag1
ag105
ag61
ag101
ag99
ag26
ag89
ag54
ag92
ag105
ag16
ag21
ag82
ag51
ag49
ag70
ag65
ag35
ag25
ag36
ag103
ag42
ag97
ag1
ag12
ag39
ag19
ag34
ag55
ag21
ag57
ag47
ag54
ag95
ag24
ag9
ag16
ag49
ag2
ag38
ag12
ag89
ag3
ag57
ag9
ag57
ag89
ag33
ag26
ag29
ag38
ag32
ag112
ag7
ag59
ag43
ag57
ag13
ag20
ag77
ag29
ag16
ag86
ag34
ag59
ag58
ag52
ag20
ag93
ag55
ag97
ag24
ag21
ag51
ag17
ag65
ag7
ag52
ag34
ag2
ag37
ag47
ag24
ag19
ag17
ag89
ag56
ag57
ag36
ag7
ag12
ag84
ag42
ag55
ag29
ag16
ag36
ag37
ag42
ag65
ag27
ag13
ag54
ag7
ag29
ag95
ag10
ag32
ag7
ag24
ag78
ag63
ag2
ag62
ag65
ag63
ag33
ag112
ag87
ag42
ag34
ag30
ag96
ag106
ag16
ag2
ag80
ag43
ag20
ag3
ag27
ag7
ag52
ag63
ag4
ag82
ag21
ag38
ag114
ag2
ag95
ag30
ag3
ag29
ag111
ag29
ag55
ag2
ag49
ag24
ag32
ag77
ag21
ag26
ag35
ag23
ag37
ag20
ag16
ag7
ag29
ag21
ag30
ag3
ag50
ag25
ag20
ag30
ag39
ag9
ag36
ag4
ag27
ag21
ag38
ag20
ag18
ag55
ag31
ag100
ag36
ag89
ag56
ag45
ag47
ag63
ag51
ag34
ag107
ag48
ag2
ag19
ag20
ag28
ag58
ag16
ag56
ag43
ag108
ag18
ag43
ag24
ag45
ag91
ag30
ag36
ag105
ag44
ag9
ag89
ag42
ag60
ag16
ag70
ag75
ag2
ag30
ag58
ag37
ag8
ag55
ag70
ag13
ag45
ag106
ag58
ag56
ag54
ag16
ag7
ag82
ag32
ag11
ag28
ag39
ag20
ag16
ag9
ag105
ag49
ag65
ag5
ag36
ag55
ag62
ag82
ag78
ag96
ag58
ag42
ag95
ag42
ag24
ag98
ag16
ag20
ag2
ag47
ag88
ag63
ag104
ag106
ag2
ag108
ag3
ag83
ag1
ag36
ag43
ag39
ag27
ag57
ag20
ag13
ag50
ag10
ag29
ag43
ag42
ag93
ag24
ag37
ag49
ag45
ag67
ag39
ag80
ag1
ag19
ag59
ag41
ag27
ag90
ag60
ag57
ag7
ag29
ag23
ag16
ag59
ag38
ag90
ag31
ag29
ag66
ag86
ag48
ag58
ag54
ag79
ag26
ag38
ag86
ag54
ag3
ag21
ag35
ag44
ag23
ag32
ag11
ag82
aVFighter
p122
ag45
ag47
ag18
ag12
ag84
ag32
ag63
ag1
ag29
ag36
ag63
ag42
ag21
ag31
ag56
ag27
ag16
ag29
ag90
ag42
ag84
ag16
ag57
ag28
ag58
ag38
ag20
ag17
ag20
ag58
ag19
ag45
ag54
ag7
ag60
ag91
ag67
ag16
ag24
ag23
ag30
ag57
ag38
ag39
ag28
ag3
ag12
ag20
ag89
ag51
ag38
ag16
ag59
ag21
ag86
ag27
ag1
ag59
ag84
ag18
ag49
ag12
ag58
ag13
ag31
ag56
ag77
ag28
ag52
ag20
ag22
ag36
ag18
ag8
ag110
ag58
ag9
ag2
ag43
ag12
ag26
ag21
ag75
ag58
ag49
ag57
ag17
ag7
ag43
ag56
ag37
ag17
ag24
aVAssassin
p123
ag21
ag117
ag60
ag2
ag42
ag92
ag16
ag44
ag27
ag33
ag97
ag77
ag65
ag11
ag18
ag28
ag79
ag56
ag20
ag57
ag70
ag21
ag3
ag36
ag75
ag74
ag39
ag43
ag31
ag106
ag3
ag96
ag49
ag2
ag78
ag63
ag94
ag42
ag37
ag20
ag48
ag45
ag79
ag56
ag52
ag42
ag28
ag16
ag3
ag18
ag89
ag38
ag20
ag17
ag11
ag56
ag51
ag58
ag18
ag60
ag52
ag34
ag16
ag65
ag58
ag89
ag2
ag40
ag63
ag77
ag31
ag56
ag32
ag5
ag59
ag44
ag104
ag9
ag28
ag8
ag69
ag21
ag2
ag65
ag20
ag58
ag18
ag30
ag25
ag77
ag51
ag24
ag35
ag17
ag9
ag16
ag94
ag2
ag45
ag27
ag56
ag3
ag89
ag19
ag35
ag56
ag83
ag16
ag1
ag20
ag25
ag39
ag17
ag27
ag35
ag16
ag24
ag93
ag59
ag106
ag79
ag2
ag21
ag60
ag32
ag39
ag44
ag30
ag70
ag35
ag29
ag49
ag16
ag84
ag39
ag82
ag89
ag3
ag16
ag27
ag58
ag2
ag1
ag63
ag7
ag29
ag43
ag3
ag65
ag30
ag12
ag86
ag37
ag15
ag58
ag12
ag60
aVAssassin
p124
ag39
ag44
ag25
ag11
ag23
ag24
ag65
ag10
ag18
ag51
ag77
ag44
ag16
ag45
ag49
ag2
ag16
ag1
ag95
ag5
ag30
ag37
ag18
ag63
ag52
ag3
ag23
ag89
ag72
ag11
ag17
ag38
ag51
ag28
ag65
ag56
ag24
ag48
ag18
ag3
ag41
ag24
ag25
ag57
ag96
ag9
ag51
ag38
ag20
ag13
ag65
ag107
ag20
ag26
ag59
ag49
ag2
ag38
ag58
ag63
ag56
ag44
ag9
ag57
ag30
ag36
ag8
ag2
ag26
ag37
ag10
ag59
ag95
ag21
ag2
ag44
ag45
ag48
ag65
ag3
ag24
ag83
ag37
ag80
ag12
ag51
ag23
ag56
ag3
ag63
ag39
ag10
ag70
ag20
ag59
ag61
ag65
ag8
ag21
ag23
ag31
ag30
ag20
ag55
ag50
ag2
ag17
ag40
ag58
ag56
ag45
ag92
ag118
ag77
ag31
ag41
ag26
ag56
ag37
ag39
ag16
ag58
ag27
ag7
ag17
ag82
ag2
ag44
ag30
ag55
ag49
ag48
ag20
ag16
ag117
ag11
ag8
ag70
ag17
ag58
ag30
ag36
ag82
ag30
ag57
ag21
ag52
ag16
ag67
ag17
ag22
ag5
ag29
ag67
ag47
ag39
ag16
ag77
ag54
ag26
ag101
ag60
ag16
ag43
ag29
ag31
ag70
ag1
ag49
ag37
ag45
ag77
ag17
ag16
ag44
ag57
ag20
ag31
ag88
ag53
ag30
ag1
ag27
ag31
ag53
ag21
ag54
ag87
ag58
ag63
ag18
ag88
ag29
ag16
ag35
ag60
ag95
ag82
ag19
ag17
ag45
ag47
ag82
ag94
ag91
ag2
ag66
ag52
ag11
ag28
ag31
ag59
ag8
ag2
ag40
ag83
ag51
ag12
ag39
ag28
ag10
ag44
ag58
ag95
ag39
ag36
ag72
ag42
ag20
ag54
ag2
ag30
ag82
ag58
ag26
ag60
ag20
ag63
ag3
ag51
ag39
ag57
ag80
ag60
ag24
ag16
ag2
ag11
ag115
ag1
ag49
ag10
ag68
ag44
ag2
ag48
ag86
ag8
ag51
ag17
ag16
ag56
ag7
ag113
ag60
ag91
ag114
ag20
ag74
ag70
ag30
ag41
ag40
ag58
ag2
ag75
ag54
ag48
ag13
ag16
ag4
ag48
ag16
ag21
ag2
ag33
ag63
ag39
ag36
ag41
ag40
ag34
ag29
ag39
ag32
ag48
ag66
ag5
ag24
ag86
ag27
ag29
ag86
ag21
ag55
ag26
ag13
ag44
ag92
ag6
ag3
ag35
ag49
ag16
ag43
ag12
ag18
ag103
ag58
ag56
ag27
ag28
ag40
ag20
ag2
ag36
ag6
ag44
ag32
ag54
ag51
ag24
ag55
ag2
ag58
ag43
ag11
ag42
ag19
ag36
ag20
ag29
ag57
ag72
ag27
ag63
ag58
ag7
ag78
ag75
ag49
ag30
ag82
ag58
ag31
ag21
ag117
ag77
ag20
ag10
ag16
ag38
ag93
ag20
ag39
ag16
ag18
ag51
ag1
ag55
ag6
ag41
ag10
ag70
ag59
ag34
ag26
ag36
ag34
ag44
ag18
ag51
ag43
ag24
ag5
ag16
ag57
ag87
ag29
ag76
ag47
ag57
ag30
ag45
ag4
ag114
ag56
ag49
ag1
ag57
ag3
ag38
ag7
ag58
ag56
ag16
ag43
ag45
ag34
ag60
ag56
ag32
ag40
ag22
ag47
ag24
ag21
ag21
ag29
ag7
ag58
ag92
ag56
ag51
ag42
ag63
ag27
ag16
ag60
ag1
ag63
ag45
ag11
ag101
ag2
ag56
ag79
ag10
ag44
ag63
ag32
ag2
ag23
ag57
ag54
ag37
ag4
ag63
ag18
ag78
ag3
ag44
ag2
ag30
ag36
ag24
ag4
ag29
ag45
ag40
ag89
ag16
ag58
ag56
ag60
ag2
ag21
ag37
ag44
ag42
ag60
ag34
ag124
ag93
ag3
ag98
ag82
ag56
ag51
ag12
ag79
ag7
ag16
ag38
ag20
ag13
ag15
ag9
ag6
ag93
ag56
ag25
ag49
ag36
ag84
ag75
ag22
ag38
ag16
ag82
ag19
ag31
ag42
ag28
ag20
ag43
ag58
ag58
ag57
ag11
ag55
ag54
ag19
ag115
ag82
ag45
ag4
ag44
ag45
ag30
ag22
ag60
ag12
ag23
ag119
ag16
ag31
ag70
ag1
ag35
ag16
ag80
ag23
ag36
ag21
ag29
ag2
ag3
ag48
ag30
ag7
ag56
ag79
ag33
ag77
ag93
ag9
ag52
ag28
ag47
ag18
ag11
ag9
ag81
ag25
ag20
ag49
ag18
ag55
ag54
ag112
ag100
ag89
ag79
ag44
ag39
ag66
ag44
ag16
ag7
ag27
ag10
ag109
ag55
ag41
ag48
ag31
ag59
ag120
ag100
ag93
ag39
ag7
ag60
ag95
ag25
ag82
ag98
ag44
ag11
ag3
ag2
ag39
ag67
ag20
ag59
ag89
ag42
ag27
ag51
ag29
ag115
ag30
ag65
ag39
ag5
ag53
ag30
ag77
ag47
ag94
ag17
ag29
ag49
ag83
ag58
ag18
ag27
ag16
ag66
ag2
ag44
ag24
ag47
ag31
ag63
ag58
ag16
ag95
ag26
ag39
ag82
ag34
ag3
ag24
ag27
ag57
ag89
ag45
ag38
ag12
ag37
ag16
ag19
ag82
ag2
ag113
ag28
ag3
ag20
ag2
ag13
ag5
ag26
ag35
ag58
ag54
ag102
ag59
ag82
ag19
ag31
ag52
ag57
ag55
ag13
ag89
ag54
ag83
ag24
ag57
ag60
ag2
ag58
ag20
ag26
aVMarksman
p125
ag93
ag32
ag33
ag83
ag38
ag3
ag65
ag7
ag30
ag10
ag109
ag23
ag55
ag28
ag102
ag70
ag22
ag56
ag36
ag9
ag13
ag26
ag36
ag31
ag75
ag38
ag44
ag72
ag58
ag17
ag76
ag43
ag16
ag82
ag105
ag38
ag36
ag20
ag37
ag45
ag89
ag38
ag39
ag79
ag82
ag18
ag103
ag9
ag55
ag100
ag8
ag19
ag28
ag18
ag3
ag20
ag55
ag51
ag45
ag16
ag50
ag56
ag65
ag80
ag30
ag24
ag51
ag39
ag36
ag17
ag3
ag48
ag28
ag20
ag105
ag39
ag58
ag16
ag43
ag56
ag54
ag117
ag1
ag79
ag56
ag16
ag42
ag67
ag45
ag20
ag104
ag44
ag23
ag47
ag63
ag53
ag24
ag2
ag81
ag84
ag20
ag78
ag2
ag34
ag36
ag10
ag29
ag93
ag27
ag16
ag44
ag93
ag9
ag10
ag36
ag24
ag89
ag18
ag38
ag16
ag17
ag54
ag11
ag76
ag57
ag23
ag100
ag16
ag2
ag44
ag39
ag62
ag98
ag54
ag55
ag16
ag60
ag18
ag56
ag116
ag16
ag54
ag63
ag2
ag44
ag47
ag7
ag1
ag21
ag78
ag59
ag16
ag12
ag102
ag2
ag37
ag38
ag65
ag20
ag92
ag20
ag58
ag83
ag28
ag7
ag10
ag82
ag38
ag2
ag36
ag59
ag93
ag56
ag35
ag11
ag106
ag2
ag65
ag20
ag49
ag63
ag38
ag16
ag45
ag20
ag2
ag82
ag90
ag43
ag25
ag51
ag16
ag28
ag1
ag83
ag2
ag48
ag55
ag21
ag20
ag13
ag3
ag75
ag77
ag21
ag11
ag16
ag56
ag9
ag61
ag16
ag44
ag27
ag35
ag34
ag20
ag50
ag48
ag51
ag3
ag82
ag58
ag30
ag22
ag19
ag27
ag17
ag29
ag35
ag16
ag2
ag82
ag115
ag97
ag60
ag38
ag63
ag58
ag12
ag59
ag52
ag35
ag9
ag49
ag3
ag16
ag63
ag38
ag75
ag2
ag58
ag77
ag49
ag18
ag82
ag26
ag21
ag3
ag42
ag1
ag60
ag4
ag16
ag28
ag94
ag17
ag67
ag54
ag58
ag18
ag31
ag82
ag66
ag7
ag42
ag20
ag2
ag89
ag48
ag32
ag36
ag77
ag44
ag49
ag2
ag33
ag31
ag60
ag41
ag37
ag54
ag26
ag38
ag52
ag45
ag106
ag57
ag82
ag25
ag37
ag104
ag58
ag38
ag44
ag60
ag3
ag65
ag51
ag57
ag43
ag2
ag12
ag31
ag16
ag49
ag34
ag19
ag3
ag20
ag39
ag87
ag83
ag65
ag93
ag20
ag58
ag37
ag30
ag29
ag31
ag35
ag30
ag25
ag42
ag6
ag21
ag102
ag20
ag2
ag95
ag65
ag83
ag120
ag18
ag54
ag16
ag43
ag56
ag57
ag11
ag63
ag13
ag81
ag39
ag52
ag38
ag24
ag21
ag31
ag58
ag62
ag16
ag82
ag34
ag35
ag29
ag39
ag89
ag11
ag107
ag15
ag21
ag20
ag52
ag102
ag2
ag114
ag28
ag51
ag8
ag5
ag44
ag48
ag45
ag96
ag24
ag40
ag16
ag22
ag89
ag39
ag17
ag80
ag29
ag85
ag65
ag52
ag15
ag26
ag49
ag2
ag36
ag30
ag29
ag49
ag75
ag38
ag83
ag58
ag57
ag114
ag23
ag60
ag1
ag39
ag56
ag15
ag89
ag76
ag9
ag111
ag66
ag2
ag93
ag82
ag24
ag81
ag18
ag49
aVTank
p126
ag7
ag3
ag89
ag95
ag75
ag54
ag42
ag26
ag21
ag36
ag39
ag20
ag34
ag16
ag48
ag25
ag89
ag51
ag82
ag27
ag1
ag84
ag66
ag21
ag22
ag11
ag56
ag93
ag17
ag58
ag98
ag16
ag26
ag93
ag75
ag97
ag54
ag15
ag55
ag40
ag60
ag17
ag26
ag77
ag54
ag65
ag45
ag103
ag13
ag49
ag115
ag78
ag7
ag89
ag82
ag110
ag27
ag39
ag54
ag65
ag38
ag59
ag36
ag52
ag51
ag57
ag16
ag55
ag24
ag9
ag28
ag26
ag20
ag66
ag45
ag13
ag61
ag82
ag38
ag58
ag24
ag2
ag23
ag72
ag63
ag16
ag18
ag56
ag48
ag83
ag16
ag31
ag38
ag56
ag64
ag110
ag51
ag104
ag10
ag75
ag21
ag58
ag13
ag24
ag82
ag12
ag34
ag83
ag16
ag4
ag8
ag63
ag38
ag3
ag51
ag42
ag23
ag24
ag16
ag77
ag23
ag20
ag31
ag3
ag63
ag5
ag29
ag35
ag16
ag11
ag3
ag89
ag77
ag75
ag2
ag63
ag79
ag49
ag39
ag52
ag37
ag33
ag30
ag5
ag2
ag38
ag36
ag42
ag10
ag82
ag51
ag24
ag22
ag59
ag108
ag73
ag92
ag105
ag16
ag44
ag15
ag16
ag103
ag21
ag52
ag25
ag20
ag89
ag95
ag22
ag60
ag42
ag16
ag122
ag82
ag29
ag2
ag21
ag56
ag79
ag56
ag36
ag2
ag34
ag70
ag30
ag47
ag37
ag77
ag20
ag12
ag86
ag27
ag10
ag3
ag35
ag42
ag1
ag4
ag26
ag109
ag18
ag1
ag34
ag96
ag39
ag33
ag26
ag55
ag30
ag16
ag12
ag18
ag97
ag67
ag89
ag68
ag20
ag57
ag23
ag38
ag21
ag47
ag60
ag90
ag49
ag29
ag30
ag2
ag16
ag6
ag39
ag37
ag47
ag75
ag16
ag87
ag32
ag57
ag20
ag65
ag56
ag84
ag39
ag63
ag89
ag59
ag15
ag38
ag1
ag24
ag90
ag62
ag16
ag2
ag70
ag103
ag36
ag17
ag31
ag70
ag93
ag17
ag56
ag36
ag18
ag54
ag16
ag80
ag21
ag13
ag105
ag20
ag70
ag36
ag39
ag59
ag48
ag44
ag93
ag3
ag90
ag20
ag39
ag52
ag30
ag53
ag28
ag56
ag45
ag7
ag89
ag58
ag20
ag51
ag38
ag59
ag45
ag82
ag63
ag3
ag30
ag38
ag8
ag2
ag34
ag24
ag23
ag119
ag22
ag24
ag77
ag16
ag97
ag2
ag38
ag12
ag37
ag22
ag58
ag65
ag77
ag1
ag18
ag17
ag13
ag20
ag2
ag53
ag95
ag20
ag3
ag42
ag1
ag59
ag16
ag55
ag26
ag57
ag24
ag24
ag89
ag70
ag16
ag31
ag57
ag36
ag43
ag44
ag17
ag106
ag66
ag56
ag39
ag19
ag17
ag20
ag88
ag59
ag57
ag29
ag109
ag72
ag53
ag11
ag49
ag44
ag45
ag37
ag60
ag52
ag62
ag84
ag45
ag36
ag93
ag38
ag54
ag86
ag47
ag38
ag89
ag82
ag16
ag18
ag11
ag31
ag105
ag107
ag1
ag38
ag59
ag18
ag89
ag82
ag57
ag44
ag26
ag32
ag17
ag3
ag11
ag35
ag8
ag60
ag56
ag38
ag32
ag2
ag17
ag81
ag19
ag36
ag24
ag7
ag26
ag51
ag32
ag44
ag57
ag78
ag20
ag68
ag63
ag15
ag16
ag35
ag30
ag56
ag17
ag26
ag17
ag3
ag20
ag2
ag15
ag58
ag16
ag23
ag29
ag122
ag12
ag18
ag72
ag75
ag39
ag56
ag59
ag30
ag19
ag26
ag63
ag54
ag28
ag51
ag15
ag9
ag79
ag20
ag16
ag45
ag34
ag12
ag36
ag70
ag84
ag16
ag44
ag21
ag2
ag20
ag83
ag79
ag7
ag84
ag80
ag12
ag30
ag3
ag58
ag12
ag26
aVTank
p127
ag35
ag63
ag1
ag89
ag55
ag60
ag57
ag20
ag89
ag25
ag104
ag39
ag65
ag117
ag51
ag24
ag21
ag29
ag40
ag47
ag92
ag5
ag34
ag2
ag44
ag16
ag48
ag29
ag19
ag39
ag65
ag64
ag89
ag96
ag44
ag16
ag105
ag35
ag3
ag121
ag27
ag54
ag38
ag57
ag41
ag20
ag16
ag18
ag44
ag34
ag90
ag77
ag78
ag55
ag39
ag52
ag41
ag32
ag59
ag35
ag48
ag24
ag20
ag83
ag25
ag39
ag9
ag24
ag28
ag31
ag65
ag30
ag18
ag49
ag52
ag36
ag77
ag19
ag16
ag82
ag31
ag21
ag66
ag20
ag2
ag88
ag26
ag51
ag21
ag20
ag61
ag28
ag14
ag38
aVAssassin
p128
ag1
ag117
ag29
ag83
ag60
ag39
ag118
ag20
ag58
ag28
ag114
ag86
ag56
ag28
ag16
ag31
ag43
ag20
ag26
ag39
ag36
ag52
ag16
ag17
ag33
ag30
ag2
ag32
ag29
ag60
ag57
ag37
ag7
ag16
ag27
ag56
ag47
ag29
ag115
ag120
ag28
ag57
ag12
ag15
ag79
ag80
ag21
ag59
ag54
ag62
ag57
ag58
ag28
ag1
ag39
ag19
ag3
ag16
ag20
ag2
ag13
ag63
ag52
ag16
ag56
ag49
ag104
ag58
ag18
ag12
ag97
ag60
ag26
ag21
ag18
ag51
ag20
ag84
ag56
ag2
ag71
ag47
ag16
ag11
ag28
ag68
ag30
ag64
ag33
ag43
ag36
ag18
ag95
ag78
ag53
ag31
ag63
ag1
ag31
ag89
ag25
ag2
ag56
ag58
ag1
ag21
ag60
ag39
ag75
ag36
ag37
ag43
ag57
ag54
ag115
ag89
ag27
ag86
ag25
ag29
ag17
ag26
ag39
ag34
ag51
ag78
ag99
ag2
ag54
ag25
ag30
ag42
ag11
ag82
ag23
ag39
ag16
ag55
ag48
ag15
ag55
ag82
ag83
ag79
ag39
ag120
ag89
ag56
ag63
ag45
ag19
ag75
ag16
ag89
ag2
ag44
ag38
ag25
ag29
ag36
ag77
ag17
ag2
ag65
ag35
ag34
ag48
ag82
ag2
ag30
ag87
ag66
ag20
ag85
ag16
ag8
ag38
ag31
ag36
ag20
ag17
ag45
ag38
ag22
ag103
ag25
ag56
ag60
ag12
ag4
ag55
ag16
ag20
ag1
ag18
ag26
ag63
ag3
ag111
ag63
ag26
ag2
ag44
ag16
ag24
ag30
ag37
ag4
ag66
ag58
ag22
ag87
ag82
ag29
ag59
ag19
ag31
ag16
ag63
ag49
ag39
ag16
ag24
ag20
ag2
ag58
ag13
ag97
ag51
ag30
ag105
ag12
ag66
ag39
ag41
ag16
ag8
ag104
ag21
ag1
ag53
ag35
ag30
ag17
ag20
ag22
ag25
ag60
ag11
ag54
ag35
ag65
ag43
ag16
ag23
ag10
ag44
ag2
ag51
ag62
ag66
ag60
ag1
ag20
ag9
ag31
ag6
ag68
ag24
ag2
ag5
ag77
ag3
ag38
ag66
ag20
ag39
ag55
ag100
ag23
ag21
ag59
ag93
ag63
ag55
ag18
ag56
ag19
ag84
ag2
ag56
ag47
ag113
ag20
ag28
ag30
ag10
ag31
ag3
ag27
ag7
ag8
ag60
ag59
ag2
ag1
ag95
ag63
ag41
ag39
ag54
ag17
ag29
ag78
ag21
ag20
ag2
ag16
ag3
ag33
ag38
ag10
ag93
ag89
ag1
ag81
ag42
ag78
ag20
ag30
ag17
ag58
ag7
ag24
ag2
ag3
ag37
ag19
ag15
ag9
ag36
ag30
ag82
ag89
ag105
ag19
ag3
ag20
ag54
ag63
ag18
ag67
ag25
ag20
ag39
ag34
ag59
ag51
ag44
ag38
ag21
ag105
ag16
ag66
ag30
ag29
ag34
ag18
ag8
ag30
ag9
ag83
ag16
ag123
ag62
ag28
ag2
ag52
ag83
ag44
ag16
ag40
ag18
ag77
ag58
ag57
ag75
ag114
ag60
ag36
ag19
ag35
ag56
ag13
ag16
ag94
ag9
ag105
ag59
ag16
ag29
ag51
ag45
ag20
ag41
ag3
ag95
ag15
ag44
ag117
ag5
ag50
ag23
ag40
ag16
ag93
ag74
ag6
ag3
ag44
ag38
ag92
ag28
ag36
ag34
ag30
ag2
ag1
ag60
ag87
ag13
ag57
ag16
ag33
ag2
ag89
ag53
ag62
ag77
ag54
ag37
ag17
ag104
ag42
ag28
ag65
ag16
ag94
ag30
ag39
ag103
ag47
ag42
ag65
ag2
ag66
ag78
ag97
ag13
ag33
ag2
ag16
ag30
ag23
ag63
ag24
ag58
ag86
ag39
ag3
ag37
ag1
ag111
ag24
ag42
ag62
ag10
ag30
ag42
ag90
ag56
ag39
ag69
ag9
ag15
ag107
ag20
ag64
ag26
ag21
ag2
ag36
ag29
ag87
ag63
ag45
ag3
ag12
ag63
ag42
ag40
ag2
ag33
ag111
ag60
ag35
ag47
ag56
ag17
ag60
ag3
ag82
ag35
ag24
ag1
ag37
ag65
ag9
ag16
ag83
ag18
ag24
ag9
ag2
ag78
ag21
ag33
ag32
ag39
ag44
ag3
ag13
ag83
ag17
ag111
ag2
ag24
ag66
ag81
ag26
ag97
ag32
ag51
ag59
ag60
ag115
ag54
ag86
ag79
ag24
ag84
ag16
ag21
ag57
ag95
ag89
ag58
ag20
ag45
ag44
ag41
ag36
ag18
ag38
ag93
ag60
ag43
ag58
ag103
ag24
ag2
ag115
ag9
ag59
ag36
ag35
ag43
ag103
ag21
ag104
ag17
ag41
ag27
ag58
ag106
ag58
ag56
ag21
ag18
ag28
ag2
ag16
ag27
ag1
ag28
ag102
ag108
ag59
ag5
ag80
ag127
ag6
ag30
ag20
ag51
ag39
ag38
ag82
ag16
ag26
ag87
ag89
ag79
ag82
ag31
ag20
ag63
ag3
ag51
ag38
ag93
ag19
ag105
ag58
ag44
ag75
ag9
ag49
ag18
ag16
ag42
ag38
ag56
ag16
ag2
ag44
ag78
ag65
ag90
ag4
ag63
ag45
ag33
ag97
ag3
ag20
ag2
ag96
ag4
ag115
ag60
ag3
ag56
ag38
ag2
ag11
ag93
ag65
ag17
ag82
ag38
ag56
ag5
ag26
ag18
ag58
ag40
ag45
ag4
ag33
ag17
ag8
ag78
ag26
ag22
ag54
ag39
ag102
ag59
ag19
ag55
ag59
ag57
ag52
ag38
ag34
ag79
ag39
ag11
ag126
ag30
ag29
ag60
ag32
ag4
ag65
ag62
ag82
ag31
ag93
ag34
ag6
ag47
ag35
ag125
ag1
ag11
ag16
ag39
ag58
ag7
ag49
ag27
ag75
ag59
ag10
ag57
ag20
ag43
ag68
ag16
ag21
ag77
ag51
ag54
ag58
ag62
ag42
ag8
ag5
ag38
ag2
ag53
ag33
ag68
ag23
ag10
ag44
ag72
ag31
ag66
ag13
ag20
ag2
ag64
ag112
ag63
ag42
ag82
ag16
ag60
ag59
ag20
ag58
ag39
ag16
ag34
ag2
ag44
ag11
ag25
ag34
ag1
ag39
ag88
ag62
ag36
ag19
ag44
ag57
ag79
ag1
ag73
ag2
ag76
ag3
ag63
ag44
ag38
ag18
ag82
ag105
ag62
ag37
ag23
ag16
ag89
ag1
ag2
ag11
ag34
ag65
ag12
ag45
ag77
ag27
ag20
ag7
ag3
ag55
ag103
ag35
ag65
ag70
ag93
ag2
ag3
ag20
ag38
ag28
ag16
ag11
ag67
ag2
ag54
ag58
ag27
ag29
ag57
ag28
ag44
ag19
ag47
ag2
ag85
ag9
ag56
ag105
ag97
ag16
ag43
ag24
ag5
ag118
ag2
ag39
ag9
ag26
ag11
ag1
ag58
ag59
ag20
ag83
ag112
ag56
ag53
ag98
ag39
ag26
ag90
ag52
ag37
ag31
ag28
ag45
ag10
ag38
ag3
ag56
ag111
ag44
ag3
ag57
ag30
ag27
ag31
ag5
ag20
ag42
ag24
ag17
ag30
ag3
ag11
ag21
ag7
ag9
ag36
ag44
ag18
ag3
ag95
ag29
ag65
ag16
ag23
ag20
ag83
ag39
ag79
ag20
ag10
ag35
ag40
ag57
ag63
ag87
ag53
ag82
ag24
ag1
ag27
ag53
ag5
ag30
ag44
ag112
ag67
ag3
ag8
ag63
ag7
ag84
ag36
ag30
ag89
ag39
ag72
ag29
ag19
ag65
ag24
ag96
ag45
ag16
ag44
ag89
ag87
ag18
ag65
ag77
ag1
ag23
ag44
ag35
ag27
ag52
ag32
ag13
ag24
ag58
ag77
ag42
ag37
ag36
ag2
ag17
ag29
ag66
ag80
ag59
ag25
ag93
ag103
ag24
ag17
ag81
ag16
ag21
ag12
ag39
ag58
ag23
ag25
ag20
ag51
ag77
ag60
ag3
ag69
ag86
ag38
ag20
ag19
ag76
ag109
ag77
ag62
ag104
a.